<abi-corpus path='lib/libprometheus-cpp-pull.so' architecture='elf-amd-x86_64' soname='libprometheus-cpp-pull.so.0.12'>
  <elf-needed>
    <dependency name='libprometheus-cpp-core.so.0.12'/>
    <dependency name='libz.so.1'/>
    <dependency name='libpthread.so.0'/>
    <dependency name='libstdc++.so.6'/>
    <dependency name='libgcc_s.so.1'/>
    <dependency name='libc.so.6'/>
  </elf-needed>
  <elf-function-symbols>
    <elf-symbol name='_ZN10prometheus6FamilyINS_7CounterEE3AddIJEEERS1_RKSt3mapINSt7__cxx1112basic_stringIcSt11char_traitsIcESaIcEEESB_St4lessISB_ESaISt4pairIKSB_SB_EEEDpOT_' type='func-type' binding='weak-binding' visibility='default-visibility' is-defined='yes'/>
    <elf-symbol name='_ZN10prometheus6FamilyINS_7SummaryEE3AddIJSt6vectorINS_6detail13CKMSQuantiles8QuantileESaIS7_EEEEERS1_RKSt3mapINSt7__cxx1112basic_stringIcSt11char_traitsIcESaIcEEESH_St4lessISH_ESaISt4pairIKSH_SH_EEEDpOT_' type='func-type' binding='weak-binding' visibility='default-visibility' is-defined='yes'/>
    <elf-symbol name='_ZN10prometheus7Exposer12RegisterAuthESt8functionIFbRKNSt7__cxx1112basic_stringIcSt11char_traitsIcESaIcEEES9_EES9_S9_' type='func-type' binding='global-binding' visibility='default-visibility' is-defined='yes'/>
    <elf-symbol name='_ZN10prometheus7Exposer17GetEndpointForUriERKNSt7__cxx1112basic_stringIcSt11char_traitsIcESaIcEEE' type='func-type' binding='global-binding' visibility='default-visibility' is-defined='yes'/>
    <elf-symbol name='_ZN10prometheus7Exposer17RemoveCollectableERKSt8weak_ptrINS_11CollectableEERKNSt7__cxx1112basic_stringIcSt11char_traitsIcESaIcEEE' type='func-type' binding='global-binding' visibility='default-visibility' is-defined='yes'/>
    <elf-symbol name='_ZN10prometheus7Exposer19RegisterCollectableERKSt8weak_ptrINS_11CollectableEERKNSt7__cxx1112basic_stringIcSt11char_traitsIcESaIcEEE' type='func-type' binding='global-binding' visibility='default-visibility' is-defined='yes'/>
    <elf-symbol name='_ZN10prometheus7ExposerC1ERKNSt7__cxx1112basic_stringIcSt11char_traitsIcESaIcEEEm' type='func-type' binding='global-binding' visibility='default-visibility' alias='_ZN10prometheus7ExposerC2ERKNSt7__cxx1112basic_stringIcSt11char_traitsIcESaIcEEEm' is-defined='yes'/>
    <elf-symbol name='_ZN10prometheus7ExposerC1ESt6vectorINSt7__cxx1112basic_stringIcSt11char_traitsIcESaIcEEESaIS7_EE' type='func-type' binding='global-binding' visibility='default-visibility' is-defined='yes'/>
    <elf-symbol name='_ZN10prometheus7ExposerC2ERKNSt7__cxx1112basic_stringIcSt11char_traitsIcESaIcEEEm' type='func-type' binding='global-binding' visibility='default-visibility' is-defined='yes'/>
    <elf-symbol name='_ZN10prometheus7ExposerC2ESt6vectorINSt7__cxx1112basic_stringIcSt11char_traitsIcESaIcEEESaIS7_EE' type='func-type' binding='global-binding' visibility='default-visibility' alias='_ZN10prometheus7ExposerC1ESt6vectorINSt7__cxx1112basic_stringIcSt11char_traitsIcESaIcEEESaIS7_EE' is-defined='yes'/>
    <elf-symbol name='_ZN10prometheus7ExposerD1Ev' type='func-type' binding='global-binding' visibility='default-visibility' alias='_ZN10prometheus7ExposerD2Ev' is-defined='yes'/>
    <elf-symbol name='_ZN10prometheus7ExposerD2Ev' type='func-type' binding='global-binding' visibility='default-visibility' is-defined='yes'/>
    <elf-symbol name='_ZN11CivetServer10addHandlerERKNSt7__cxx1112basic_stringIcSt11char_traitsIcESaIcEEEP12CivetHandler' type='func-type' binding='global-binding' visibility='default-visibility' is-defined='yes'/>
    <elf-symbol name='_ZN11CivetServer11authHandlerEP13mg_connectionPv' type='func-type' binding='global-binding' visibility='default-visibility' is-defined='yes'/>
    <elf-symbol name='_ZN11CivetServer11getPostDataB5cxx11EP13mg_connection' type='func-type' binding='global-binding' visibility='default-visibility' is-defined='yes'/>
    <elf-symbol name='_ZN11CivetServer12closeHandlerEPK13mg_connection' type='func-type' binding='global-binding' visibility='default-visibility' is-defined='yes'/>
    <elf-symbol name='_ZN11CivetServer13removeHandlerERKNSt7__cxx1112basic_stringIcSt11char_traitsIcESaIcEEE' type='func-type' binding='global-binding' visibility='default-visibility' is-defined='yes'/>
    <elf-symbol name='_ZN11CivetServer14addAuthHandlerERKNSt7__cxx1112basic_stringIcSt11char_traitsIcESaIcEEEP16CivetAuthHandler' type='func-type' binding='global-binding' visibility='default-visibility' is-defined='yes'/>
    <elf-symbol name='_ZN11CivetServer14requestHandlerEP13mg_connectionPv' type='func-type' binding='global-binding' visibility='default-visibility' is-defined='yes'/>
    <elf-symbol name='_ZN11CivetServer17getListeningPortsEv' type='func-type' binding='global-binding' visibility='default-visibility' is-defined='yes'/>
    <elf-symbol name='_ZN11CivetServer17removeAuthHandlerERKNSt7__cxx1112basic_stringIcSt11char_traitsIcESaIcEEE' type='func-type' binding='global-binding' visibility='default-visibility' is-defined='yes'/>
    <elf-symbol name='_ZN11CivetServer19addWebSocketHandlerERKNSt7__cxx1112basic_stringIcSt11char_traitsIcESaIcEEEP21CivetWebSocketHandler' type='func-type' binding='global-binding' visibility='default-visibility' is-defined='yes'/>
    <elf-symbol name='_ZN11CivetServer20webSocketDataHandlerEP13mg_connectioniPcmPv' type='func-type' binding='global-binding' visibility='default-visibility' is-defined='yes'/>
    <elf-symbol name='_ZN11CivetServer21getListeningPortsFullEv' type='func-type' binding='global-binding' visibility='default-visibility' is-defined='yes'/>
    <elf-symbol name='_ZN11CivetServer21webSocketCloseHandlerEPK13mg_connectionPv' type='func-type' binding='global-binding' visibility='default-visibility' is-defined='yes'/>
    <elf-symbol name='_ZN11CivetServer21webSocketReadyHandlerEP13mg_connectionPv' type='func-type' binding='global-binding' visibility='default-visibility' is-defined='yes'/>
    <elf-symbol name='_ZN11CivetServer22removeWebSocketHandlerERKNSt7__cxx1112basic_stringIcSt11char_traitsIcESaIcEEE' type='func-type' binding='global-binding' visibility='default-visibility' is-defined='yes'/>
    <elf-symbol name='_ZN11CivetServer26webSocketConnectionHandlerEPK13mg_connectionPv' type='func-type' binding='global-binding' visibility='default-visibility' is-defined='yes'/>
    <elf-symbol name='_ZN11CivetServer5closeEv' type='func-type' binding='global-binding' visibility='default-visibility' is-defined='yes'/>
    <elf-symbol name='_ZN11CivetServer8getParamEP13mg_connectionPKcRNSt7__cxx1112basic_stringIcSt11char_traitsIcESaIcEEEm' type='func-type' binding='global-binding' visibility='default-visibility' is-defined='yes'/>
    <elf-symbol name='_ZN11CivetServer8getParamEPKcmS1_RNSt7__cxx1112basic_stringIcSt11char_traitsIcESaIcEEEm' type='func-type' binding='global-binding' visibility='default-visibility' is-defined='yes'/>
    <elf-symbol name='_ZN11CivetServer9getCookieEP13mg_connectionRKNSt7__cxx1112basic_stringIcSt11char_traitsIcESaIcEEERS7_' type='func-type' binding='global-binding' visibility='default-visibility' is-defined='yes'/>
    <elf-symbol name='_ZN11CivetServer9getHeaderEP13mg_connectionRKNSt7__cxx1112basic_stringIcSt11char_traitsIcESaIcEEE' type='func-type' binding='global-binding' visibility='default-visibility' is-defined='yes'/>
    <elf-symbol name='_ZN11CivetServer9urlDecodeEPKcRNSt7__cxx1112basic_stringIcSt11char_traitsIcESaIcEEEb' type='func-type' binding='global-binding' visibility='default-visibility' is-defined='yes'/>
    <elf-symbol name='_ZN11CivetServer9urlDecodeEPKcmRNSt7__cxx1112basic_stringIcSt11char_traitsIcESaIcEEEb' type='func-type' binding='global-binding' visibility='default-visibility' is-defined='yes'/>
    <elf-symbol name='_ZN11CivetServer9urlEncodeEPKcRNSt7__cxx1112basic_stringIcSt11char_traitsIcESaIcEEEb' type='func-type' binding='global-binding' visibility='default-visibility' is-defined='yes'/>
    <elf-symbol name='_ZN11CivetServer9urlEncodeEPKcmRNSt7__cxx1112basic_stringIcSt11char_traitsIcESaIcEEEb' type='func-type' binding='global-binding' visibility='default-visibility' is-defined='yes'/>
    <elf-symbol name='_ZN11CivetServerC1EPPKcPK14CivetCallbacksPKv' type='func-type' binding='global-binding' visibility='default-visibility' is-defined='yes'/>
    <elf-symbol name='_ZN11CivetServerC1ERKSt6vectorINSt7__cxx1112basic_stringIcSt11char_traitsIcESaIcEEESaIS6_EEPK14CivetCallbacksPKv' type='func-type' binding='global-binding' visibility='default-visibility' is-defined='yes'/>
    <elf-symbol name='_ZN11CivetServerC2EPPKcPK14CivetCallbacksPKv' type='func-type' binding='global-binding' visibility='default-visibility' alias='_ZN11CivetServerC1EPPKcPK14CivetCallbacksPKv' is-defined='yes'/>
    <elf-symbol name='_ZN11CivetServerC2ERKSt6vectorINSt7__cxx1112basic_stringIcSt11char_traitsIcESaIcEEESaIS6_EEPK14CivetCallbacksPKv' type='func-type' binding='global-binding' visibility='default-visibility' alias='_ZN11CivetServerC1ERKSt6vectorINSt7__cxx1112basic_stringIcSt11char_traitsIcESaIcEEESaIS6_EEPK14CivetCallbacksPKv' is-defined='yes'/>
    <elf-symbol name='_ZN11CivetServerD0Ev' type='func-type' binding='global-binding' visibility='default-visibility' is-defined='yes'/>
    <elf-symbol name='_ZN11CivetServerD1Ev' type='func-type' binding='global-binding' visibility='default-visibility' alias='_ZN11CivetServerD2Ev' is-defined='yes'/>
    <elf-symbol name='_ZN11CivetServerD2Ev' type='func-type' binding='global-binding' visibility='default-visibility' is-defined='yes'/>
    <elf-symbol name='_ZN12CivetHandler10handleHeadEP11CivetServerP13mg_connection' type='func-type' binding='global-binding' visibility='default-visibility' is-defined='yes'/>
    <elf-symbol name='_ZN12CivetHandler10handlePostEP11CivetServerP13mg_connection' type='func-type' binding='global-binding' visibility='default-visibility' is-defined='yes'/>
    <elf-symbol name='_ZN12CivetHandler11handlePatchEP11CivetServerP13mg_connection' type='func-type' binding='global-binding' visibility='default-visibility' is-defined='yes'/>
    <elf-symbol name='_ZN12CivetHandler12handleDeleteEP11CivetServerP13mg_connection' type='func-type' binding='global-binding' visibility='default-visibility' is-defined='yes'/>
    <elf-symbol name='_ZN12CivetHandler13handleOptionsEP11CivetServerP13mg_connection' type='func-type' binding='global-binding' visibility='default-visibility' is-defined='yes'/>
    <elf-symbol name='_ZN12CivetHandler9handleGetEP11CivetServerP13mg_connection' type='func-type' binding='global-binding' visibility='default-visibility' is-defined='yes'/>
    <elf-symbol name='_ZN12CivetHandler9handlePutEP11CivetServerP13mg_connection' type='func-type' binding='global-binding' visibility='default-visibility' is-defined='yes'/>
    <elf-symbol name='_ZN14CivetCallbacksC1Ev' type='func-type' binding='global-binding' visibility='default-visibility' alias='_ZN14CivetCallbacksC2Ev' is-defined='yes'/>
    <elf-symbol name='_ZN14CivetCallbacksC2Ev' type='func-type' binding='global-binding' visibility='default-visibility' is-defined='yes'/>
    <elf-symbol name='_ZN21CivetWebSocketHandler10handleDataEP11CivetServerP13mg_connectioniPcm' type='func-type' binding='global-binding' visibility='default-visibility' is-defined='yes'/>
    <elf-symbol name='_ZN21CivetWebSocketHandler11handleCloseEP11CivetServerPK13mg_connection' type='func-type' binding='global-binding' visibility='default-visibility' is-defined='yes'/>
    <elf-symbol name='_ZN21CivetWebSocketHandler16handleConnectionEP11CivetServerPK13mg_connection' type='func-type' binding='global-binding' visibility='default-visibility' is-defined='yes'/>
    <elf-symbol name='_ZN21CivetWebSocketHandler16handleReadyStateEP11CivetServerP13mg_connection' type='func-type' binding='global-binding' visibility='default-visibility' is-defined='yes'/>
    <elf-symbol name='_ZN9__gnu_cxx12__to_xstringINSt7__cxx1112basic_stringIcSt11char_traitsIcESaIcEEEcEET_PFiPT0_mPKS8_P13__va_list_tagEmSB_z' type='func-type' binding='weak-binding' visibility='default-visibility' is-defined='yes'/>
    <elf-symbol name='_ZN9__gnu_cxx13new_allocatorIN10prometheus12ClientMetric5LabelEE10deallocateEPS3_m' type='func-type' binding='weak-binding' visibility='default-visibility' is-defined='yes'/>
    <elf-symbol name='_ZN9__gnu_cxx13new_allocatorIN10prometheus12ClientMetric5LabelEED1Ev' type='func-type' binding='weak-binding' visibility='default-visibility' alias='_ZN9__gnu_cxx13new_allocatorIN10prometheus12ClientMetric5LabelEED2Ev' is-defined='yes'/>
    <elf-symbol name='_ZN9__gnu_cxx13new_allocatorIN10prometheus12ClientMetric5LabelEED2Ev' type='func-type' binding='weak-binding' visibility='default-visibility' is-defined='yes'/>
    <elf-symbol name='_ZN9__gnu_cxx13new_allocatorIN10prometheus12ClientMetric6BucketEE10deallocateEPS3_m' type='func-type' binding='weak-binding' visibility='default-visibility' is-defined='yes'/>
    <elf-symbol name='_ZN9__gnu_cxx13new_allocatorIN10prometheus12ClientMetric6BucketEED1Ev' type='func-type' binding='weak-binding' visibility='default-visibility' alias='_ZN9__gnu_cxx13new_allocatorIN10prometheus12ClientMetric6BucketEED2Ev' is-defined='yes'/>
    <elf-symbol name='_ZN9__gnu_cxx13new_allocatorIN10prometheus12ClientMetric6BucketEED2Ev' type='func-type' binding='weak-binding' visibility='default-visibility' is-defined='yes'/>
    <elf-symbol name='_ZN9__gnu_cxx13new_allocatorIN10prometheus12ClientMetric8QuantileEE10deallocateEPS3_m' type='func-type' binding='weak-binding' visibility='default-visibility' is-defined='yes'/>
    <elf-symbol name='_ZN9__gnu_cxx13new_allocatorIN10prometheus12ClientMetric8QuantileEED1Ev' type='func-type' binding='weak-binding' visibility='default-visibility' alias='_ZN9__gnu_cxx13new_allocatorIN10prometheus12ClientMetric8QuantileEED2Ev' is-defined='yes'/>
    <elf-symbol name='_ZN9__gnu_cxx13new_allocatorIN10prometheus12ClientMetric8QuantileEED2Ev' type='func-type' binding='weak-binding' visibility='default-visibility' is-defined='yes'/>
    <elf-symbol name='_ZN9__gnu_cxx13new_allocatorIN10prometheus12ClientMetricEE10deallocateEPS2_m' type='func-type' binding='weak-binding' visibility='default-visibility' is-defined='yes'/>
    <elf-symbol name='_ZN9__gnu_cxx13new_allocatorIN10prometheus12ClientMetricEEC1ERKS3_' type='func-type' binding='weak-binding' visibility='default-visibility' is-defined='yes'/>
    <elf-symbol name='_ZN9__gnu_cxx13new_allocatorIN10prometheus12ClientMetricEEC2ERKS3_' type='func-type' binding='weak-binding' visibility='default-visibility' alias='_ZN9__gnu_cxx13new_allocatorIN10prometheus12ClientMetricEEC1ERKS3_' is-defined='yes'/>
    <elf-symbol name='_ZN9__gnu_cxx13new_allocatorIN10prometheus12ClientMetricEED1Ev' type='func-type' binding='weak-binding' visibility='default-visibility' alias='_ZN9__gnu_cxx13new_allocatorIN10prometheus12ClientMetricEED2Ev' is-defined='yes'/>
    <elf-symbol name='_ZN9__gnu_cxx13new_allocatorIN10prometheus12ClientMetricEED2Ev' type='func-type' binding='weak-binding' visibility='default-visibility' is-defined='yes'/>
    <elf-symbol name='_ZN9__gnu_cxx13new_allocatorIN10prometheus12MetricFamilyEE10deallocateEPS2_m' type='func-type' binding='weak-binding' visibility='default-visibility' is-defined='yes'/>
    <elf-symbol name='_ZN9__gnu_cxx13new_allocatorIN10prometheus12MetricFamilyEE8allocateEmPKv' type='func-type' binding='weak-binding' visibility='default-visibility' is-defined='yes'/>
    <elf-symbol name='_ZN9__gnu_cxx13new_allocatorIN10prometheus12MetricFamilyEEC1ERKS3_' type='func-type' binding='weak-binding' visibility='default-visibility' alias='_ZN9__gnu_cxx13new_allocatorIN10prometheus12MetricFamilyEEC2ERKS3_' is-defined='yes'/>
    <elf-symbol name='_ZN9__gnu_cxx13new_allocatorIN10prometheus12MetricFamilyEEC1Ev' type='func-type' binding='weak-binding' visibility='default-visibility' alias='_ZN9__gnu_cxx13new_allocatorIN10prometheus12MetricFamilyEEC2Ev' is-defined='yes'/>
    <elf-symbol name='_ZN9__gnu_cxx13new_allocatorIN10prometheus12MetricFamilyEEC2ERKS3_' type='func-type' binding='weak-binding' visibility='default-visibility' is-defined='yes'/>
    <elf-symbol name='_ZN9__gnu_cxx13new_allocatorIN10prometheus12MetricFamilyEEC2Ev' type='func-type' binding='weak-binding' visibility='default-visibility' is-defined='yes'/>
    <elf-symbol name='_ZN9__gnu_cxx13new_allocatorIN10prometheus12MetricFamilyEED1Ev' type='func-type' binding='weak-binding' visibility='default-visibility' is-defined='yes'/>
    <elf-symbol name='_ZN9__gnu_cxx13new_allocatorIN10prometheus12MetricFamilyEED2Ev' type='func-type' binding='weak-binding' visibility='default-visibility' alias='_ZN9__gnu_cxx13new_allocatorIN10prometheus12MetricFamilyEED1Ev' is-defined='yes'/>
    <elf-symbol name='_ZN9__gnu_cxx13new_allocatorIN10prometheus6detail13CKMSQuantiles4ItemEE10deallocateEPS4_m' type='func-type' binding='weak-binding' visibility='default-visibility' is-defined='yes'/>
    <elf-symbol name='_ZN9__gnu_cxx13new_allocatorIN10prometheus6detail13CKMSQuantiles4ItemEED1Ev' type='func-type' binding='weak-binding' visibility='default-visibility' is-defined='yes'/>
    <elf-symbol name='_ZN9__gnu_cxx13new_allocatorIN10prometheus6detail13CKMSQuantiles4ItemEED2Ev' type='func-type' binding='weak-binding' visibility='default-visibility' alias='_ZN9__gnu_cxx13new_allocatorIN10prometheus6detail13CKMSQuantiles4ItemEED1Ev' is-defined='yes'/>
    <elf-symbol name='_ZN9__gnu_cxx13new_allocatorIN10prometheus6detail13CKMSQuantiles8QuantileEE10deallocateEPS4_m' type='func-type' binding='weak-binding' visibility='default-visibility' is-defined='yes'/>
    <elf-symbol name='_ZN9__gnu_cxx13new_allocatorIN10prometheus6detail13CKMSQuantiles8QuantileEE8allocateEmPKv' type='func-type' binding='weak-binding' visibility='default-visibility' is-defined='yes'/>
    <elf-symbol name='_ZN9__gnu_cxx13new_allocatorIN10prometheus6detail13CKMSQuantiles8QuantileEEC1ERKS5_' type='func-type' binding='weak-binding' visibility='default-visibility' is-defined='yes'/>
    <elf-symbol name='_ZN9__gnu_cxx13new_allocatorIN10prometheus6detail13CKMSQuantiles8QuantileEEC1Ev' type='func-type' binding='weak-binding' visibility='default-visibility' alias='_ZN9__gnu_cxx13new_allocatorIN10prometheus6detail13CKMSQuantiles8QuantileEEC2Ev' is-defined='yes'/>
    <elf-symbol name='_ZN9__gnu_cxx13new_allocatorIN10prometheus6detail13CKMSQuantiles8QuantileEEC2ERKS5_' type='func-type' binding='weak-binding' visibility='default-visibility' alias='_ZN9__gnu_cxx13new_allocatorIN10prometheus6detail13CKMSQuantiles8QuantileEEC1ERKS5_' is-defined='yes'/>
    <elf-symbol name='_ZN9__gnu_cxx13new_allocatorIN10prometheus6detail13CKMSQuantiles8QuantileEEC2Ev' type='func-type' binding='weak-binding' visibility='default-visibility' is-defined='yes'/>
    <elf-symbol name='_ZN9__gnu_cxx13new_allocatorIN10prometheus6detail13CKMSQuantiles8QuantileEED1Ev' type='func-type' binding='weak-binding' visibility='default-visibility' alias='_ZN9__gnu_cxx13new_allocatorIN10prometheus6detail13CKMSQuantiles8QuantileEED2Ev' is-defined='yes'/>
    <elf-symbol name='_ZN9__gnu_cxx13new_allocatorIN10prometheus6detail13CKMSQuantiles8QuantileEED2Ev' type='func-type' binding='weak-binding' visibility='default-visibility' is-defined='yes'/>
    <elf-symbol name='_ZN9__gnu_cxx13new_allocatorIN10prometheus6detail13CKMSQuantilesEE10deallocateEPS3_m' type='func-type' binding='weak-binding' visibility='default-visibility' is-defined='yes'/>
    <elf-symbol name='_ZN9__gnu_cxx13new_allocatorIN10prometheus6detail13CKMSQuantilesEED1Ev' type='func-type' binding='weak-binding' visibility='default-visibility' alias='_ZN9__gnu_cxx13new_allocatorIN10prometheus6detail13CKMSQuantilesEED2Ev' is-defined='yes'/>
    <elf-symbol name='_ZN9__gnu_cxx13new_allocatorIN10prometheus6detail13CKMSQuantilesEED2Ev' type='func-type' binding='weak-binding' visibility='default-visibility' is-defined='yes'/>
    <elf-symbol name='_ZN9__gnu_cxx13new_allocatorIN10prometheus8RegistryEE7destroyIS2_EEvPT_' type='func-type' binding='weak-binding' visibility='default-visibility' is-defined='yes'/>
    <elf-symbol name='_ZN9__gnu_cxx13new_allocatorIN10prometheus8RegistryEE9constructIS2_JEEEvPT_DpOT0_' type='func-type' binding='weak-binding' visibility='default-visibility' is-defined='yes'/>
    <elf-symbol name='_ZN9__gnu_cxx13new_allocatorIN10prometheus8RegistryEEC1ERKS3_' type='func-type' binding='weak-binding' visibility='default-visibility' alias='_ZN9__gnu_cxx13new_allocatorIN10prometheus8RegistryEEC2ERKS3_' is-defined='yes'/>
    <elf-symbol name='_ZN9__gnu_cxx13new_allocatorIN10prometheus8RegistryEEC1Ev' type='func-type' binding='weak-binding' visibility='default-visibility' alias='_ZN9__gnu_cxx13new_allocatorIN10prometheus8RegistryEEC2Ev' is-defined='yes'/>
    <elf-symbol name='_ZN9__gnu_cxx13new_allocatorIN10prometheus8RegistryEEC2ERKS3_' type='func-type' binding='weak-binding' visibility='default-visibility' is-defined='yes'/>
    <elf-symbol name='_ZN9__gnu_cxx13new_allocatorIN10prometheus8RegistryEEC2Ev' type='func-type' binding='weak-binding' visibility='default-visibility' is-defined='yes'/>
    <elf-symbol name='_ZN9__gnu_cxx13new_allocatorIN10prometheus8RegistryEED1Ev' type='func-type' binding='weak-binding' visibility='default-visibility' alias='_ZN9__gnu_cxx13new_allocatorIN10prometheus8RegistryEED2Ev' is-defined='yes'/>
    <elf-symbol name='_ZN9__gnu_cxx13new_allocatorIN10prometheus8RegistryEED2Ev' type='func-type' binding='weak-binding' visibility='default-visibility' is-defined='yes'/>
    <elf-symbol name='_ZN9__gnu_cxx13new_allocatorINSt7__cxx1112basic_stringIcSt11char_traitsIcESaIcEEEE10deallocateEPS6_m' type='func-type' binding='weak-binding' visibility='default-visibility' is-defined='yes'/>
    <elf-symbol name='_ZN9__gnu_cxx13new_allocatorINSt7__cxx1112basic_stringIcSt11char_traitsIcESaIcEEEE8allocateEmPKv' type='func-type' binding='weak-binding' visibility='default-visibility' is-defined='yes'/>
    <elf-symbol name='_ZN9__gnu_cxx13new_allocatorINSt7__cxx1112basic_stringIcSt11char_traitsIcESaIcEEEEC1ERKS7_' type='func-type' binding='weak-binding' visibility='default-visibility' alias='_ZN9__gnu_cxx13new_allocatorINSt7__cxx1112basic_stringIcSt11char_traitsIcESaIcEEEEC2ERKS7_' is-defined='yes'/>
    <elf-symbol name='_ZN9__gnu_cxx13new_allocatorINSt7__cxx1112basic_stringIcSt11char_traitsIcESaIcEEEEC1Ev' type='func-type' binding='weak-binding' visibility='default-visibility' alias='_ZN9__gnu_cxx13new_allocatorINSt7__cxx1112basic_stringIcSt11char_traitsIcESaIcEEEEC2Ev' is-defined='yes'/>
    <elf-symbol name='_ZN9__gnu_cxx13new_allocatorINSt7__cxx1112basic_stringIcSt11char_traitsIcESaIcEEEEC2ERKS7_' type='func-type' binding='weak-binding' visibility='default-visibility' is-defined='yes'/>
    <elf-symbol name='_ZN9__gnu_cxx13new_allocatorINSt7__cxx1112basic_stringIcSt11char_traitsIcESaIcEEEEC2Ev' type='func-type' binding='weak-binding' visibility='default-visibility' is-defined='yes'/>
    <elf-symbol name='_ZN9__gnu_cxx13new_allocatorINSt7__cxx1112basic_stringIcSt11char_traitsIcESaIcEEEED1Ev' type='func-type' binding='weak-binding' visibility='default-visibility' alias='_ZN9__gnu_cxx13new_allocatorINSt7__cxx1112basic_stringIcSt11char_traitsIcESaIcEEEED2Ev' is-defined='yes'/>
    <elf-symbol name='_ZN9__gnu_cxx13new_allocatorINSt7__cxx1112basic_stringIcSt11char_traitsIcESaIcEEEED2Ev' type='func-type' binding='weak-binding' visibility='default-visibility' is-defined='yes'/>
    <elf-symbol name='_ZN9__gnu_cxx13new_allocatorIPKcE10deallocateEPS2_m' type='func-type' binding='weak-binding' visibility='default-visibility' is-defined='yes'/>
    <elf-symbol name='_ZN9__gnu_cxx13new_allocatorIPKcE8allocateEmPKv' type='func-type' binding='weak-binding' visibility='default-visibility' is-defined='yes'/>
    <elf-symbol name='_ZN9__gnu_cxx13new_allocatorIPKcEC1ERKS3_' type='func-type' binding='weak-binding' visibility='default-visibility' is-defined='yes'/>
    <elf-symbol name='_ZN9__gnu_cxx13new_allocatorIPKcEC1Ev' type='func-type' binding='weak-binding' visibility='default-visibility' alias='_ZN9__gnu_cxx13new_allocatorIPKcEC2Ev' is-defined='yes'/>
    <elf-symbol name='_ZN9__gnu_cxx13new_allocatorIPKcEC2ERKS3_' type='func-type' binding='weak-binding' visibility='default-visibility' alias='_ZN9__gnu_cxx13new_allocatorIPKcEC1ERKS3_' is-defined='yes'/>
    <elf-symbol name='_ZN9__gnu_cxx13new_allocatorIPKcEC2Ev' type='func-type' binding='weak-binding' visibility='default-visibility' is-defined='yes'/>
    <elf-symbol name='_ZN9__gnu_cxx13new_allocatorIPKcED1Ev' type='func-type' binding='weak-binding' visibility='default-visibility' alias='_ZN9__gnu_cxx13new_allocatorIPKcED2Ev' is-defined='yes'/>
    <elf-symbol name='_ZN9__gnu_cxx13new_allocatorIPKcED2Ev' type='func-type' binding='weak-binding' visibility='default-visibility' is-defined='yes'/>
    <elf-symbol name='_ZN9__gnu_cxx13new_allocatorISt13_Rb_tree_nodeISt4pairIKNSt7__cxx1112basic_stringIcSt11char_traitsIcESaIcEEES8_EEE10deallocateEPSB_m' type='func-type' binding='weak-binding' visibility='default-visibility' is-defined='yes'/>
    <elf-symbol name='_ZN9__gnu_cxx13new_allocatorISt13_Rb_tree_nodeISt4pairIKNSt7__cxx1112basic_stringIcSt11char_traitsIcESaIcEEES8_EEE7destroyISA_EEvPT_' type='func-type' binding='weak-binding' visibility='default-visibility' is-defined='yes'/>
    <elf-symbol name='_ZN9__gnu_cxx13new_allocatorISt13_Rb_tree_nodeISt4pairIKNSt7__cxx1112basic_stringIcSt11char_traitsIcESaIcEEES8_EEEC1Ev' type='func-type' binding='weak-binding' visibility='default-visibility' alias='_ZN9__gnu_cxx13new_allocatorISt13_Rb_tree_nodeISt4pairIKNSt7__cxx1112basic_stringIcSt11char_traitsIcESaIcEEES8_EEEC2Ev' is-defined='yes'/>
    <elf-symbol name='_ZN9__gnu_cxx13new_allocatorISt13_Rb_tree_nodeISt4pairIKNSt7__cxx1112basic_stringIcSt11char_traitsIcESaIcEEES8_EEEC2Ev' type='func-type' binding='weak-binding' visibility='default-visibility' is-defined='yes'/>
    <elf-symbol name='_ZN9__gnu_cxx13new_allocatorISt13_Rb_tree_nodeISt4pairIKNSt7__cxx1112basic_stringIcSt11char_traitsIcESaIcEEES8_EEED1Ev' type='func-type' binding='weak-binding' visibility='default-visibility' alias='_ZN9__gnu_cxx13new_allocatorISt13_Rb_tree_nodeISt4pairIKNSt7__cxx1112basic_stringIcSt11char_traitsIcESaIcEEES8_EEED2Ev' is-defined='yes'/>
    <elf-symbol name='_ZN9__gnu_cxx13new_allocatorISt13_Rb_tree_nodeISt4pairIKNSt7__cxx1112basic_stringIcSt11char_traitsIcESaIcEEES8_EEED2Ev' type='func-type' binding='weak-binding' visibility='default-visibility' is-defined='yes'/>
    <elf-symbol name='_ZN9__gnu_cxx13new_allocatorISt23_Sp_counted_ptr_inplaceIN10prometheus8RegistryESaIS3_ELNS_12_Lock_policyE2EEE10deallocateEPS6_m' type='func-type' binding='weak-binding' visibility='default-visibility' is-defined='yes'/>
    <elf-symbol name='_ZN9__gnu_cxx13new_allocatorISt23_Sp_counted_ptr_inplaceIN10prometheus8RegistryESaIS3_ELNS_12_Lock_policyE2EEE8allocateEmPKv' type='func-type' binding='weak-binding' visibility='default-visibility' is-defined='yes'/>
    <elf-symbol name='_ZN9__gnu_cxx13new_allocatorISt23_Sp_counted_ptr_inplaceIN10prometheus8RegistryESaIS3_ELNS_12_Lock_policyE2EEEC1Ev' type='func-type' binding='weak-binding' visibility='default-visibility' is-defined='yes'/>
    <elf-symbol name='_ZN9__gnu_cxx13new_allocatorISt23_Sp_counted_ptr_inplaceIN10prometheus8RegistryESaIS3_ELNS_12_Lock_policyE2EEEC2Ev' type='func-type' binding='weak-binding' visibility='default-visibility' alias='_ZN9__gnu_cxx13new_allocatorISt23_Sp_counted_ptr_inplaceIN10prometheus8RegistryESaIS3_ELNS_12_Lock_policyE2EEEC1Ev' is-defined='yes'/>
    <elf-symbol name='_ZN9__gnu_cxx13new_allocatorISt23_Sp_counted_ptr_inplaceIN10prometheus8RegistryESaIS3_ELNS_12_Lock_policyE2EEED1Ev' type='func-type' binding='weak-binding' visibility='default-visibility' alias='_ZN9__gnu_cxx13new_allocatorISt23_Sp_counted_ptr_inplaceIN10prometheus8RegistryESaIS3_ELNS_12_Lock_policyE2EEED2Ev' is-defined='yes'/>
    <elf-symbol name='_ZN9__gnu_cxx13new_allocatorISt23_Sp_counted_ptr_inplaceIN10prometheus8RegistryESaIS3_ELNS_12_Lock_policyE2EEED2Ev' type='func-type' binding='weak-binding' visibility='default-visibility' is-defined='yes'/>
    <elf-symbol name='_ZN9__gnu_cxx13new_allocatorISt8weak_ptrIN10prometheus11CollectableEEE10deallocateEPS4_m' type='func-type' binding='weak-binding' visibility='default-visibility' is-defined='yes'/>
    <elf-symbol name='_ZN9__gnu_cxx13new_allocatorISt8weak_ptrIN10prometheus11CollectableEEE7destroyIS4_EEvPT_' type='func-type' binding='weak-binding' visibility='default-visibility' is-defined='yes'/>
    <elf-symbol name='_ZN9__gnu_cxx13new_allocatorISt8weak_ptrIN10prometheus11CollectableEEE8allocateEmPKv' type='func-type' binding='weak-binding' visibility='default-visibility' is-defined='yes'/>
    <elf-symbol name='_ZN9__gnu_cxx13new_allocatorISt8weak_ptrIN10prometheus11CollectableEEE9constructIS4_JRKS4_EEEvPT_DpOT0_' type='func-type' binding='weak-binding' visibility='default-visibility' is-defined='yes'/>
    <elf-symbol name='_ZN9__gnu_cxx13new_allocatorISt8weak_ptrIN10prometheus11CollectableEEE9constructIS4_JS4_EEEvPT_DpOT0_' type='func-type' binding='weak-binding' visibility='default-visibility' is-defined='yes'/>
    <elf-symbol name='_ZN9__gnu_cxx13new_allocatorISt8weak_ptrIN10prometheus11CollectableEEEC1Ev' type='func-type' binding='weak-binding' visibility='default-visibility' alias='_ZN9__gnu_cxx13new_allocatorISt8weak_ptrIN10prometheus11CollectableEEEC2Ev' is-defined='yes'/>
    <elf-symbol name='_ZN9__gnu_cxx13new_allocatorISt8weak_ptrIN10prometheus11CollectableEEEC2Ev' type='func-type' binding='weak-binding' visibility='default-visibility' is-defined='yes'/>
    <elf-symbol name='_ZN9__gnu_cxx13new_allocatorISt8weak_ptrIN10prometheus11CollectableEEED1Ev' type='func-type' binding='weak-binding' visibility='default-visibility' alias='_ZN9__gnu_cxx13new_allocatorISt8weak_ptrIN10prometheus11CollectableEEED2Ev' is-defined='yes'/>
    <elf-symbol name='_ZN9__gnu_cxx13new_allocatorISt8weak_ptrIN10prometheus11CollectableEEED2Ev' type='func-type' binding='weak-binding' visibility='default-visibility' is-defined='yes'/>
    <elf-symbol name='_ZN9__gnu_cxx13new_allocatorIcE10deallocateEPcm' type='func-type' binding='weak-binding' visibility='default-visibility' is-defined='yes'/>
    <elf-symbol name='_ZN9__gnu_cxx13new_allocatorIcE7destroyIcEEvPT_' type='func-type' binding='weak-binding' visibility='default-visibility' is-defined='yes'/>
    <elf-symbol name='_ZN9__gnu_cxx13new_allocatorIcE8allocateEmPKv' type='func-type' binding='weak-binding' visibility='default-visibility' is-defined='yes'/>
    <elf-symbol name='_ZN9__gnu_cxx13new_allocatorIcE9constructIcJcEEEvPT_DpOT0_' type='func-type' binding='weak-binding' visibility='default-visibility' is-defined='yes'/>
    <elf-symbol name='_ZN9__gnu_cxx13new_allocatorIhE10deallocateEPhm' type='func-type' binding='weak-binding' visibility='default-visibility' is-defined='yes'/>
    <elf-symbol name='_ZN9__gnu_cxx13new_allocatorIhE8allocateEmPKv' type='func-type' binding='weak-binding' visibility='default-visibility' is-defined='yes'/>
    <elf-symbol name='_ZN9__gnu_cxx13new_allocatorIhEC1ERKS1_' type='func-type' binding='weak-binding' visibility='default-visibility' alias='_ZN9__gnu_cxx13new_allocatorIhEC2ERKS1_' is-defined='yes'/>
    <elf-symbol name='_ZN9__gnu_cxx13new_allocatorIhEC1Ev' type='func-type' binding='weak-binding' visibility='default-visibility' alias='_ZN9__gnu_cxx13new_allocatorIhEC2Ev' is-defined='yes'/>
    <elf-symbol name='_ZN9__gnu_cxx13new_allocatorIhEC2ERKS1_' type='func-type' binding='weak-binding' visibility='default-visibility' is-defined='yes'/>
    <elf-symbol name='_ZN9__gnu_cxx13new_allocatorIhEC2Ev' type='func-type' binding='weak-binding' visibility='default-visibility' is-defined='yes'/>
    <elf-symbol name='_ZN9__gnu_cxx13new_allocatorIhED1Ev' type='func-type' binding='weak-binding' visibility='default-visibility' alias='_ZN9__gnu_cxx13new_allocatorIhED2Ev' is-defined='yes'/>
    <elf-symbol name='_ZN9__gnu_cxx13new_allocatorIhED2Ev' type='func-type' binding='weak-binding' visibility='default-visibility' is-defined='yes'/>
    <elf-symbol name='_ZN9__gnu_cxx13new_allocatorIiE10deallocateEPim' type='func-type' binding='weak-binding' visibility='default-visibility' is-defined='yes'/>
    <elf-symbol name='_ZN9__gnu_cxx13new_allocatorIiE8allocateEmPKv' type='func-type' binding='weak-binding' visibility='default-visibility' is-defined='yes'/>
    <elf-symbol name='_ZN9__gnu_cxx13new_allocatorIiEC1ERKS1_' type='func-type' binding='weak-binding' visibility='default-visibility' alias='_ZN9__gnu_cxx13new_allocatorIiEC2ERKS1_' is-defined='yes'/>
    <elf-symbol name='_ZN9__gnu_cxx13new_allocatorIiEC1Ev' type='func-type' binding='weak-binding' visibility='default-visibility' alias='_ZN9__gnu_cxx13new_allocatorIiEC2Ev' is-defined='yes'/>
    <elf-symbol name='_ZN9__gnu_cxx13new_allocatorIiEC2ERKS1_' type='func-type' binding='weak-binding' visibility='default-visibility' is-defined='yes'/>
    <elf-symbol name='_ZN9__gnu_cxx13new_allocatorIiEC2Ev' type='func-type' binding='weak-binding' visibility='default-visibility' is-defined='yes'/>
    <elf-symbol name='_ZN9__gnu_cxx13new_allocatorIiED1Ev' type='func-type' binding='weak-binding' visibility='default-visibility' alias='_ZN9__gnu_cxx13new_allocatorIiED2Ev' is-defined='yes'/>
    <elf-symbol name='_ZN9__gnu_cxx13new_allocatorIiED2Ev' type='func-type' binding='weak-binding' visibility='default-visibility' is-defined='yes'/>
    <elf-symbol name='_ZN9__gnu_cxx17__is_null_pointerINS_17__normal_iteratorIPcSt6vectorIcSaIcEEEEEEbT_' type='func-type' binding='weak-binding' visibility='default-visibility' is-defined='yes'/>
    <elf-symbol name='_ZN9__gnu_cxx17__is_null_pointerIcEEbPT_' type='func-type' binding='weak-binding' visibility='default-visibility' is-defined='yes'/>
    <elf-symbol name='_ZN9__gnu_cxx17__normal_iteratorIPKN10prometheus12MetricFamilyESt6vectorIS2_SaIS2_EEEC1ERKS4_' type='func-type' binding='weak-binding' visibility='default-visibility' is-defined='yes'/>
    <elf-symbol name='_ZN9__gnu_cxx17__normal_iteratorIPKN10prometheus12MetricFamilyESt6vectorIS2_SaIS2_EEEC1IPS2_EERKNS0_IT_NS_11__enable_ifIXsrSt10__are_sameISB_SA_E7__valueES7_E6__typeEEE' type='func-type' binding='weak-binding' visibility='default-visibility' alias='_ZN9__gnu_cxx17__normal_iteratorIPKN10prometheus12MetricFamilyESt6vectorIS2_SaIS2_EEEC2IPS2_EERKNS0_IT_NS_11__enable_ifIXsrSt10__are_sameISB_SA_E7__valueES7_E6__typeEEE' is-defined='yes'/>
    <elf-symbol name='_ZN9__gnu_cxx17__normal_iteratorIPKN10prometheus12MetricFamilyESt6vectorIS2_SaIS2_EEEC2ERKS4_' type='func-type' binding='weak-binding' visibility='default-visibility' alias='_ZN9__gnu_cxx17__normal_iteratorIPKN10prometheus12MetricFamilyESt6vectorIS2_SaIS2_EEEC1ERKS4_' is-defined='yes'/>
    <elf-symbol name='_ZN9__gnu_cxx17__normal_iteratorIPKN10prometheus12MetricFamilyESt6vectorIS2_SaIS2_EEEC2IPS2_EERKNS0_IT_NS_11__enable_ifIXsrSt10__are_sameISB_SA_E7__valueES7_E6__typeEEE' type='func-type' binding='weak-binding' visibility='default-visibility' is-defined='yes'/>
    <elf-symbol name='_ZN9__gnu_cxx17__normal_iteratorIPKSt8weak_ptrIN10prometheus11CollectableEESt6vectorIS4_SaIS4_EEEC1IPS4_EERKNS0_IT_NS_11__enable_ifIXsrSt10__are_sameISD_SC_E7__valueES9_E6__typeEEE' type='func-type' binding='weak-binding' visibility='default-visibility' alias='_ZN9__gnu_cxx17__normal_iteratorIPKSt8weak_ptrIN10prometheus11CollectableEESt6vectorIS4_SaIS4_EEEC2IPS4_EERKNS0_IT_NS_11__enable_ifIXsrSt10__are_sameISD_SC_E7__valueES9_E6__typeEEE' is-defined='yes'/>
    <elf-symbol name='_ZN9__gnu_cxx17__normal_iteratorIPKSt8weak_ptrIN10prometheus11CollectableEESt6vectorIS4_SaIS4_EEEC2IPS4_EERKNS0_IT_NS_11__enable_ifIXsrSt10__are_sameISD_SC_E7__valueES9_E6__typeEEE' type='func-type' binding='weak-binding' visibility='default-visibility' is-defined='yes'/>
    <elf-symbol name='_ZN9__gnu_cxx17__normal_iteratorIPKcNSt7__cxx1112basic_stringIcSt11char_traitsIcESaIcEEEEC1IPcEERKNS0_IT_NS_11__enable_ifIXsrSt10__are_sameISC_SB_E7__valueES8_E6__typeEEE' type='func-type' binding='weak-binding' visibility='default-visibility' alias='_ZN9__gnu_cxx17__normal_iteratorIPKcNSt7__cxx1112basic_stringIcSt11char_traitsIcESaIcEEEEC2IPcEERKNS0_IT_NS_11__enable_ifIXsrSt10__are_sameISC_SB_E7__valueES8_E6__typeEEE' is-defined='yes'/>
    <elf-symbol name='_ZN9__gnu_cxx17__normal_iteratorIPKcNSt7__cxx1112basic_stringIcSt11char_traitsIcESaIcEEEEC2IPcEERKNS0_IT_NS_11__enable_ifIXsrSt10__are_sameISC_SB_E7__valueES8_E6__typeEEE' type='func-type' binding='weak-binding' visibility='default-visibility' is-defined='yes'/>
    <elf-symbol name='_ZN9__gnu_cxx17__normal_iteratorIPKcNSt7__cxx1112basic_stringIcSt11char_traitsIcESaIcEEEEppEv' type='func-type' binding='weak-binding' visibility='default-visibility' is-defined='yes'/>
    <elf-symbol name='_ZN9__gnu_cxx17__normal_iteratorIPKcSt6vectorIcSaIcEEEC1ERKS2_' type='func-type' binding='weak-binding' visibility='default-visibility' alias='_ZN9__gnu_cxx17__normal_iteratorIPKcSt6vectorIcSaIcEEEC2ERKS2_' is-defined='yes'/>
    <elf-symbol name='_ZN9__gnu_cxx17__normal_iteratorIPKcSt6vectorIcSaIcEEEC1IPcEERKNS0_IT_NS_11__enable_ifIXsrSt10__are_sameIS9_S8_E7__valueES5_E6__typeEEE' type='func-type' binding='weak-binding' visibility='default-visibility' alias='_ZN9__gnu_cxx17__normal_iteratorIPKcSt6vectorIcSaIcEEEC2IPcEERKNS0_IT_NS_11__enable_ifIXsrSt10__are_sameIS9_S8_E7__valueES5_E6__typeEEE' is-defined='yes'/>
    <elf-symbol name='_ZN9__gnu_cxx17__normal_iteratorIPKcSt6vectorIcSaIcEEEC2ERKS2_' type='func-type' binding='weak-binding' visibility='default-visibility' is-defined='yes'/>
    <elf-symbol name='_ZN9__gnu_cxx17__normal_iteratorIPKcSt6vectorIcSaIcEEEC2IPcEERKNS0_IT_NS_11__enable_ifIXsrSt10__are_sameIS9_S8_E7__valueES5_E6__typeEEE' type='func-type' binding='weak-binding' visibility='default-visibility' is-defined='yes'/>
    <elf-symbol name='_ZN9__gnu_cxx17__normal_iteratorIPKhSt6vectorIhSaIhEEEC1ERKS2_' type='func-type' binding='weak-binding' visibility='default-visibility' alias='_ZN9__gnu_cxx17__normal_iteratorIPKhSt6vectorIhSaIhEEEC2ERKS2_' is-defined='yes'/>
    <elf-symbol name='_ZN9__gnu_cxx17__normal_iteratorIPKhSt6vectorIhSaIhEEEC2ERKS2_' type='func-type' binding='weak-binding' visibility='default-visibility' is-defined='yes'/>
    <elf-symbol name='_ZN9__gnu_cxx17__normal_iteratorIPN10prometheus12MetricFamilyESt6vectorIS2_SaIS2_EEEC1ERKS3_' type='func-type' binding='weak-binding' visibility='default-visibility' alias='_ZN9__gnu_cxx17__normal_iteratorIPN10prometheus12MetricFamilyESt6vectorIS2_SaIS2_EEEC2ERKS3_' is-defined='yes'/>
    <elf-symbol name='_ZN9__gnu_cxx17__normal_iteratorIPN10prometheus12MetricFamilyESt6vectorIS2_SaIS2_EEEC2ERKS3_' type='func-type' binding='weak-binding' visibility='default-visibility' is-defined='yes'/>
    <elf-symbol name='_ZN9__gnu_cxx17__normal_iteratorIPN10prometheus12MetricFamilyESt6vectorIS2_SaIS2_EEEpLEl' type='func-type' binding='weak-binding' visibility='default-visibility' is-defined='yes'/>
    <elf-symbol name='_ZN9__gnu_cxx17__normal_iteratorIPN10prometheus12MetricFamilyESt6vectorIS2_SaIS2_EEEppEv' type='func-type' binding='weak-binding' visibility='default-visibility' is-defined='yes'/>
    <elf-symbol name='_ZN9__gnu_cxx17__normal_iteratorIPPKcSt6vectorIS2_SaIS2_EEEC1ERKS3_' type='func-type' binding='weak-binding' visibility='default-visibility' alias='_ZN9__gnu_cxx17__normal_iteratorIPPKcSt6vectorIS2_SaIS2_EEEC2ERKS3_' is-defined='yes'/>
    <elf-symbol name='_ZN9__gnu_cxx17__normal_iteratorIPPKcSt6vectorIS2_SaIS2_EEEC2ERKS3_' type='func-type' binding='weak-binding' visibility='default-visibility' is-defined='yes'/>
    <elf-symbol name='_ZN9__gnu_cxx17__normal_iteratorIPSt8weak_ptrIN10prometheus11CollectableEESt6vectorIS4_SaIS4_EEEC1ERKS5_' type='func-type' binding='weak-binding' visibility='default-visibility' alias='_ZN9__gnu_cxx17__normal_iteratorIPSt8weak_ptrIN10prometheus11CollectableEESt6vectorIS4_SaIS4_EEEC2ERKS5_' is-defined='yes'/>
    <elf-symbol name='_ZN9__gnu_cxx17__normal_iteratorIPSt8weak_ptrIN10prometheus11CollectableEESt6vectorIS4_SaIS4_EEEC2ERKS5_' type='func-type' binding='weak-binding' visibility='default-visibility' is-defined='yes'/>
    <elf-symbol name='_ZN9__gnu_cxx17__normal_iteratorIPSt8weak_ptrIN10prometheus11CollectableEESt6vectorIS4_SaIS4_EEEppEv' type='func-type' binding='weak-binding' visibility='default-visibility' is-defined='yes'/>
    <elf-symbol name='_ZN9__gnu_cxx17__normal_iteratorIPcSt6vectorIcSaIcEEEC1ERKS1_' type='func-type' binding='weak-binding' visibility='default-visibility' alias='_ZN9__gnu_cxx17__normal_iteratorIPcSt6vectorIcSaIcEEEC2ERKS1_' is-defined='yes'/>
    <elf-symbol name='_ZN9__gnu_cxx17__normal_iteratorIPcSt6vectorIcSaIcEEEC2ERKS1_' type='func-type' binding='weak-binding' visibility='default-visibility' is-defined='yes'/>
    <elf-symbol name='_ZN9__gnu_cxx17__normal_iteratorIPcSt6vectorIcSaIcEEEppEv' type='func-type' binding='weak-binding' visibility='default-visibility' is-defined='yes'/>
    <elf-symbol name='_ZN9__gnu_cxxeqIPKcSt6vectorIcSaIcEEEEbRKNS_17__normal_iteratorIT_T0_EESB_' type='func-type' binding='weak-binding' visibility='default-visibility' is-defined='yes'/>
    <elf-symbol name='_ZN9__gnu_cxxeqIPKhSt6vectorIhSaIhEEEEbRKNS_17__normal_iteratorIT_T0_EESB_' type='func-type' binding='weak-binding' visibility='default-visibility' is-defined='yes'/>
    <elf-symbol name='_ZN9__gnu_cxxeqIPN10prometheus12MetricFamilyESt6vectorIS2_SaIS2_EEEEbRKNS_17__normal_iteratorIT_T0_EESC_' type='func-type' binding='weak-binding' visibility='default-visibility' is-defined='yes'/>
    <elf-symbol name='_ZN9__gnu_cxxeqIPSt8weak_ptrIN10prometheus11CollectableEESt6vectorIS4_SaIS4_EEEEbRKNS_17__normal_iteratorIT_T0_EESE_' type='func-type' binding='weak-binding' visibility='default-visibility' is-defined='yes'/>
    <elf-symbol name='_ZN9__gnu_cxxltIPKcNSt7__cxx1112basic_stringIcSt11char_traitsIcESaIcEEEEEbRKNS_17__normal_iteratorIT_T0_EESE_' type='func-type' binding='weak-binding' visibility='default-visibility' is-defined='yes'/>
    <elf-symbol name='_ZN9__gnu_cxxmiIPKN10prometheus12MetricFamilyESt6vectorIS2_SaIS2_EEEENS_17__normal_iteratorIT_T0_E15difference_typeERKSB_SE_' type='func-type' binding='weak-binding' visibility='default-visibility' is-defined='yes'/>
    <elf-symbol name='_ZN9__gnu_cxxmiIPKSt8weak_ptrIN10prometheus11CollectableEESt6vectorIS4_SaIS4_EEEENS_17__normal_iteratorIT_T0_E15difference_typeERKSD_SG_' type='func-type' binding='weak-binding' visibility='default-visibility' is-defined='yes'/>
    <elf-symbol name='_ZN9__gnu_cxxmiIPKcNSt7__cxx1112basic_stringIcSt11char_traitsIcESaIcEEEEENS_17__normal_iteratorIT_T0_E15difference_typeERKSC_SF_' type='func-type' binding='weak-binding' visibility='default-visibility' is-defined='yes'/>
    <elf-symbol name='_ZN9__gnu_cxxmiIPKcPcNSt7__cxx1112basic_stringIcSt11char_traitsIcESaIcEEEEEDTmicldtfp_4baseEcldtfp0_4baseEERKNS_17__normal_iteratorIT_T1_EERKNSB_IT0_SD_EE' type='func-type' binding='weak-binding' visibility='default-visibility' is-defined='yes'/>
    <elf-symbol name='_ZN9__gnu_cxxmiIPKcSt6vectorIcSaIcEEEENS_17__normal_iteratorIT_T0_E15difference_typeERKS9_SC_' type='func-type' binding='weak-binding' visibility='default-visibility' is-defined='yes'/>
    <elf-symbol name='_ZN9__gnu_cxxmiIPN10prometheus12MetricFamilyESt6vectorIS2_SaIS2_EEEENS_17__normal_iteratorIT_T0_E15difference_typeERKSA_SD_' type='func-type' binding='weak-binding' visibility='default-visibility' is-defined='yes'/>
    <elf-symbol name='_ZN9__gnu_cxxmiIPSt8weak_ptrIN10prometheus11CollectableEESt6vectorIS4_SaIS4_EEEENS_17__normal_iteratorIT_T0_E15difference_typeERKSC_SF_' type='func-type' binding='weak-binding' visibility='default-visibility' is-defined='yes'/>
    <elf-symbol name='_ZN9__gnu_cxxmiIPcSt6vectorIcSaIcEEEENS_17__normal_iteratorIT_T0_E15difference_typeERKS8_SB_' type='func-type' binding='weak-binding' visibility='default-visibility' is-defined='yes'/>
    <elf-symbol name='_ZN9__gnu_cxxneIPSt8weak_ptrIN10prometheus11CollectableEESt6vectorIS4_SaIS4_EEEEbRKNS_17__normal_iteratorIT_T0_EESE_' type='func-type' binding='weak-binding' visibility='default-visibility' is-defined='yes'/>
    <elf-symbol name='_ZN9__gnu_cxxneIPcSt6vectorIcSaIcEEEEbRKNS_17__normal_iteratorIT_T0_EESA_' type='func-type' binding='weak-binding' visibility='default-visibility' is-defined='yes'/>
    <elf-symbol name='_ZNK10prometheus7Exposer17GetListeningPortsEv' type='func-type' binding='global-binding' visibility='default-visibility' is-defined='yes'/>
    <elf-symbol name='_ZNK9__gnu_cxx13new_allocatorIN10prometheus12MetricFamilyEE8max_sizeEv' type='func-type' binding='weak-binding' visibility='default-visibility' is-defined='yes'/>
    <elf-symbol name='_ZNK9__gnu_cxx13new_allocatorIN10prometheus6detail13CKMSQuantiles8QuantileEE8max_sizeEv' type='func-type' binding='weak-binding' visibility='default-visibility' is-defined='yes'/>
    <elf-symbol name='_ZNK9__gnu_cxx13new_allocatorINSt7__cxx1112basic_stringIcSt11char_traitsIcESaIcEEEE8max_sizeEv' type='func-type' binding='weak-binding' visibility='default-visibility' is-defined='yes'/>
    <elf-symbol name='_ZNK9__gnu_cxx13new_allocatorIPKcE8max_sizeEv' type='func-type' binding='weak-binding' visibility='default-visibility' is-defined='yes'/>
    <elf-symbol name='_ZNK9__gnu_cxx13new_allocatorISt23_Sp_counted_ptr_inplaceIN10prometheus8RegistryESaIS3_ELNS_12_Lock_policyE2EEE8max_sizeEv' type='func-type' binding='weak-binding' visibility='default-visibility' is-defined='yes'/>
    <elf-symbol name='_ZNK9__gnu_cxx13new_allocatorISt8weak_ptrIN10prometheus11CollectableEEE8max_sizeEv' type='func-type' binding='weak-binding' visibility='default-visibility' is-defined='yes'/>
    <elf-symbol name='_ZNK9__gnu_cxx13new_allocatorIcE8max_sizeEv' type='func-type' binding='weak-binding' visibility='default-visibility' is-defined='yes'/>
    <elf-symbol name='_ZNK9__gnu_cxx13new_allocatorIhE8max_sizeEv' type='func-type' binding='weak-binding' visibility='default-visibility' is-defined='yes'/>
    <elf-symbol name='_ZNK9__gnu_cxx13new_allocatorIiE8max_sizeEv' type='func-type' binding='weak-binding' visibility='default-visibility' is-defined='yes'/>
    <elf-symbol name='_ZNK9__gnu_cxx17__normal_iteratorIPKN10prometheus12MetricFamilyESt6vectorIS2_SaIS2_EEE4baseEv' type='func-type' binding='weak-binding' visibility='default-visibility' is-defined='yes'/>
    <elf-symbol name='_ZNK9__gnu_cxx17__normal_iteratorIPKcNSt7__cxx1112basic_stringIcSt11char_traitsIcESaIcEEEE4baseEv' type='func-type' binding='weak-binding' visibility='default-visibility' is-defined='yes'/>
    <elf-symbol name='_ZNK9__gnu_cxx17__normal_iteratorIPKcNSt7__cxx1112basic_stringIcSt11char_traitsIcESaIcEEEEdeEv' type='func-type' binding='weak-binding' visibility='default-visibility' is-defined='yes'/>
    <elf-symbol name='_ZNK9__gnu_cxx17__normal_iteratorIPKcSt6vectorIcSaIcEEE4baseEv' type='func-type' binding='weak-binding' visibility='default-visibility' is-defined='yes'/>
    <elf-symbol name='_ZNK9__gnu_cxx17__normal_iteratorIPKhSt6vectorIhSaIhEEE4baseEv' type='func-type' binding='weak-binding' visibility='default-visibility' is-defined='yes'/>
    <elf-symbol name='_ZNK9__gnu_cxx17__normal_iteratorIPN10prometheus12MetricFamilyESt6vectorIS2_SaIS2_EEE4baseEv' type='func-type' binding='weak-binding' visibility='default-visibility' is-defined='yes'/>
    <elf-symbol name='_ZNK9__gnu_cxx17__normal_iteratorIPN10prometheus12MetricFamilyESt6vectorIS2_SaIS2_EEEdeEv' type='func-type' binding='weak-binding' visibility='default-visibility' is-defined='yes'/>
    <elf-symbol name='_ZNK9__gnu_cxx17__normal_iteratorIPN10prometheus12MetricFamilyESt6vectorIS2_SaIS2_EEEplEl' type='func-type' binding='weak-binding' visibility='default-visibility' is-defined='yes'/>
    <elf-symbol name='_ZNK9__gnu_cxx17__normal_iteratorIPPKcSt6vectorIS2_SaIS2_EEEdeEv' type='func-type' binding='weak-binding' visibility='default-visibility' is-defined='yes'/>
    <elf-symbol name='_ZNK9__gnu_cxx17__normal_iteratorIPPKcSt6vectorIS2_SaIS2_EEEmiEl' type='func-type' binding='weak-binding' visibility='default-visibility' is-defined='yes'/>
    <elf-symbol name='_ZNK9__gnu_cxx17__normal_iteratorIPSt8weak_ptrIN10prometheus11CollectableEESt6vectorIS4_SaIS4_EEE4baseEv' type='func-type' binding='weak-binding' visibility='default-visibility' is-defined='yes'/>
    <elf-symbol name='_ZNK9__gnu_cxx17__normal_iteratorIPSt8weak_ptrIN10prometheus11CollectableEESt6vectorIS4_SaIS4_EEEdeEv' type='func-type' binding='weak-binding' visibility='default-visibility' is-defined='yes'/>
    <elf-symbol name='_ZNK9__gnu_cxx17__normal_iteratorIPSt8weak_ptrIN10prometheus11CollectableEESt6vectorIS4_SaIS4_EEEplEl' type='func-type' binding='weak-binding' visibility='default-visibility' is-defined='yes'/>
    <elf-symbol name='_ZNK9__gnu_cxx17__normal_iteratorIPcNSt7__cxx1112basic_stringIcSt11char_traitsIcESaIcEEEE4baseEv' type='func-type' binding='weak-binding' visibility='default-visibility' is-defined='yes'/>
    <elf-symbol name='_ZNK9__gnu_cxx17__normal_iteratorIPcSt6vectorIcSaIcEEE4baseEv' type='func-type' binding='weak-binding' visibility='default-visibility' is-defined='yes'/>
    <elf-symbol name='_ZNK9__gnu_cxx17__normal_iteratorIPcSt6vectorIcSaIcEEEdeEv' type='func-type' binding='weak-binding' visibility='default-visibility' is-defined='yes'/>
    <elf-symbol name='_ZNK9__gnu_cxx17__normal_iteratorIPcSt6vectorIcSaIcEEEplEl' type='func-type' binding='weak-binding' visibility='default-visibility' is-defined='yes'/>
    <elf-symbol name='_ZNKSt10__weak_ptrIN10prometheus11CollectableELN9__gnu_cxx12_Lock_policyE2EE7expiredEv' type='func-type' binding='weak-binding' visibility='default-visibility' is-defined='yes'/>
    <elf-symbol name='_ZNKSt10unique_ptrIN10prometheus10SerializerESt14default_deleteIS1_EE3getEv' type='func-type' binding='weak-binding' visibility='default-visibility' is-defined='yes'/>
    <elf-symbol name='_ZNKSt10unique_ptrIN10prometheus10SerializerESt14default_deleteIS1_EEptEv' type='func-type' binding='weak-binding' visibility='default-visibility' is-defined='yes'/>
    <elf-symbol name='_ZNKSt12_Vector_baseIN10prometheus12ClientMetricESaIS1_EE13get_allocatorEv' type='func-type' binding='weak-binding' visibility='default-visibility' is-defined='yes'/>
    <elf-symbol name='_ZNKSt12_Vector_baseIN10prometheus12ClientMetricESaIS1_EE19_M_get_Tp_allocatorEv' type='func-type' binding='weak-binding' visibility='default-visibility' is-defined='yes'/>
    <elf-symbol name='_ZNKSt12_Vector_baseIN10prometheus12MetricFamilyESaIS1_EE13get_allocatorEv' type='func-type' binding='weak-binding' visibility='default-visibility' is-defined='yes'/>
    <elf-symbol name='_ZNKSt12_Vector_baseIN10prometheus12MetricFamilyESaIS1_EE19_M_get_Tp_allocatorEv' type='func-type' binding='weak-binding' visibility='default-visibility' is-defined='yes'/>
    <elf-symbol name='_ZNKSt12_Vector_baseISt8weak_ptrIN10prometheus11CollectableEESaIS3_EE19_M_get_Tp_allocatorEv' type='func-type' binding='weak-binding' visibility='default-visibility' is-defined='yes'/>
    <elf-symbol name='_ZNKSt12_Vector_baseIcSaIcEE13get_allocatorEv' type='func-type' binding='weak-binding' visibility='default-visibility' is-defined='yes'/>
    <elf-symbol name='_ZNKSt12_Vector_baseIcSaIcEE19_M_get_Tp_allocatorEv' type='func-type' binding='weak-binding' visibility='default-visibility' is-defined='yes'/>
    <elf-symbol name='_ZNKSt12_Vector_baseIhSaIhEE19_M_get_Tp_allocatorEv' type='func-type' binding='weak-binding' visibility='default-visibility' is-defined='yes'/>
    <elf-symbol name='_ZNKSt12__shared_ptrIN10prometheus11CollectableELN9__gnu_cxx12_Lock_policyE2EE3getEv' type='func-type' binding='weak-binding' visibility='default-visibility' is-defined='yes'/>
    <elf-symbol name='_ZNKSt12__shared_ptrIN10prometheus11CollectableELN9__gnu_cxx12_Lock_policyE2EEcvbEv' type='func-type' binding='weak-binding' visibility='default-visibility' is-defined='yes'/>
    <elf-symbol name='_ZNKSt12__shared_ptrIN10prometheus8RegistryELN9__gnu_cxx12_Lock_policyE2EE3getEv' type='func-type' binding='weak-binding' visibility='default-visibility' is-defined='yes'/>
    <elf-symbol name='_ZNKSt12__weak_countILN9__gnu_cxx12_Lock_policyE2EE16_M_get_use_countEv' type='func-type' binding='weak-binding' visibility='default-visibility' is-defined='yes'/>
    <elf-symbol name='_ZNKSt13move_iteratorIN9__gnu_cxx17__normal_iteratorIPN10prometheus12MetricFamilyESt6vectorIS3_SaIS3_EEEEE4baseEv' type='func-type' binding='weak-binding' visibility='default-visibility' is-defined='yes'/>
    <elf-symbol name='_ZNKSt13move_iteratorIN9__gnu_cxx17__normal_iteratorIPN10prometheus12MetricFamilyESt6vectorIS3_SaIS3_EEEEEdeEv' type='func-type' binding='weak-binding' visibility='default-visibility' is-defined='yes'/>
    <elf-symbol name='_ZNKSt13move_iteratorIPN10prometheus12MetricFamilyEE4baseEv' type='func-type' binding='weak-binding' visibility='default-visibility' is-defined='yes'/>
    <elf-symbol name='_ZNKSt13move_iteratorIPN10prometheus12MetricFamilyEEdeEv' type='func-type' binding='weak-binding' visibility='default-visibility' is-defined='yes'/>
    <elf-symbol name='_ZNKSt13move_iteratorIPSt8weak_ptrIN10prometheus11CollectableEEE4baseEv' type='func-type' binding='weak-binding' visibility='default-visibility' is-defined='yes'/>
    <elf-symbol name='_ZNKSt13move_iteratorIPSt8weak_ptrIN10prometheus11CollectableEEEdeEv' type='func-type' binding='weak-binding' visibility='default-visibility' is-defined='yes'/>
    <elf-symbol name='_ZNKSt13move_iteratorIPcE4baseEv' type='func-type' binding='weak-binding' visibility='default-visibility' is-defined='yes'/>
    <elf-symbol name='_ZNKSt13move_iteratorIPhE4baseEv' type='func-type' binding='weak-binding' visibility='default-visibility' is-defined='yes'/>
    <elf-symbol name='_ZNKSt14__shared_countILN9__gnu_cxx12_Lock_policyE2EE16_M_get_use_countEv' type='func-type' binding='weak-binding' visibility='default-visibility' is-defined='yes'/>
    <elf-symbol name='_ZNKSt14default_deleteI11CivetServerEclEPS0_' type='func-type' binding='weak-binding' visibility='default-visibility' is-defined='yes'/>
    <elf-symbol name='_ZNKSt14default_deleteIN10prometheus10SerializerEEclEPS1_' type='func-type' binding='weak-binding' visibility='default-visibility' is-defined='yes'/>
    <elf-symbol name='_ZNKSt14default_deleteIN10prometheus7CounterEEclEPS1_' type='func-type' binding='weak-binding' visibility='default-visibility' is-defined='yes'/>
    <elf-symbol name='_ZNKSt14default_deleteIN10prometheus7SummaryEEclEPS1_' type='func-type' binding='weak-binding' visibility='default-visibility' is-defined='yes'/>
    <elf-symbol name='_ZNKSt15__uniq_ptr_implIN10prometheus10SerializerESt14default_deleteIS1_EE6_M_ptrEv' type='func-type' binding='weak-binding' visibility='default-visibility' is-defined='yes'/>
    <elf-symbol name='_ZNKSt16_Sp_counted_baseILN9__gnu_cxx12_Lock_policyE2EE16_M_get_use_countEv' type='func-type' binding='weak-binding' visibility='default-visibility' is-defined='yes'/>
    <elf-symbol name='_ZNKSt16initializer_listIN10prometheus6detail13CKMSQuantiles8QuantileEE3endEv' type='func-type' binding='weak-binding' visibility='default-visibility' is-defined='yes'/>
    <elf-symbol name='_ZNKSt16initializer_listIN10prometheus6detail13CKMSQuantiles8QuantileEE4sizeEv' type='func-type' binding='weak-binding' visibility='default-visibility' is-defined='yes'/>
    <elf-symbol name='_ZNKSt16initializer_listIN10prometheus6detail13CKMSQuantiles8QuantileEE5beginEv' type='func-type' binding='weak-binding' visibility='default-visibility' is-defined='yes'/>
    <elf-symbol name='_ZNKSt16initializer_listINSt7__cxx1112basic_stringIcSt11char_traitsIcESaIcEEEE3endEv' type='func-type' binding='weak-binding' visibility='default-visibility' is-defined='yes'/>
    <elf-symbol name='_ZNKSt16initializer_listINSt7__cxx1112basic_stringIcSt11char_traitsIcESaIcEEEE4sizeEv' type='func-type' binding='weak-binding' visibility='default-visibility' is-defined='yes'/>
    <elf-symbol name='_ZNKSt16initializer_listINSt7__cxx1112basic_stringIcSt11char_traitsIcESaIcEEEE5beginEv' type='func-type' binding='weak-binding' visibility='default-visibility' is-defined='yes'/>
    <elf-symbol name='_ZNKSt19__shared_ptr_accessIN10prometheus11CollectableELN9__gnu_cxx12_Lock_policyE2ELb0ELb0EE6_M_getEv' type='func-type' binding='weak-binding' visibility='default-visibility' is-defined='yes'/>
    <elf-symbol name='_ZNKSt19__shared_ptr_accessIN10prometheus11CollectableELN9__gnu_cxx12_Lock_policyE2ELb0ELb0EEptEv' type='func-type' binding='weak-binding' visibility='default-visibility' is-defined='yes'/>
    <elf-symbol name='_ZNKSt19__shared_ptr_accessIN10prometheus8RegistryELN9__gnu_cxx12_Lock_policyE2ELb0ELb0EE6_M_getEv' type='func-type' binding='weak-binding' visibility='default-visibility' is-defined='yes'/>
    <elf-symbol name='_ZNKSt19__shared_ptr_accessIN10prometheus8RegistryELN9__gnu_cxx12_Lock_policyE2ELb0ELb0EEdeEv' type='func-type' binding='weak-binding' visibility='default-visibility' is-defined='yes'/>
    <elf-symbol name='_ZNKSt6chrono10time_pointINS_3_V212steady_clockENS_8durationIlSt5ratioILl1ELl1000000000EEEEE16time_since_epochEv' type='func-type' binding='weak-binding' visibility='default-visibility' is-defined='yes'/>
    <elf-symbol name='_ZNKSt6chrono8durationIlSt5ratioILl1ELl1000000000EEE5countEv' type='func-type' binding='weak-binding' visibility='default-visibility' is-defined='yes'/>
    <elf-symbol name='_ZNKSt6chrono8durationIlSt5ratioILl1ELl1000000EEE5countEv' type='func-type' binding='weak-binding' visibility='default-visibility' is-defined='yes'/>
    <elf-symbol name='_ZNKSt6chrono8durationIlSt5ratioILl1ELl1000EEE5countEv' type='func-type' binding='weak-binding' visibility='default-visibility' is-defined='yes'/>
    <elf-symbol name='_ZNKSt6chrono8durationIlSt5ratioILl1ELl1EEE5countEv' type='func-type' binding='weak-binding' visibility='default-visibility' is-defined='yes'/>
    <elf-symbol name='_ZNKSt6vectorIN10prometheus12MetricFamilyESaIS1_EE12_M_check_lenEmPKc' type='func-type' binding='weak-binding' visibility='default-visibility' is-defined='yes'/>
    <elf-symbol name='_ZNKSt6vectorIN10prometheus12MetricFamilyESaIS1_EE4sizeEv' type='func-type' binding='weak-binding' visibility='default-visibility' is-defined='yes'/>
    <elf-symbol name='_ZNKSt6vectorIN10prometheus12MetricFamilyESaIS1_EE6cbeginEv' type='func-type' binding='weak-binding' visibility='default-visibility' is-defined='yes'/>
    <elf-symbol name='_ZNKSt6vectorIN10prometheus12MetricFamilyESaIS1_EE8max_sizeEv' type='func-type' binding='weak-binding' visibility='default-visibility' is-defined='yes'/>
    <elf-symbol name='_ZNKSt6vectorINSt7__cxx1112basic_stringIcSt11char_traitsIcESaIcEEESaIS5_EE4sizeEv' type='func-type' binding='weak-binding' visibility='default-visibility' is-defined='yes'/>
    <elf-symbol name='_ZNKSt6vectorINSt7__cxx1112basic_stringIcSt11char_traitsIcESaIcEEESaIS5_EEixEm' type='func-type' binding='weak-binding' visibility='default-visibility' is-defined='yes'/>
    <elf-symbol name='_ZNKSt6vectorISt8weak_ptrIN10prometheus11CollectableEESaIS3_EE12_M_check_lenEmPKc' type='func-type' binding='weak-binding' visibility='default-visibility' is-defined='yes'/>
    <elf-symbol name='_ZNKSt6vectorISt8weak_ptrIN10prometheus11CollectableEESaIS3_EE4sizeEv' type='func-type' binding='weak-binding' visibility='default-visibility' is-defined='yes'/>
    <elf-symbol name='_ZNKSt6vectorISt8weak_ptrIN10prometheus11CollectableEESaIS3_EE6cbeginEv' type='func-type' binding='weak-binding' visibility='default-visibility' is-defined='yes'/>
    <elf-symbol name='_ZNKSt6vectorISt8weak_ptrIN10prometheus11CollectableEESaIS3_EE8max_sizeEv' type='func-type' binding='weak-binding' visibility='default-visibility' is-defined='yes'/>
    <elf-symbol name='_ZNKSt6vectorIcSaIcEE12_M_check_lenEmPKc' type='func-type' binding='weak-binding' visibility='default-visibility' is-defined='yes'/>
    <elf-symbol name='_ZNKSt6vectorIcSaIcEE3endEv' type='func-type' binding='weak-binding' visibility='default-visibility' is-defined='yes'/>
    <elf-symbol name='_ZNKSt6vectorIcSaIcEE4sizeEv' type='func-type' binding='weak-binding' visibility='default-visibility' is-defined='yes'/>
    <elf-symbol name='_ZNKSt6vectorIcSaIcEE5beginEv' type='func-type' binding='weak-binding' visibility='default-visibility' is-defined='yes'/>
    <elf-symbol name='_ZNKSt6vectorIcSaIcEE5emptyEv' type='func-type' binding='weak-binding' visibility='default-visibility' is-defined='yes'/>
    <elf-symbol name='_ZNKSt6vectorIcSaIcEE6cbeginEv' type='func-type' binding='weak-binding' visibility='default-visibility' is-defined='yes'/>
    <elf-symbol name='_ZNKSt6vectorIcSaIcEE8capacityEv' type='func-type' binding='weak-binding' visibility='default-visibility' is-defined='yes'/>
    <elf-symbol name='_ZNKSt6vectorIcSaIcEE8max_sizeEv' type='func-type' binding='weak-binding' visibility='default-visibility' is-defined='yes'/>
    <elf-symbol name='_ZNKSt6vectorIhSaIhEE11_M_data_ptrIhEEPT_S4_' type='func-type' binding='weak-binding' visibility='default-visibility' is-defined='yes'/>
    <elf-symbol name='_ZNKSt6vectorIhSaIhEE12_M_check_lenEmPKc' type='func-type' binding='weak-binding' visibility='default-visibility' is-defined='yes'/>
    <elf-symbol name='_ZNKSt6vectorIhSaIhEE3endEv' type='func-type' binding='weak-binding' visibility='default-visibility' is-defined='yes'/>
    <elf-symbol name='_ZNKSt6vectorIhSaIhEE4sizeEv' type='func-type' binding='weak-binding' visibility='default-visibility' is-defined='yes'/>
    <elf-symbol name='_ZNKSt6vectorIhSaIhEE5beginEv' type='func-type' binding='weak-binding' visibility='default-visibility' is-defined='yes'/>
    <elf-symbol name='_ZNKSt6vectorIhSaIhEE5emptyEv' type='func-type' binding='weak-binding' visibility='default-visibility' is-defined='yes'/>
    <elf-symbol name='_ZNKSt6vectorIhSaIhEE8capacityEv' type='func-type' binding='weak-binding' visibility='default-visibility' is-defined='yes'/>
    <elf-symbol name='_ZNKSt6vectorIhSaIhEE8max_sizeEv' type='func-type' binding='weak-binding' visibility='default-visibility' is-defined='yes'/>
    <elf-symbol name='_ZNKSt8functionIFbRKNSt7__cxx1112basic_stringIcSt11char_traitsIcESaIcEEES7_EEclES7_S7_' type='func-type' binding='weak-binding' visibility='default-visibility' is-defined='yes'/>
    <elf-symbol name='_ZNKSt8weak_ptrIN10prometheus11CollectableEE4lockEv' type='func-type' binding='weak-binding' visibility='default-visibility' is-defined='yes'/>
    <elf-symbol name='_ZNSaIN10prometheus12ClientMetric5LabelEED1Ev' type='func-type' binding='weak-binding' visibility='default-visibility' alias='_ZNSaIN10prometheus12ClientMetric5LabelEED2Ev' is-defined='yes'/>
    <elf-symbol name='_ZNSaIN10prometheus12ClientMetric5LabelEED2Ev' type='func-type' binding='weak-binding' visibility='default-visibility' is-defined='yes'/>
    <elf-symbol name='_ZNSaIN10prometheus12ClientMetric6BucketEED1Ev' type='func-type' binding='weak-binding' visibility='default-visibility' alias='_ZNSaIN10prometheus12ClientMetric6BucketEED2Ev' is-defined='yes'/>
    <elf-symbol name='_ZNSaIN10prometheus12ClientMetric6BucketEED2Ev' type='func-type' binding='weak-binding' visibility='default-visibility' is-defined='yes'/>
    <elf-symbol name='_ZNSaIN10prometheus12ClientMetric8QuantileEED1Ev' type='func-type' binding='weak-binding' visibility='default-visibility' alias='_ZNSaIN10prometheus12ClientMetric8QuantileEED2Ev' is-defined='yes'/>
    <elf-symbol name='_ZNSaIN10prometheus12ClientMetric8QuantileEED2Ev' type='func-type' binding='weak-binding' visibility='default-visibility' is-defined='yes'/>
    <elf-symbol name='_ZNSaIN10prometheus12ClientMetricEEC1ERKS1_' type='func-type' binding='weak-binding' visibility='default-visibility' is-defined='yes'/>
    <elf-symbol name='_ZNSaIN10prometheus12ClientMetricEEC2ERKS1_' type='func-type' binding='weak-binding' visibility='default-visibility' alias='_ZNSaIN10prometheus12ClientMetricEEC1ERKS1_' is-defined='yes'/>
    <elf-symbol name='_ZNSaIN10prometheus12ClientMetricEED1Ev' type='func-type' binding='weak-binding' visibility='default-visibility' alias='_ZNSaIN10prometheus12ClientMetricEED2Ev' is-defined='yes'/>
    <elf-symbol name='_ZNSaIN10prometheus12ClientMetricEED2Ev' type='func-type' binding='weak-binding' visibility='default-visibility' is-defined='yes'/>
    <elf-symbol name='_ZNSaIN10prometheus12MetricFamilyEEC1ERKS1_' type='func-type' binding='weak-binding' visibility='default-visibility' alias='_ZNSaIN10prometheus12MetricFamilyEEC2ERKS1_' is-defined='yes'/>
    <elf-symbol name='_ZNSaIN10prometheus12MetricFamilyEEC1Ev' type='func-type' binding='weak-binding' visibility='default-visibility' alias='_ZNSaIN10prometheus12MetricFamilyEEC2Ev' is-defined='yes'/>
    <elf-symbol name='_ZNSaIN10prometheus12MetricFamilyEEC2ERKS1_' type='func-type' binding='weak-binding' visibility='default-visibility' is-defined='yes'/>
    <elf-symbol name='_ZNSaIN10prometheus12MetricFamilyEEC2Ev' type='func-type' binding='weak-binding' visibility='default-visibility' is-defined='yes'/>
    <elf-symbol name='_ZNSaIN10prometheus12MetricFamilyEED1Ev' type='func-type' binding='weak-binding' visibility='default-visibility' alias='_ZNSaIN10prometheus12MetricFamilyEED2Ev' is-defined='yes'/>
    <elf-symbol name='_ZNSaIN10prometheus12MetricFamilyEED2Ev' type='func-type' binding='weak-binding' visibility='default-visibility' is-defined='yes'/>
    <elf-symbol name='_ZNSaIN10prometheus6detail13CKMSQuantiles4ItemEED1Ev' type='func-type' binding='weak-binding' visibility='default-visibility' alias='_ZNSaIN10prometheus6detail13CKMSQuantiles4ItemEED2Ev' is-defined='yes'/>
    <elf-symbol name='_ZNSaIN10prometheus6detail13CKMSQuantiles4ItemEED2Ev' type='func-type' binding='weak-binding' visibility='default-visibility' is-defined='yes'/>
    <elf-symbol name='_ZNSaIN10prometheus6detail13CKMSQuantiles8QuantileEEC1ERKS3_' type='func-type' binding='weak-binding' visibility='default-visibility' alias='_ZNSaIN10prometheus6detail13CKMSQuantiles8QuantileEEC2ERKS3_' is-defined='yes'/>
    <elf-symbol name='_ZNSaIN10prometheus6detail13CKMSQuantiles8QuantileEEC1Ev' type='func-type' binding='weak-binding' visibility='default-visibility' alias='_ZNSaIN10prometheus6detail13CKMSQuantiles8QuantileEEC2Ev' is-defined='yes'/>
    <elf-symbol name='_ZNSaIN10prometheus6detail13CKMSQuantiles8QuantileEEC2ERKS3_' type='func-type' binding='weak-binding' visibility='default-visibility' is-defined='yes'/>
    <elf-symbol name='_ZNSaIN10prometheus6detail13CKMSQuantiles8QuantileEEC2Ev' type='func-type' binding='weak-binding' visibility='default-visibility' is-defined='yes'/>
    <elf-symbol name='_ZNSaIN10prometheus6detail13CKMSQuantiles8QuantileEED1Ev' type='func-type' binding='weak-binding' visibility='default-visibility' alias='_ZNSaIN10prometheus6detail13CKMSQuantiles8QuantileEED2Ev' is-defined='yes'/>
    <elf-symbol name='_ZNSaIN10prometheus6detail13CKMSQuantiles8QuantileEED2Ev' type='func-type' binding='weak-binding' visibility='default-visibility' is-defined='yes'/>
    <elf-symbol name='_ZNSaIN10prometheus6detail13CKMSQuantilesEED1Ev' type='func-type' binding='weak-binding' visibility='default-visibility' alias='_ZNSaIN10prometheus6detail13CKMSQuantilesEED2Ev' is-defined='yes'/>
    <elf-symbol name='_ZNSaIN10prometheus6detail13CKMSQuantilesEED2Ev' type='func-type' binding='weak-binding' visibility='default-visibility' is-defined='yes'/>
    <elf-symbol name='_ZNSaIN10prometheus8RegistryEEC1ERKS1_' type='func-type' binding='weak-binding' visibility='default-visibility' is-defined='yes'/>
    <elf-symbol name='_ZNSaIN10prometheus8RegistryEEC1Ev' type='func-type' binding='weak-binding' visibility='default-visibility' alias='_ZNSaIN10prometheus8RegistryEEC2Ev' is-defined='yes'/>
    <elf-symbol name='_ZNSaIN10prometheus8RegistryEEC2ERKS1_' type='func-type' binding='weak-binding' visibility='default-visibility' alias='_ZNSaIN10prometheus8RegistryEEC1ERKS1_' is-defined='yes'/>
    <elf-symbol name='_ZNSaIN10prometheus8RegistryEEC2Ev' type='func-type' binding='weak-binding' visibility='default-visibility' is-defined='yes'/>
    <elf-symbol name='_ZNSaIN10prometheus8RegistryEED1Ev' type='func-type' binding='weak-binding' visibility='default-visibility' alias='_ZNSaIN10prometheus8RegistryEED2Ev' is-defined='yes'/>
    <elf-symbol name='_ZNSaIN10prometheus8RegistryEED2Ev' type='func-type' binding='weak-binding' visibility='default-visibility' is-defined='yes'/>
    <elf-symbol name='_ZNSaINSt7__cxx1112basic_stringIcSt11char_traitsIcESaIcEEEEC1ERKS5_' type='func-type' binding='weak-binding' visibility='default-visibility' alias='_ZNSaINSt7__cxx1112basic_stringIcSt11char_traitsIcESaIcEEEEC2ERKS5_' is-defined='yes'/>
    <elf-symbol name='_ZNSaINSt7__cxx1112basic_stringIcSt11char_traitsIcESaIcEEEEC1Ev' type='func-type' binding='weak-binding' visibility='default-visibility' alias='_ZNSaINSt7__cxx1112basic_stringIcSt11char_traitsIcESaIcEEEEC2Ev' is-defined='yes'/>
    <elf-symbol name='_ZNSaINSt7__cxx1112basic_stringIcSt11char_traitsIcESaIcEEEEC2ERKS5_' type='func-type' binding='weak-binding' visibility='default-visibility' is-defined='yes'/>
    <elf-symbol name='_ZNSaINSt7__cxx1112basic_stringIcSt11char_traitsIcESaIcEEEEC2Ev' type='func-type' binding='weak-binding' visibility='default-visibility' is-defined='yes'/>
    <elf-symbol name='_ZNSaINSt7__cxx1112basic_stringIcSt11char_traitsIcESaIcEEEED1Ev' type='func-type' binding='weak-binding' visibility='default-visibility' alias='_ZNSaINSt7__cxx1112basic_stringIcSt11char_traitsIcESaIcEEEED2Ev' is-defined='yes'/>
    <elf-symbol name='_ZNSaINSt7__cxx1112basic_stringIcSt11char_traitsIcESaIcEEEED2Ev' type='func-type' binding='weak-binding' visibility='default-visibility' is-defined='yes'/>
    <elf-symbol name='_ZNSaIPKcEC1ERKS1_' type='func-type' binding='weak-binding' visibility='default-visibility' alias='_ZNSaIPKcEC2ERKS1_' is-defined='yes'/>
    <elf-symbol name='_ZNSaIPKcEC1Ev' type='func-type' binding='weak-binding' visibility='default-visibility' alias='_ZNSaIPKcEC2Ev' is-defined='yes'/>
    <elf-symbol name='_ZNSaIPKcEC2ERKS1_' type='func-type' binding='weak-binding' visibility='default-visibility' is-defined='yes'/>
    <elf-symbol name='_ZNSaIPKcEC2Ev' type='func-type' binding='weak-binding' visibility='default-visibility' is-defined='yes'/>
    <elf-symbol name='_ZNSaIPKcED1Ev' type='func-type' binding='weak-binding' visibility='default-visibility' alias='_ZNSaIPKcED2Ev' is-defined='yes'/>
    <elf-symbol name='_ZNSaIPKcED2Ev' type='func-type' binding='weak-binding' visibility='default-visibility' is-defined='yes'/>
    <elf-symbol name='_ZNSaISt13_Rb_tree_nodeISt4pairIKNSt7__cxx1112basic_stringIcSt11char_traitsIcESaIcEEES6_EEEC1Ev' type='func-type' binding='weak-binding' visibility='default-visibility' alias='_ZNSaISt13_Rb_tree_nodeISt4pairIKNSt7__cxx1112basic_stringIcSt11char_traitsIcESaIcEEES6_EEEC2Ev' is-defined='yes'/>
    <elf-symbol name='_ZNSaISt13_Rb_tree_nodeISt4pairIKNSt7__cxx1112basic_stringIcSt11char_traitsIcESaIcEEES6_EEEC2Ev' type='func-type' binding='weak-binding' visibility='default-visibility' is-defined='yes'/>
    <elf-symbol name='_ZNSaISt13_Rb_tree_nodeISt4pairIKNSt7__cxx1112basic_stringIcSt11char_traitsIcESaIcEEES6_EEED1Ev' type='func-type' binding='weak-binding' visibility='default-visibility' alias='_ZNSaISt13_Rb_tree_nodeISt4pairIKNSt7__cxx1112basic_stringIcSt11char_traitsIcESaIcEEES6_EEED2Ev' is-defined='yes'/>
    <elf-symbol name='_ZNSaISt13_Rb_tree_nodeISt4pairIKNSt7__cxx1112basic_stringIcSt11char_traitsIcESaIcEEES6_EEED2Ev' type='func-type' binding='weak-binding' visibility='default-visibility' is-defined='yes'/>
    <elf-symbol name='_ZNSaISt23_Sp_counted_ptr_inplaceIN10prometheus8RegistryESaIS1_ELN9__gnu_cxx12_Lock_policyE2EEEC1IS1_EERKSaIT_E' type='func-type' binding='weak-binding' visibility='default-visibility' alias='_ZNSaISt23_Sp_counted_ptr_inplaceIN10prometheus8RegistryESaIS1_ELN9__gnu_cxx12_Lock_policyE2EEEC2IS1_EERKSaIT_E' is-defined='yes'/>
    <elf-symbol name='_ZNSaISt23_Sp_counted_ptr_inplaceIN10prometheus8RegistryESaIS1_ELN9__gnu_cxx12_Lock_policyE2EEEC2IS1_EERKSaIT_E' type='func-type' binding='weak-binding' visibility='default-visibility' is-defined='yes'/>
    <elf-symbol name='_ZNSaISt23_Sp_counted_ptr_inplaceIN10prometheus8RegistryESaIS1_ELN9__gnu_cxx12_Lock_policyE2EEED1Ev' type='func-type' binding='weak-binding' visibility='default-visibility' alias='_ZNSaISt23_Sp_counted_ptr_inplaceIN10prometheus8RegistryESaIS1_ELN9__gnu_cxx12_Lock_policyE2EEED2Ev' is-defined='yes'/>
    <elf-symbol name='_ZNSaISt23_Sp_counted_ptr_inplaceIN10prometheus8RegistryESaIS1_ELN9__gnu_cxx12_Lock_policyE2EEED2Ev' type='func-type' binding='weak-binding' visibility='default-visibility' is-defined='yes'/>
    <elf-symbol name='_ZNSaISt8weak_ptrIN10prometheus11CollectableEEEC1Ev' type='func-type' binding='weak-binding' visibility='default-visibility' alias='_ZNSaISt8weak_ptrIN10prometheus11CollectableEEEC2Ev' is-defined='yes'/>
    <elf-symbol name='_ZNSaISt8weak_ptrIN10prometheus11CollectableEEEC2Ev' type='func-type' binding='weak-binding' visibility='default-visibility' is-defined='yes'/>
    <elf-symbol name='_ZNSaISt8weak_ptrIN10prometheus11CollectableEEED1Ev' type='func-type' binding='weak-binding' visibility='default-visibility' alias='_ZNSaISt8weak_ptrIN10prometheus11CollectableEEED2Ev' is-defined='yes'/>
    <elf-symbol name='_ZNSaISt8weak_ptrIN10prometheus11CollectableEEED2Ev' type='func-type' binding='weak-binding' visibility='default-visibility' is-defined='yes'/>
    <elf-symbol name='_ZNSaIhEC1ERKS_' type='func-type' binding='weak-binding' visibility='default-visibility' is-defined='yes'/>
    <elf-symbol name='_ZNSaIhEC1Ev' type='func-type' binding='weak-binding' visibility='default-visibility' alias='_ZNSaIhEC2Ev' is-defined='yes'/>
    <elf-symbol name='_ZNSaIhEC2ERKS_' type='func-type' binding='weak-binding' visibility='default-visibility' alias='_ZNSaIhEC1ERKS_' is-defined='yes'/>
    <elf-symbol name='_ZNSaIhEC2Ev' type='func-type' binding='weak-binding' visibility='default-visibility' is-defined='yes'/>
    <elf-symbol name='_ZNSaIhED1Ev' type='func-type' binding='weak-binding' visibility='default-visibility' alias='_ZNSaIhED2Ev' is-defined='yes'/>
    <elf-symbol name='_ZNSaIhED2Ev' type='func-type' binding='weak-binding' visibility='default-visibility' is-defined='yes'/>
    <elf-symbol name='_ZNSaIiEC1ERKS_' type='func-type' binding='weak-binding' visibility='default-visibility' is-defined='yes'/>
    <elf-symbol name='_ZNSaIiEC1Ev' type='func-type' binding='weak-binding' visibility='default-visibility' alias='_ZNSaIiEC2Ev' is-defined='yes'/>
    <elf-symbol name='_ZNSaIiEC2ERKS_' type='func-type' binding='weak-binding' visibility='default-visibility' alias='_ZNSaIiEC1ERKS_' is-defined='yes'/>
    <elf-symbol name='_ZNSaIiEC2Ev' type='func-type' binding='weak-binding' visibility='default-visibility' is-defined='yes'/>
    <elf-symbol name='_ZNSaIiED1Ev' type='func-type' binding='weak-binding' visibility='default-visibility' alias='_ZNSaIiED2Ev' is-defined='yes'/>
    <elf-symbol name='_ZNSaIiED2Ev' type='func-type' binding='weak-binding' visibility='default-visibility' is-defined='yes'/>
    <elf-symbol name='_ZNSt10_Head_baseILm0EP11CivetServerLb0EE7_M_headERKS2_' type='func-type' binding='weak-binding' visibility='default-visibility' is-defined='yes'/>
    <elf-symbol name='_ZNSt10_Head_baseILm0EP11CivetServerLb0EE7_M_headERS2_' type='func-type' binding='weak-binding' visibility='default-visibility' is-defined='yes'/>
    <elf-symbol name='_ZNSt10_Head_baseILm0EP11CivetServerLb0EEC1Ev' type='func-type' binding='weak-binding' visibility='default-visibility' alias='_ZNSt10_Head_baseILm0EP11CivetServerLb0EEC2Ev' is-defined='yes'/>
    <elf-symbol name='_ZNSt10_Head_baseILm0EP11CivetServerLb0EEC2Ev' type='func-type' binding='weak-binding' visibility='default-visibility' is-defined='yes'/>
    <elf-symbol name='_ZNSt10_Head_baseILm0EPN10prometheus10SerializerELb0EE7_M_headERKS3_' type='func-type' binding='weak-binding' visibility='default-visibility' is-defined='yes'/>
    <elf-symbol name='_ZNSt10_Head_baseILm0EPN10prometheus10SerializerELb0EE7_M_headERS3_' type='func-type' binding='weak-binding' visibility='default-visibility' is-defined='yes'/>
    <elf-symbol name='_ZNSt10_Head_baseILm0EPN10prometheus10SerializerELb0EEC1Ev' type='func-type' binding='weak-binding' visibility='default-visibility' alias='_ZNSt10_Head_baseILm0EPN10prometheus10SerializerELb0EEC2Ev' is-defined='yes'/>
    <elf-symbol name='_ZNSt10_Head_baseILm0EPN10prometheus10SerializerELb0EEC2Ev' type='func-type' binding='weak-binding' visibility='default-visibility' is-defined='yes'/>
    <elf-symbol name='_ZNSt10_Head_baseILm0EPN10prometheus7CounterELb0EE7_M_headERS3_' type='func-type' binding='weak-binding' visibility='default-visibility' is-defined='yes'/>
    <elf-symbol name='_ZNSt10_Head_baseILm0EPN10prometheus7CounterELb0EEC1Ev' type='func-type' binding='weak-binding' visibility='default-visibility' alias='_ZNSt10_Head_baseILm0EPN10prometheus7CounterELb0EEC2Ev' is-defined='yes'/>
    <elf-symbol name='_ZNSt10_Head_baseILm0EPN10prometheus7CounterELb0EEC2Ev' type='func-type' binding='weak-binding' visibility='default-visibility' is-defined='yes'/>
    <elf-symbol name='_ZNSt10_Head_baseILm0EPN10prometheus7SummaryELb0EE7_M_headERS3_' type='func-type' binding='weak-binding' visibility='default-visibility' is-defined='yes'/>
    <elf-symbol name='_ZNSt10_Head_baseILm0EPN10prometheus7SummaryELb0EEC1Ev' type='func-type' binding='weak-binding' visibility='default-visibility' alias='_ZNSt10_Head_baseILm0EPN10prometheus7SummaryELb0EEC2Ev' is-defined='yes'/>
    <elf-symbol name='_ZNSt10_Head_baseILm0EPN10prometheus7SummaryELb0EEC2Ev' type='func-type' binding='weak-binding' visibility='default-visibility' is-defined='yes'/>
    <elf-symbol name='_ZNSt10_Head_baseILm1ESt14default_deleteIN10prometheus10SerializerEELb1EE7_M_headERS4_' type='func-type' binding='weak-binding' visibility='default-visibility' is-defined='yes'/>
    <elf-symbol name='_ZNSt10_Head_baseILm1ESt14default_deleteIN10prometheus10SerializerEELb1EEC1Ev' type='func-type' binding='weak-binding' visibility='default-visibility' alias='_ZNSt10_Head_baseILm1ESt14default_deleteIN10prometheus10SerializerEELb1EEC2Ev' is-defined='yes'/>
    <elf-symbol name='_ZNSt10_Head_baseILm1ESt14default_deleteIN10prometheus10SerializerEELb1EEC2Ev' type='func-type' binding='weak-binding' visibility='default-visibility' is-defined='yes'/>
    <elf-symbol name='_ZNSt10_Head_baseILm1ESt14default_deleteIN10prometheus7CounterEELb1EE7_M_headERS4_' type='func-type' binding='weak-binding' visibility='default-visibility' is-defined='yes'/>
    <elf-symbol name='_ZNSt10_Head_baseILm1ESt14default_deleteIN10prometheus7CounterEELb1EEC1Ev' type='func-type' binding='weak-binding' visibility='default-visibility' alias='_ZNSt10_Head_baseILm1ESt14default_deleteIN10prometheus7CounterEELb1EEC2Ev' is-defined='yes'/>
    <elf-symbol name='_ZNSt10_Head_baseILm1ESt14default_deleteIN10prometheus7CounterEELb1EEC2Ev' type='func-type' binding='weak-binding' visibility='default-visibility' is-defined='yes'/>
    <elf-symbol name='_ZNSt10_Head_baseILm1ESt14default_deleteIN10prometheus7SummaryEELb1EE7_M_headERS4_' type='func-type' binding='weak-binding' visibility='default-visibility' is-defined='yes'/>
    <elf-symbol name='_ZNSt10_Head_baseILm1ESt14default_deleteIN10prometheus7SummaryEELb1EEC1Ev' type='func-type' binding='weak-binding' visibility='default-visibility' alias='_ZNSt10_Head_baseILm1ESt14default_deleteIN10prometheus7SummaryEELb1EEC2Ev' is-defined='yes'/>
    <elf-symbol name='_ZNSt10_Head_baseILm1ESt14default_deleteIN10prometheus7SummaryEELb1EEC2Ev' type='func-type' binding='weak-binding' visibility='default-visibility' is-defined='yes'/>
    <elf-symbol name='_ZNSt10__weak_ptrIN10prometheus11CollectableELN9__gnu_cxx12_Lock_policyE2EEC1EOS4_' type='func-type' binding='weak-binding' visibility='default-visibility' alias='_ZNSt10__weak_ptrIN10prometheus11CollectableELN9__gnu_cxx12_Lock_policyE2EEC2EOS4_' is-defined='yes'/>
    <elf-symbol name='_ZNSt10__weak_ptrIN10prometheus11CollectableELN9__gnu_cxx12_Lock_policyE2EEC1INS0_8RegistryEvEERKSt12__shared_ptrIT_LS3_2EE' type='func-type' binding='weak-binding' visibility='default-visibility' alias='_ZNSt10__weak_ptrIN10prometheus11CollectableELN9__gnu_cxx12_Lock_policyE2EEC2INS0_8RegistryEvEERKSt12__shared_ptrIT_LS3_2EE' is-defined='yes'/>
    <elf-symbol name='_ZNSt10__weak_ptrIN10prometheus11CollectableELN9__gnu_cxx12_Lock_policyE2EEC2EOS4_' type='func-type' binding='weak-binding' visibility='default-visibility' is-defined='yes'/>
    <elf-symbol name='_ZNSt10__weak_ptrIN10prometheus11CollectableELN9__gnu_cxx12_Lock_policyE2EEC2INS0_8RegistryEvEERKSt12__shared_ptrIT_LS3_2EE' type='func-type' binding='weak-binding' visibility='default-visibility' is-defined='yes'/>
    <elf-symbol name='_ZNSt10__weak_ptrIN10prometheus11CollectableELN9__gnu_cxx12_Lock_policyE2EEaSEOS4_' type='func-type' binding='weak-binding' visibility='default-visibility' is-defined='yes'/>
    <elf-symbol name='_ZNSt10lock_guardISt5mutexEC1ERS0_' type='func-type' binding='weak-binding' visibility='default-visibility' alias='_ZNSt10lock_guardISt5mutexEC2ERS0_' is-defined='yes'/>
    <elf-symbol name='_ZNSt10lock_guardISt5mutexEC2ERS0_' type='func-type' binding='weak-binding' visibility='default-visibility' is-defined='yes'/>
    <elf-symbol name='_ZNSt10lock_guardISt5mutexED1Ev' type='func-type' binding='weak-binding' visibility='default-visibility' alias='_ZNSt10lock_guardISt5mutexED2Ev' is-defined='yes'/>
    <elf-symbol name='_ZNSt10lock_guardISt5mutexED2Ev' type='func-type' binding='weak-binding' visibility='default-visibility' is-defined='yes'/>
    <elf-symbol name='_ZNSt10shared_ptrIN10prometheus11CollectableEEC1ERKSt8weak_ptrIS1_ESt9nothrow_t' type='func-type' binding='weak-binding' visibility='default-visibility' is-defined='yes'/>
    <elf-symbol name='_ZNSt10shared_ptrIN10prometheus11CollectableEEC2ERKSt8weak_ptrIS1_ESt9nothrow_t' type='func-type' binding='weak-binding' visibility='default-visibility' alias='_ZNSt10shared_ptrIN10prometheus11CollectableEEC1ERKSt8weak_ptrIS1_ESt9nothrow_t' is-defined='yes'/>
    <elf-symbol name='_ZNSt10shared_ptrIN10prometheus8RegistryEEC1ISaIS1_EJEEESt20_Sp_alloc_shared_tagIT_EDpOT0_' type='func-type' binding='weak-binding' visibility='default-visibility' is-defined='yes'/>
    <elf-symbol name='_ZNSt10shared_ptrIN10prometheus8RegistryEEC2ISaIS1_EJEEESt20_Sp_alloc_shared_tagIT_EDpOT0_' type='func-type' binding='weak-binding' visibility='default-visibility' alias='_ZNSt10shared_ptrIN10prometheus8RegistryEEC1ISaIS1_EJEEESt20_Sp_alloc_shared_tagIT_EDpOT0_' is-defined='yes'/>
    <elf-symbol name='_ZNSt10unique_ptrIN10prometheus10SerializerESt14default_deleteIS1_EE11get_deleterEv' type='func-type' binding='weak-binding' visibility='default-visibility' is-defined='yes'/>
    <elf-symbol name='_ZNSt10unique_ptrIN10prometheus10SerializerESt14default_deleteIS1_EEC1IS3_vEEPS1_' type='func-type' binding='weak-binding' visibility='default-visibility' alias='_ZNSt10unique_ptrIN10prometheus10SerializerESt14default_deleteIS1_EEC2IS3_vEEPS1_' is-defined='yes'/>
    <elf-symbol name='_ZNSt10unique_ptrIN10prometheus10SerializerESt14default_deleteIS1_EEC2IS3_vEEPS1_' type='func-type' binding='weak-binding' visibility='default-visibility' is-defined='yes'/>
    <elf-symbol name='_ZNSt10unique_ptrIN10prometheus10SerializerESt14default_deleteIS1_EED1Ev' type='func-type' binding='weak-binding' visibility='default-visibility' alias='_ZNSt10unique_ptrIN10prometheus10SerializerESt14default_deleteIS1_EED2Ev' is-defined='yes'/>
    <elf-symbol name='_ZNSt10unique_ptrIN10prometheus10SerializerESt14default_deleteIS1_EED2Ev' type='func-type' binding='weak-binding' visibility='default-visibility' is-defined='yes'/>
    <elf-symbol name='_ZNSt10unique_ptrIN10prometheus7CounterESt14default_deleteIS1_EE11get_deleterEv' type='func-type' binding='weak-binding' visibility='default-visibility' is-defined='yes'/>
    <elf-symbol name='_ZNSt10unique_ptrIN10prometheus7CounterESt14default_deleteIS1_EEC1IS3_vEEPS1_' type='func-type' binding='weak-binding' visibility='default-visibility' alias='_ZNSt10unique_ptrIN10prometheus7CounterESt14default_deleteIS1_EEC2IS3_vEEPS1_' is-defined='yes'/>
    <elf-symbol name='_ZNSt10unique_ptrIN10prometheus7CounterESt14default_deleteIS1_EEC2IS3_vEEPS1_' type='func-type' binding='weak-binding' visibility='default-visibility' is-defined='yes'/>
    <elf-symbol name='_ZNSt10unique_ptrIN10prometheus7CounterESt14default_deleteIS1_EED1Ev' type='func-type' binding='weak-binding' visibility='default-visibility' alias='_ZNSt10unique_ptrIN10prometheus7CounterESt14default_deleteIS1_EED2Ev' is-defined='yes'/>
    <elf-symbol name='_ZNSt10unique_ptrIN10prometheus7CounterESt14default_deleteIS1_EED2Ev' type='func-type' binding='weak-binding' visibility='default-visibility' is-defined='yes'/>
    <elf-symbol name='_ZNSt10unique_ptrIN10prometheus7SummaryESt14default_deleteIS1_EE11get_deleterEv' type='func-type' binding='weak-binding' visibility='default-visibility' is-defined='yes'/>
    <elf-symbol name='_ZNSt10unique_ptrIN10prometheus7SummaryESt14default_deleteIS1_EEC1IS3_vEEPS1_' type='func-type' binding='weak-binding' visibility='default-visibility' alias='_ZNSt10unique_ptrIN10prometheus7SummaryESt14default_deleteIS1_EEC2IS3_vEEPS1_' is-defined='yes'/>
    <elf-symbol name='_ZNSt10unique_ptrIN10prometheus7SummaryESt14default_deleteIS1_EEC2IS3_vEEPS1_' type='func-type' binding='weak-binding' visibility='default-visibility' is-defined='yes'/>
    <elf-symbol name='_ZNSt10unique_ptrIN10prometheus7SummaryESt14default_deleteIS1_EED1Ev' type='func-type' binding='weak-binding' visibility='default-visibility' alias='_ZNSt10unique_ptrIN10prometheus7SummaryESt14default_deleteIS1_EED2Ev' is-defined='yes'/>
    <elf-symbol name='_ZNSt10unique_ptrIN10prometheus7SummaryESt14default_deleteIS1_EED2Ev' type='func-type' binding='weak-binding' visibility='default-visibility' is-defined='yes'/>
    <elf-symbol name='_ZNSt11_Tuple_implILm0EJPN10prometheus10SerializerESt14default_deleteIS1_EEE7_M_headERKS5_' type='func-type' binding='weak-binding' visibility='default-visibility' is-defined='yes'/>
    <elf-symbol name='_ZNSt11_Tuple_implILm0EJPN10prometheus10SerializerESt14default_deleteIS1_EEE7_M_headERS5_' type='func-type' binding='weak-binding' visibility='default-visibility' is-defined='yes'/>
    <elf-symbol name='_ZNSt11_Tuple_implILm0EJPN10prometheus10SerializerESt14default_deleteIS1_EEEC1Ev' type='func-type' binding='weak-binding' visibility='default-visibility' alias='_ZNSt11_Tuple_implILm0EJPN10prometheus10SerializerESt14default_deleteIS1_EEEC2Ev' is-defined='yes'/>
    <elf-symbol name='_ZNSt11_Tuple_implILm0EJPN10prometheus10SerializerESt14default_deleteIS1_EEEC2Ev' type='func-type' binding='weak-binding' visibility='default-visibility' is-defined='yes'/>
    <elf-symbol name='_ZNSt11_Tuple_implILm0EJPN10prometheus7CounterESt14default_deleteIS1_EEE7_M_headERS5_' type='func-type' binding='weak-binding' visibility='default-visibility' is-defined='yes'/>
    <elf-symbol name='_ZNSt11_Tuple_implILm0EJPN10prometheus7CounterESt14default_deleteIS1_EEEC1Ev' type='func-type' binding='weak-binding' visibility='default-visibility' alias='_ZNSt11_Tuple_implILm0EJPN10prometheus7CounterESt14default_deleteIS1_EEEC2Ev' is-defined='yes'/>
    <elf-symbol name='_ZNSt11_Tuple_implILm0EJPN10prometheus7CounterESt14default_deleteIS1_EEEC2Ev' type='func-type' binding='weak-binding' visibility='default-visibility' is-defined='yes'/>
    <elf-symbol name='_ZNSt11_Tuple_implILm0EJPN10prometheus7SummaryESt14default_deleteIS1_EEE7_M_headERS5_' type='func-type' binding='weak-binding' visibility='default-visibility' is-defined='yes'/>
    <elf-symbol name='_ZNSt11_Tuple_implILm0EJPN10prometheus7SummaryESt14default_deleteIS1_EEEC1Ev' type='func-type' binding='weak-binding' visibility='default-visibility' alias='_ZNSt11_Tuple_implILm0EJPN10prometheus7SummaryESt14default_deleteIS1_EEEC2Ev' is-defined='yes'/>
    <elf-symbol name='_ZNSt11_Tuple_implILm0EJPN10prometheus7SummaryESt14default_deleteIS1_EEEC2Ev' type='func-type' binding='weak-binding' visibility='default-visibility' is-defined='yes'/>
    <elf-symbol name='_ZNSt11_Tuple_implILm1EJSt14default_deleteIN10prometheus10SerializerEEEE7_M_headERS4_' type='func-type' binding='weak-binding' visibility='default-visibility' is-defined='yes'/>
    <elf-symbol name='_ZNSt11_Tuple_implILm1EJSt14default_deleteIN10prometheus10SerializerEEEEC1Ev' type='func-type' binding='weak-binding' visibility='default-visibility' alias='_ZNSt11_Tuple_implILm1EJSt14default_deleteIN10prometheus10SerializerEEEEC2Ev' is-defined='yes'/>
    <elf-symbol name='_ZNSt11_Tuple_implILm1EJSt14default_deleteIN10prometheus10SerializerEEEEC2Ev' type='func-type' binding='weak-binding' visibility='default-visibility' is-defined='yes'/>
    <elf-symbol name='_ZNSt11_Tuple_implILm1EJSt14default_deleteIN10prometheus7CounterEEEE7_M_headERS4_' type='func-type' binding='weak-binding' visibility='default-visibility' is-defined='yes'/>
    <elf-symbol name='_ZNSt11_Tuple_implILm1EJSt14default_deleteIN10prometheus7CounterEEEEC1Ev' type='func-type' binding='weak-binding' visibility='default-visibility' alias='_ZNSt11_Tuple_implILm1EJSt14default_deleteIN10prometheus7CounterEEEEC2Ev' is-defined='yes'/>
    <elf-symbol name='_ZNSt11_Tuple_implILm1EJSt14default_deleteIN10prometheus7CounterEEEEC2Ev' type='func-type' binding='weak-binding' visibility='default-visibility' is-defined='yes'/>
    <elf-symbol name='_ZNSt11_Tuple_implILm1EJSt14default_deleteIN10prometheus7SummaryEEEE7_M_headERS4_' type='func-type' binding='weak-binding' visibility='default-visibility' is-defined='yes'/>
    <elf-symbol name='_ZNSt11_Tuple_implILm1EJSt14default_deleteIN10prometheus7SummaryEEEEC1Ev' type='func-type' binding='weak-binding' visibility='default-visibility' alias='_ZNSt11_Tuple_implILm1EJSt14default_deleteIN10prometheus7SummaryEEEEC2Ev' is-defined='yes'/>
    <elf-symbol name='_ZNSt11_Tuple_implILm1EJSt14default_deleteIN10prometheus7SummaryEEEEC2Ev' type='func-type' binding='weak-binding' visibility='default-visibility' is-defined='yes'/>
    <elf-symbol name='_ZNSt11__copy_moveILb0ELb1ESt26random_access_iterator_tagE8__copy_mIcEEPT_PKS3_S6_S4_' type='func-type' binding='weak-binding' visibility='default-visibility' is-defined='yes'/>
    <elf-symbol name='_ZNSt11__copy_moveILb1ELb0ESt26random_access_iterator_tagE8__copy_mIPN10prometheus12MetricFamilyES5_EET0_T_S7_S6_' type='func-type' binding='weak-binding' visibility='default-visibility' is-defined='yes'/>
    <elf-symbol name='_ZNSt11__copy_moveILb1ELb0ESt26random_access_iterator_tagE8__copy_mIPSt8weak_ptrIN10prometheus11CollectableEES7_EET0_T_S9_S8_' type='func-type' binding='weak-binding' visibility='default-visibility' is-defined='yes'/>
    <elf-symbol name='_ZNSt11__copy_moveILb1ELb1ESt26random_access_iterator_tagE8__copy_mIcEEPT_PKS3_S6_S4_' type='func-type' binding='weak-binding' visibility='default-visibility' is-defined='yes'/>
    <elf-symbol name='_ZNSt11__copy_moveILb1ELb1ESt26random_access_iterator_tagE8__copy_mIhEEPT_PKS3_S6_S4_' type='func-type' binding='weak-binding' visibility='default-visibility' is-defined='yes'/>
    <elf-symbol name='_ZNSt12_Destroy_auxILb0EE9__destroyIPN10prometheus12ClientMetric5LabelEEEvT_S6_' type='func-type' binding='weak-binding' visibility='default-visibility' is-defined='yes'/>
    <elf-symbol name='_ZNSt12_Destroy_auxILb0EE9__destroyIPN10prometheus12ClientMetricEEEvT_S5_' type='func-type' binding='weak-binding' visibility='default-visibility' is-defined='yes'/>
    <elf-symbol name='_ZNSt12_Destroy_auxILb0EE9__destroyIPN10prometheus12MetricFamilyEEEvT_S5_' type='func-type' binding='weak-binding' visibility='default-visibility' is-defined='yes'/>
    <elf-symbol name='_ZNSt12_Destroy_auxILb0EE9__destroyIPN10prometheus6detail13CKMSQuantilesEEEvT_S6_' type='func-type' binding='weak-binding' visibility='default-visibility' is-defined='yes'/>
    <elf-symbol name='_ZNSt12_Destroy_auxILb0EE9__destroyIPNSt7__cxx1112basic_stringIcSt11char_traitsIcESaIcEEEEEvT_S9_' type='func-type' binding='weak-binding' visibility='default-visibility' is-defined='yes'/>
    <elf-symbol name='_ZNSt12_Destroy_auxILb0EE9__destroyIPSt8weak_ptrIN10prometheus11CollectableEEEEvT_S7_' type='func-type' binding='weak-binding' visibility='default-visibility' is-defined='yes'/>
    <elf-symbol name='_ZNSt12_Destroy_auxILb1EE9__destroyIPN10prometheus12ClientMetric6BucketEEEvT_S6_' type='func-type' binding='weak-binding' visibility='default-visibility' is-defined='yes'/>
    <elf-symbol name='_ZNSt12_Destroy_auxILb1EE9__destroyIPN10prometheus12ClientMetric8QuantileEEEvT_S6_' type='func-type' binding='weak-binding' visibility='default-visibility' is-defined='yes'/>
    <elf-symbol name='_ZNSt12_Destroy_auxILb1EE9__destroyIPN10prometheus6detail13CKMSQuantiles4ItemEEEvT_S7_' type='func-type' binding='weak-binding' visibility='default-visibility' is-defined='yes'/>
    <elf-symbol name='_ZNSt12_Destroy_auxILb1EE9__destroyIPN10prometheus6detail13CKMSQuantiles8QuantileEEEvT_S7_' type='func-type' binding='weak-binding' visibility='default-visibility' is-defined='yes'/>
    <elf-symbol name='_ZNSt12_Destroy_auxILb1EE9__destroyIPPKcEEvT_S5_' type='func-type' binding='weak-binding' visibility='default-visibility' is-defined='yes'/>
    <elf-symbol name='_ZNSt12_Destroy_auxILb1EE9__destroyIPcEEvT_S3_' type='func-type' binding='weak-binding' visibility='default-visibility' is-defined='yes'/>
    <elf-symbol name='_ZNSt12_Destroy_auxILb1EE9__destroyIPhEEvT_S3_' type='func-type' binding='weak-binding' visibility='default-visibility' is-defined='yes'/>
    <elf-symbol name='_ZNSt12_Vector_baseIN10prometheus12ClientMetric5LabelESaIS2_EE13_M_deallocateEPS2_m' type='func-type' binding='weak-binding' visibility='default-visibility' is-defined='yes'/>
    <elf-symbol name='_ZNSt12_Vector_baseIN10prometheus12ClientMetric5LabelESaIS2_EE19_M_get_Tp_allocatorEv' type='func-type' binding='weak-binding' visibility='default-visibility' is-defined='yes'/>
    <elf-symbol name='_ZNSt12_Vector_baseIN10prometheus12ClientMetric5LabelESaIS2_EED1Ev' type='func-type' binding='weak-binding' visibility='default-visibility' alias='_ZNSt12_Vector_baseIN10prometheus12ClientMetric5LabelESaIS2_EED2Ev' is-defined='yes'/>
    <elf-symbol name='_ZNSt12_Vector_baseIN10prometheus12ClientMetric5LabelESaIS2_EED2Ev' type='func-type' binding='weak-binding' visibility='default-visibility' is-defined='yes'/>
    <elf-symbol name='_ZNSt12_Vector_baseIN10prometheus12ClientMetric6BucketESaIS2_EE13_M_deallocateEPS2_m' type='func-type' binding='weak-binding' visibility='default-visibility' is-defined='yes'/>
    <elf-symbol name='_ZNSt12_Vector_baseIN10prometheus12ClientMetric6BucketESaIS2_EE19_M_get_Tp_allocatorEv' type='func-type' binding='weak-binding' visibility='default-visibility' is-defined='yes'/>
    <elf-symbol name='_ZNSt12_Vector_baseIN10prometheus12ClientMetric6BucketESaIS2_EED1Ev' type='func-type' binding='weak-binding' visibility='default-visibility' alias='_ZNSt12_Vector_baseIN10prometheus12ClientMetric6BucketESaIS2_EED2Ev' is-defined='yes'/>
    <elf-symbol name='_ZNSt12_Vector_baseIN10prometheus12ClientMetric6BucketESaIS2_EED2Ev' type='func-type' binding='weak-binding' visibility='default-visibility' is-defined='yes'/>
    <elf-symbol name='_ZNSt12_Vector_baseIN10prometheus12ClientMetric8QuantileESaIS2_EE13_M_deallocateEPS2_m' type='func-type' binding='weak-binding' visibility='default-visibility' is-defined='yes'/>
    <elf-symbol name='_ZNSt12_Vector_baseIN10prometheus12ClientMetric8QuantileESaIS2_EE19_M_get_Tp_allocatorEv' type='func-type' binding='weak-binding' visibility='default-visibility' is-defined='yes'/>
    <elf-symbol name='_ZNSt12_Vector_baseIN10prometheus12ClientMetric8QuantileESaIS2_EED1Ev' type='func-type' binding='weak-binding' visibility='default-visibility' alias='_ZNSt12_Vector_baseIN10prometheus12ClientMetric8QuantileESaIS2_EED2Ev' is-defined='yes'/>
    <elf-symbol name='_ZNSt12_Vector_baseIN10prometheus12ClientMetric8QuantileESaIS2_EED2Ev' type='func-type' binding='weak-binding' visibility='default-visibility' is-defined='yes'/>
    <elf-symbol name='_ZNSt12_Vector_baseIN10prometheus12ClientMetricESaIS1_EE12_Vector_implC1EOS4_' type='func-type' binding='weak-binding' visibility='default-visibility' is-defined='yes'/>
    <elf-symbol name='_ZNSt12_Vector_baseIN10prometheus12ClientMetricESaIS1_EE12_Vector_implC1ERKS2_' type='func-type' binding='weak-binding' visibility='default-visibility' is-defined='yes'/>
    <elf-symbol name='_ZNSt12_Vector_baseIN10prometheus12ClientMetricESaIS1_EE12_Vector_implC2EOS4_' type='func-type' binding='weak-binding' visibility='default-visibility' alias='_ZNSt12_Vector_baseIN10prometheus12ClientMetricESaIS1_EE12_Vector_implC1EOS4_' is-defined='yes'/>
    <elf-symbol name='_ZNSt12_Vector_baseIN10prometheus12ClientMetricESaIS1_EE12_Vector_implC2ERKS2_' type='func-type' binding='weak-binding' visibility='default-visibility' alias='_ZNSt12_Vector_baseIN10prometheus12ClientMetricESaIS1_EE12_Vector_implC1ERKS2_' is-defined='yes'/>
    <elf-symbol name='_ZNSt12_Vector_baseIN10prometheus12ClientMetricESaIS1_EE13_M_deallocateEPS1_m' type='func-type' binding='weak-binding' visibility='default-visibility' is-defined='yes'/>
    <elf-symbol name='_ZNSt12_Vector_baseIN10prometheus12ClientMetricESaIS1_EE17_Vector_impl_data12_M_copy_dataERKS4_' type='func-type' binding='weak-binding' visibility='default-visibility' is-defined='yes'/>
    <elf-symbol name='_ZNSt12_Vector_baseIN10prometheus12ClientMetricESaIS1_EE17_Vector_impl_data12_M_swap_dataERS4_' type='func-type' binding='weak-binding' visibility='default-visibility' is-defined='yes'/>
    <elf-symbol name='_ZNSt12_Vector_baseIN10prometheus12ClientMetricESaIS1_EE17_Vector_impl_dataC1EOS4_' type='func-type' binding='weak-binding' visibility='default-visibility' alias='_ZNSt12_Vector_baseIN10prometheus12ClientMetricESaIS1_EE17_Vector_impl_dataC2EOS4_' is-defined='yes'/>
    <elf-symbol name='_ZNSt12_Vector_baseIN10prometheus12ClientMetricESaIS1_EE17_Vector_impl_dataC1Ev' type='func-type' binding='weak-binding' visibility='default-visibility' alias='_ZNSt12_Vector_baseIN10prometheus12ClientMetricESaIS1_EE17_Vector_impl_dataC2Ev' is-defined='yes'/>
    <elf-symbol name='_ZNSt12_Vector_baseIN10prometheus12ClientMetricESaIS1_EE17_Vector_impl_dataC2EOS4_' type='func-type' binding='weak-binding' visibility='default-visibility' is-defined='yes'/>
    <elf-symbol name='_ZNSt12_Vector_baseIN10prometheus12ClientMetricESaIS1_EE17_Vector_impl_dataC2Ev' type='func-type' binding='weak-binding' visibility='default-visibility' is-defined='yes'/>
    <elf-symbol name='_ZNSt12_Vector_baseIN10prometheus12ClientMetricESaIS1_EE19_M_get_Tp_allocatorEv' type='func-type' binding='weak-binding' visibility='default-visibility' is-defined='yes'/>
    <elf-symbol name='_ZNSt12_Vector_baseIN10prometheus12ClientMetricESaIS1_EEC1ERKS2_' type='func-type' binding='weak-binding' visibility='default-visibility' is-defined='yes'/>
    <elf-symbol name='_ZNSt12_Vector_baseIN10prometheus12ClientMetricESaIS1_EEC2ERKS2_' type='func-type' binding='weak-binding' visibility='default-visibility' alias='_ZNSt12_Vector_baseIN10prometheus12ClientMetricESaIS1_EEC1ERKS2_' is-defined='yes'/>
    <elf-symbol name='_ZNSt12_Vector_baseIN10prometheus12ClientMetricESaIS1_EED1Ev' type='func-type' binding='weak-binding' visibility='default-visibility' is-defined='yes'/>
    <elf-symbol name='_ZNSt12_Vector_baseIN10prometheus12ClientMetricESaIS1_EED2Ev' type='func-type' binding='weak-binding' visibility='default-visibility' alias='_ZNSt12_Vector_baseIN10prometheus12ClientMetricESaIS1_EED1Ev' is-defined='yes'/>
    <elf-symbol name='_ZNSt12_Vector_baseIN10prometheus12MetricFamilyESaIS1_EE11_M_allocateEm' type='func-type' binding='weak-binding' visibility='default-visibility' is-defined='yes'/>
    <elf-symbol name='_ZNSt12_Vector_baseIN10prometheus12MetricFamilyESaIS1_EE12_Vector_implC1ERKS2_' type='func-type' binding='weak-binding' visibility='default-visibility' alias='_ZNSt12_Vector_baseIN10prometheus12MetricFamilyESaIS1_EE12_Vector_implC2ERKS2_' is-defined='yes'/>
    <elf-symbol name='_ZNSt12_Vector_baseIN10prometheus12MetricFamilyESaIS1_EE12_Vector_implC1Ev' type='func-type' binding='weak-binding' visibility='default-visibility' alias='_ZNSt12_Vector_baseIN10prometheus12MetricFamilyESaIS1_EE12_Vector_implC2Ev' is-defined='yes'/>
    <elf-symbol name='_ZNSt12_Vector_baseIN10prometheus12MetricFamilyESaIS1_EE12_Vector_implC2ERKS2_' type='func-type' binding='weak-binding' visibility='default-visibility' is-defined='yes'/>
    <elf-symbol name='_ZNSt12_Vector_baseIN10prometheus12MetricFamilyESaIS1_EE12_Vector_implC2Ev' type='func-type' binding='weak-binding' visibility='default-visibility' is-defined='yes'/>
    <elf-symbol name='_ZNSt12_Vector_baseIN10prometheus12MetricFamilyESaIS1_EE13_M_deallocateEPS1_m' type='func-type' binding='weak-binding' visibility='default-visibility' is-defined='yes'/>
    <elf-symbol name='_ZNSt12_Vector_baseIN10prometheus12MetricFamilyESaIS1_EE17_Vector_impl_data12_M_copy_dataERKS4_' type='func-type' binding='weak-binding' visibility='default-visibility' is-defined='yes'/>
    <elf-symbol name='_ZNSt12_Vector_baseIN10prometheus12MetricFamilyESaIS1_EE17_Vector_impl_data12_M_swap_dataERS4_' type='func-type' binding='weak-binding' visibility='default-visibility' is-defined='yes'/>
    <elf-symbol name='_ZNSt12_Vector_baseIN10prometheus12MetricFamilyESaIS1_EE17_Vector_impl_dataC1Ev' type='func-type' binding='weak-binding' visibility='default-visibility' alias='_ZNSt12_Vector_baseIN10prometheus12MetricFamilyESaIS1_EE17_Vector_impl_dataC2Ev' is-defined='yes'/>
    <elf-symbol name='_ZNSt12_Vector_baseIN10prometheus12MetricFamilyESaIS1_EE17_Vector_impl_dataC2Ev' type='func-type' binding='weak-binding' visibility='default-visibility' is-defined='yes'/>
    <elf-symbol name='_ZNSt12_Vector_baseIN10prometheus12MetricFamilyESaIS1_EE19_M_get_Tp_allocatorEv' type='func-type' binding='weak-binding' visibility='default-visibility' is-defined='yes'/>
    <elf-symbol name='_ZNSt12_Vector_baseIN10prometheus12MetricFamilyESaIS1_EEC1ERKS2_' type='func-type' binding='weak-binding' visibility='default-visibility' alias='_ZNSt12_Vector_baseIN10prometheus12MetricFamilyESaIS1_EEC2ERKS2_' is-defined='yes'/>
    <elf-symbol name='_ZNSt12_Vector_baseIN10prometheus12MetricFamilyESaIS1_EEC2ERKS2_' type='func-type' binding='weak-binding' visibility='default-visibility' is-defined='yes'/>
    <elf-symbol name='_ZNSt12_Vector_baseIN10prometheus12MetricFamilyESaIS1_EED1Ev' type='func-type' binding='weak-binding' visibility='default-visibility' alias='_ZNSt12_Vector_baseIN10prometheus12MetricFamilyESaIS1_EED2Ev' is-defined='yes'/>
    <elf-symbol name='_ZNSt12_Vector_baseIN10prometheus12MetricFamilyESaIS1_EED2Ev' type='func-type' binding='weak-binding' visibility='default-visibility' is-defined='yes'/>
    <elf-symbol name='_ZNSt12_Vector_baseIN10prometheus6detail13CKMSQuantiles4ItemESaIS3_EE13_M_deallocateEPS3_m' type='func-type' binding='weak-binding' visibility='default-visibility' is-defined='yes'/>
    <elf-symbol name='_ZNSt12_Vector_baseIN10prometheus6detail13CKMSQuantiles4ItemESaIS3_EE19_M_get_Tp_allocatorEv' type='func-type' binding='weak-binding' visibility='default-visibility' is-defined='yes'/>
    <elf-symbol name='_ZNSt12_Vector_baseIN10prometheus6detail13CKMSQuantiles4ItemESaIS3_EED1Ev' type='func-type' binding='weak-binding' visibility='default-visibility' alias='_ZNSt12_Vector_baseIN10prometheus6detail13CKMSQuantiles4ItemESaIS3_EED2Ev' is-defined='yes'/>
    <elf-symbol name='_ZNSt12_Vector_baseIN10prometheus6detail13CKMSQuantiles4ItemESaIS3_EED2Ev' type='func-type' binding='weak-binding' visibility='default-visibility' is-defined='yes'/>
    <elf-symbol name='_ZNSt12_Vector_baseIN10prometheus6detail13CKMSQuantiles8QuantileESaIS3_EE11_M_allocateEm' type='func-type' binding='weak-binding' visibility='default-visibility' is-defined='yes'/>
    <elf-symbol name='_ZNSt12_Vector_baseIN10prometheus6detail13CKMSQuantiles8QuantileESaIS3_EE12_Vector_implC1ERKS4_' type='func-type' binding='weak-binding' visibility='default-visibility' alias='_ZNSt12_Vector_baseIN10prometheus6detail13CKMSQuantiles8QuantileESaIS3_EE12_Vector_implC2ERKS4_' is-defined='yes'/>
    <elf-symbol name='_ZNSt12_Vector_baseIN10prometheus6detail13CKMSQuantiles8QuantileESaIS3_EE12_Vector_implC2ERKS4_' type='func-type' binding='weak-binding' visibility='default-visibility' is-defined='yes'/>
    <elf-symbol name='_ZNSt12_Vector_baseIN10prometheus6detail13CKMSQuantiles8QuantileESaIS3_EE13_M_deallocateEPS3_m' type='func-type' binding='weak-binding' visibility='default-visibility' is-defined='yes'/>
    <elf-symbol name='_ZNSt12_Vector_baseIN10prometheus6detail13CKMSQuantiles8QuantileESaIS3_EE17_Vector_impl_dataC1Ev' type='func-type' binding='weak-binding' visibility='default-visibility' alias='_ZNSt12_Vector_baseIN10prometheus6detail13CKMSQuantiles8QuantileESaIS3_EE17_Vector_impl_dataC2Ev' is-defined='yes'/>
    <elf-symbol name='_ZNSt12_Vector_baseIN10prometheus6detail13CKMSQuantiles8QuantileESaIS3_EE17_Vector_impl_dataC2Ev' type='func-type' binding='weak-binding' visibility='default-visibility' is-defined='yes'/>
    <elf-symbol name='_ZNSt12_Vector_baseIN10prometheus6detail13CKMSQuantiles8QuantileESaIS3_EE19_M_get_Tp_allocatorEv' type='func-type' binding='weak-binding' visibility='default-visibility' is-defined='yes'/>
    <elf-symbol name='_ZNSt12_Vector_baseIN10prometheus6detail13CKMSQuantiles8QuantileESaIS3_EEC1ERKS4_' type='func-type' binding='weak-binding' visibility='default-visibility' alias='_ZNSt12_Vector_baseIN10prometheus6detail13CKMSQuantiles8QuantileESaIS3_EEC2ERKS4_' is-defined='yes'/>
    <elf-symbol name='_ZNSt12_Vector_baseIN10prometheus6detail13CKMSQuantiles8QuantileESaIS3_EEC2ERKS4_' type='func-type' binding='weak-binding' visibility='default-visibility' is-defined='yes'/>
    <elf-symbol name='_ZNSt12_Vector_baseIN10prometheus6detail13CKMSQuantiles8QuantileESaIS3_EED1Ev' type='func-type' binding='weak-binding' visibility='default-visibility' alias='_ZNSt12_Vector_baseIN10prometheus6detail13CKMSQuantiles8QuantileESaIS3_EED2Ev' is-defined='yes'/>
    <elf-symbol name='_ZNSt12_Vector_baseIN10prometheus6detail13CKMSQuantiles8QuantileESaIS3_EED2Ev' type='func-type' binding='weak-binding' visibility='default-visibility' is-defined='yes'/>
    <elf-symbol name='_ZNSt12_Vector_baseIN10prometheus6detail13CKMSQuantilesESaIS2_EE13_M_deallocateEPS2_m' type='func-type' binding='weak-binding' visibility='default-visibility' is-defined='yes'/>
    <elf-symbol name='_ZNSt12_Vector_baseIN10prometheus6detail13CKMSQuantilesESaIS2_EE19_M_get_Tp_allocatorEv' type='func-type' binding='weak-binding' visibility='default-visibility' is-defined='yes'/>
    <elf-symbol name='_ZNSt12_Vector_baseIN10prometheus6detail13CKMSQuantilesESaIS2_EED1Ev' type='func-type' binding='weak-binding' visibility='default-visibility' alias='_ZNSt12_Vector_baseIN10prometheus6detail13CKMSQuantilesESaIS2_EED2Ev' is-defined='yes'/>
    <elf-symbol name='_ZNSt12_Vector_baseIN10prometheus6detail13CKMSQuantilesESaIS2_EED2Ev' type='func-type' binding='weak-binding' visibility='default-visibility' is-defined='yes'/>
    <elf-symbol name='_ZNSt12_Vector_baseINSt7__cxx1112basic_stringIcSt11char_traitsIcESaIcEEESaIS5_EE11_M_allocateEm' type='func-type' binding='weak-binding' visibility='default-visibility' is-defined='yes'/>
    <elf-symbol name='_ZNSt12_Vector_baseINSt7__cxx1112basic_stringIcSt11char_traitsIcESaIcEEESaIS5_EE12_Vector_implC1ERKS6_' type='func-type' binding='weak-binding' visibility='default-visibility' alias='_ZNSt12_Vector_baseINSt7__cxx1112basic_stringIcSt11char_traitsIcESaIcEEESaIS5_EE12_Vector_implC2ERKS6_' is-defined='yes'/>
    <elf-symbol name='_ZNSt12_Vector_baseINSt7__cxx1112basic_stringIcSt11char_traitsIcESaIcEEESaIS5_EE12_Vector_implC2ERKS6_' type='func-type' binding='weak-binding' visibility='default-visibility' is-defined='yes'/>
    <elf-symbol name='_ZNSt12_Vector_baseINSt7__cxx1112basic_stringIcSt11char_traitsIcESaIcEEESaIS5_EE13_M_deallocateEPS5_m' type='func-type' binding='weak-binding' visibility='default-visibility' is-defined='yes'/>
    <elf-symbol name='_ZNSt12_Vector_baseINSt7__cxx1112basic_stringIcSt11char_traitsIcESaIcEEESaIS5_EE17_Vector_impl_dataC1Ev' type='func-type' binding='weak-binding' visibility='default-visibility' alias='_ZNSt12_Vector_baseINSt7__cxx1112basic_stringIcSt11char_traitsIcESaIcEEESaIS5_EE17_Vector_impl_dataC2Ev' is-defined='yes'/>
    <elf-symbol name='_ZNSt12_Vector_baseINSt7__cxx1112basic_stringIcSt11char_traitsIcESaIcEEESaIS5_EE17_Vector_impl_dataC2Ev' type='func-type' binding='weak-binding' visibility='default-visibility' is-defined='yes'/>
    <elf-symbol name='_ZNSt12_Vector_baseINSt7__cxx1112basic_stringIcSt11char_traitsIcESaIcEEESaIS5_EE19_M_get_Tp_allocatorEv' type='func-type' binding='weak-binding' visibility='default-visibility' is-defined='yes'/>
    <elf-symbol name='_ZNSt12_Vector_baseINSt7__cxx1112basic_stringIcSt11char_traitsIcESaIcEEESaIS5_EEC1ERKS6_' type='func-type' binding='weak-binding' visibility='default-visibility' alias='_ZNSt12_Vector_baseINSt7__cxx1112basic_stringIcSt11char_traitsIcESaIcEEESaIS5_EEC2ERKS6_' is-defined='yes'/>
    <elf-symbol name='_ZNSt12_Vector_baseINSt7__cxx1112basic_stringIcSt11char_traitsIcESaIcEEESaIS5_EEC2ERKS6_' type='func-type' binding='weak-binding' visibility='default-visibility' is-defined='yes'/>
    <elf-symbol name='_ZNSt12_Vector_baseINSt7__cxx1112basic_stringIcSt11char_traitsIcESaIcEEESaIS5_EED1Ev' type='func-type' binding='weak-binding' visibility='default-visibility' alias='_ZNSt12_Vector_baseINSt7__cxx1112basic_stringIcSt11char_traitsIcESaIcEEESaIS5_EED2Ev' is-defined='yes'/>
    <elf-symbol name='_ZNSt12_Vector_baseINSt7__cxx1112basic_stringIcSt11char_traitsIcESaIcEEESaIS5_EED2Ev' type='func-type' binding='weak-binding' visibility='default-visibility' is-defined='yes'/>
    <elf-symbol name='_ZNSt12_Vector_baseIPKcSaIS1_EE11_M_allocateEm' type='func-type' binding='weak-binding' visibility='default-visibility' is-defined='yes'/>
    <elf-symbol name='_ZNSt12_Vector_baseIPKcSaIS1_EE12_Vector_implC1ERKS2_' type='func-type' binding='weak-binding' visibility='default-visibility' is-defined='yes'/>
    <elf-symbol name='_ZNSt12_Vector_baseIPKcSaIS1_EE12_Vector_implC2ERKS2_' type='func-type' binding='weak-binding' visibility='default-visibility' alias='_ZNSt12_Vector_baseIPKcSaIS1_EE12_Vector_implC1ERKS2_' is-defined='yes'/>
    <elf-symbol name='_ZNSt12_Vector_baseIPKcSaIS1_EE13_M_deallocateEPS1_m' type='func-type' binding='weak-binding' visibility='default-visibility' is-defined='yes'/>
    <elf-symbol name='_ZNSt12_Vector_baseIPKcSaIS1_EE17_M_create_storageEm' type='func-type' binding='weak-binding' visibility='default-visibility' is-defined='yes'/>
    <elf-symbol name='_ZNSt12_Vector_baseIPKcSaIS1_EE17_Vector_impl_dataC1Ev' type='func-type' binding='weak-binding' visibility='default-visibility' alias='_ZNSt12_Vector_baseIPKcSaIS1_EE17_Vector_impl_dataC2Ev' is-defined='yes'/>
    <elf-symbol name='_ZNSt12_Vector_baseIPKcSaIS1_EE17_Vector_impl_dataC2Ev' type='func-type' binding='weak-binding' visibility='default-visibility' is-defined='yes'/>
    <elf-symbol name='_ZNSt12_Vector_baseIPKcSaIS1_EE19_M_get_Tp_allocatorEv' type='func-type' binding='weak-binding' visibility='default-visibility' is-defined='yes'/>
    <elf-symbol name='_ZNSt12_Vector_baseIPKcSaIS1_EEC1EmRKS2_' type='func-type' binding='weak-binding' visibility='default-visibility' is-defined='yes'/>
    <elf-symbol name='_ZNSt12_Vector_baseIPKcSaIS1_EEC2EmRKS2_' type='func-type' binding='weak-binding' visibility='default-visibility' alias='_ZNSt12_Vector_baseIPKcSaIS1_EEC1EmRKS2_' is-defined='yes'/>
    <elf-symbol name='_ZNSt12_Vector_baseIPKcSaIS1_EED1Ev' type='func-type' binding='weak-binding' visibility='default-visibility' alias='_ZNSt12_Vector_baseIPKcSaIS1_EED2Ev' is-defined='yes'/>
    <elf-symbol name='_ZNSt12_Vector_baseIPKcSaIS1_EED2Ev' type='func-type' binding='weak-binding' visibility='default-visibility' is-defined='yes'/>
    <elf-symbol name='_ZNSt12_Vector_baseISt8weak_ptrIN10prometheus11CollectableEESaIS3_EE11_M_allocateEm' type='func-type' binding='weak-binding' visibility='default-visibility' is-defined='yes'/>
    <elf-symbol name='_ZNSt12_Vector_baseISt8weak_ptrIN10prometheus11CollectableEESaIS3_EE12_Vector_implC1Ev' type='func-type' binding='weak-binding' visibility='default-visibility' alias='_ZNSt12_Vector_baseISt8weak_ptrIN10prometheus11CollectableEESaIS3_EE12_Vector_implC2Ev' is-defined='yes'/>
    <elf-symbol name='_ZNSt12_Vector_baseISt8weak_ptrIN10prometheus11CollectableEESaIS3_EE12_Vector_implC2Ev' type='func-type' binding='weak-binding' visibility='default-visibility' is-defined='yes'/>
    <elf-symbol name='_ZNSt12_Vector_baseISt8weak_ptrIN10prometheus11CollectableEESaIS3_EE13_M_deallocateEPS3_m' type='func-type' binding='weak-binding' visibility='default-visibility' is-defined='yes'/>
    <elf-symbol name='_ZNSt12_Vector_baseISt8weak_ptrIN10prometheus11CollectableEESaIS3_EE17_Vector_impl_dataC1Ev' type='func-type' binding='weak-binding' visibility='default-visibility' alias='_ZNSt12_Vector_baseISt8weak_ptrIN10prometheus11CollectableEESaIS3_EE17_Vector_impl_dataC2Ev' is-defined='yes'/>
    <elf-symbol name='_ZNSt12_Vector_baseISt8weak_ptrIN10prometheus11CollectableEESaIS3_EE17_Vector_impl_dataC2Ev' type='func-type' binding='weak-binding' visibility='default-visibility' is-defined='yes'/>
    <elf-symbol name='_ZNSt12_Vector_baseISt8weak_ptrIN10prometheus11CollectableEESaIS3_EE19_M_get_Tp_allocatorEv' type='func-type' binding='weak-binding' visibility='default-visibility' is-defined='yes'/>
    <elf-symbol name='_ZNSt12_Vector_baseISt8weak_ptrIN10prometheus11CollectableEESaIS3_EED1Ev' type='func-type' binding='weak-binding' visibility='default-visibility' alias='_ZNSt12_Vector_baseISt8weak_ptrIN10prometheus11CollectableEESaIS3_EED2Ev' is-defined='yes'/>
    <elf-symbol name='_ZNSt12_Vector_baseISt8weak_ptrIN10prometheus11CollectableEESaIS3_EED2Ev' type='func-type' binding='weak-binding' visibility='default-visibility' is-defined='yes'/>
    <elf-symbol name='_ZNSt12_Vector_baseIcSaIcEE11_M_allocateEm' type='func-type' binding='weak-binding' visibility='default-visibility' is-defined='yes'/>
    <elf-symbol name='_ZNSt12_Vector_baseIcSaIcEE12_Vector_implC1ERKS0_' type='func-type' binding='weak-binding' visibility='default-visibility' alias='_ZNSt12_Vector_baseIcSaIcEE12_Vector_implC2ERKS0_' is-defined='yes'/>
    <elf-symbol name='_ZNSt12_Vector_baseIcSaIcEE12_Vector_implC1Ev' type='func-type' binding='weak-binding' visibility='default-visibility' alias='_ZNSt12_Vector_baseIcSaIcEE12_Vector_implC2Ev' is-defined='yes'/>
    <elf-symbol name='_ZNSt12_Vector_baseIcSaIcEE12_Vector_implC2ERKS0_' type='func-type' binding='weak-binding' visibility='default-visibility' is-defined='yes'/>
    <elf-symbol name='_ZNSt12_Vector_baseIcSaIcEE12_Vector_implC2Ev' type='func-type' binding='weak-binding' visibility='default-visibility' is-defined='yes'/>
    <elf-symbol name='_ZNSt12_Vector_baseIcSaIcEE13_M_deallocateEPcm' type='func-type' binding='weak-binding' visibility='default-visibility' is-defined='yes'/>
    <elf-symbol name='_ZNSt12_Vector_baseIcSaIcEE17_M_create_storageEm' type='func-type' binding='weak-binding' visibility='default-visibility' is-defined='yes'/>
    <elf-symbol name='_ZNSt12_Vector_baseIcSaIcEE17_Vector_impl_data12_M_copy_dataERKS2_' type='func-type' binding='weak-binding' visibility='default-visibility' is-defined='yes'/>
    <elf-symbol name='_ZNSt12_Vector_baseIcSaIcEE17_Vector_impl_data12_M_swap_dataERS2_' type='func-type' binding='weak-binding' visibility='default-visibility' is-defined='yes'/>
    <elf-symbol name='_ZNSt12_Vector_baseIcSaIcEE17_Vector_impl_dataC1Ev' type='func-type' binding='weak-binding' visibility='default-visibility' alias='_ZNSt12_Vector_baseIcSaIcEE17_Vector_impl_dataC2Ev' is-defined='yes'/>
    <elf-symbol name='_ZNSt12_Vector_baseIcSaIcEE17_Vector_impl_dataC2Ev' type='func-type' binding='weak-binding' visibility='default-visibility' is-defined='yes'/>
    <elf-symbol name='_ZNSt12_Vector_baseIcSaIcEE19_M_get_Tp_allocatorEv' type='func-type' binding='weak-binding' visibility='default-visibility' is-defined='yes'/>
    <elf-symbol name='_ZNSt12_Vector_baseIcSaIcEEC1ERKS0_' type='func-type' binding='weak-binding' visibility='default-visibility' is-defined='yes'/>
    <elf-symbol name='_ZNSt12_Vector_baseIcSaIcEEC1EmRKS0_' type='func-type' binding='weak-binding' visibility='default-visibility' alias='_ZNSt12_Vector_baseIcSaIcEEC2EmRKS0_' is-defined='yes'/>
    <elf-symbol name='_ZNSt12_Vector_baseIcSaIcEEC2ERKS0_' type='func-type' binding='weak-binding' visibility='default-visibility' alias='_ZNSt12_Vector_baseIcSaIcEEC1ERKS0_' is-defined='yes'/>
    <elf-symbol name='_ZNSt12_Vector_baseIcSaIcEEC2EmRKS0_' type='func-type' binding='weak-binding' visibility='default-visibility' is-defined='yes'/>
    <elf-symbol name='_ZNSt12_Vector_baseIcSaIcEED1Ev' type='func-type' binding='weak-binding' visibility='default-visibility' alias='_ZNSt12_Vector_baseIcSaIcEED2Ev' is-defined='yes'/>
    <elf-symbol name='_ZNSt12_Vector_baseIcSaIcEED2Ev' type='func-type' binding='weak-binding' visibility='default-visibility' is-defined='yes'/>
    <elf-symbol name='_ZNSt12_Vector_baseIhSaIhEE11_M_allocateEm' type='func-type' binding='weak-binding' visibility='default-visibility' is-defined='yes'/>
    <elf-symbol name='_ZNSt12_Vector_baseIhSaIhEE12_Vector_implC1EOS2_' type='func-type' binding='weak-binding' visibility='default-visibility' alias='_ZNSt12_Vector_baseIhSaIhEE12_Vector_implC2EOS2_' is-defined='yes'/>
    <elf-symbol name='_ZNSt12_Vector_baseIhSaIhEE12_Vector_implC1Ev' type='func-type' binding='weak-binding' visibility='default-visibility' alias='_ZNSt12_Vector_baseIhSaIhEE12_Vector_implC2Ev' is-defined='yes'/>
    <elf-symbol name='_ZNSt12_Vector_baseIhSaIhEE12_Vector_implC2EOS2_' type='func-type' binding='weak-binding' visibility='default-visibility' is-defined='yes'/>
    <elf-symbol name='_ZNSt12_Vector_baseIhSaIhEE12_Vector_implC2Ev' type='func-type' binding='weak-binding' visibility='default-visibility' is-defined='yes'/>
    <elf-symbol name='_ZNSt12_Vector_baseIhSaIhEE13_M_deallocateEPhm' type='func-type' binding='weak-binding' visibility='default-visibility' is-defined='yes'/>
    <elf-symbol name='_ZNSt12_Vector_baseIhSaIhEE17_Vector_impl_dataC1EOS2_' type='func-type' binding='weak-binding' visibility='default-visibility' is-defined='yes'/>
    <elf-symbol name='_ZNSt12_Vector_baseIhSaIhEE17_Vector_impl_dataC1Ev' type='func-type' binding='weak-binding' visibility='default-visibility' alias='_ZNSt12_Vector_baseIhSaIhEE17_Vector_impl_dataC2Ev' is-defined='yes'/>
    <elf-symbol name='_ZNSt12_Vector_baseIhSaIhEE17_Vector_impl_dataC2EOS2_' type='func-type' binding='weak-binding' visibility='default-visibility' alias='_ZNSt12_Vector_baseIhSaIhEE17_Vector_impl_dataC1EOS2_' is-defined='yes'/>
    <elf-symbol name='_ZNSt12_Vector_baseIhSaIhEE17_Vector_impl_dataC2Ev' type='func-type' binding='weak-binding' visibility='default-visibility' is-defined='yes'/>
    <elf-symbol name='_ZNSt12_Vector_baseIhSaIhEE19_M_get_Tp_allocatorEv' type='func-type' binding='weak-binding' visibility='default-visibility' is-defined='yes'/>
    <elf-symbol name='_ZNSt12_Vector_baseIhSaIhEED1Ev' type='func-type' binding='weak-binding' visibility='default-visibility' alias='_ZNSt12_Vector_baseIhSaIhEED2Ev' is-defined='yes'/>
    <elf-symbol name='_ZNSt12_Vector_baseIhSaIhEED2Ev' type='func-type' binding='weak-binding' visibility='default-visibility' is-defined='yes'/>
    <elf-symbol name='_ZNSt12_Vector_baseIiSaIiEE11_M_allocateEm' type='func-type' binding='weak-binding' visibility='default-visibility' is-defined='yes'/>
    <elf-symbol name='_ZNSt12_Vector_baseIiSaIiEE12_Vector_implC1ERKS0_' type='func-type' binding='weak-binding' visibility='default-visibility' is-defined='yes'/>
    <elf-symbol name='_ZNSt12_Vector_baseIiSaIiEE12_Vector_implC2ERKS0_' type='func-type' binding='weak-binding' visibility='default-visibility' alias='_ZNSt12_Vector_baseIiSaIiEE12_Vector_implC1ERKS0_' is-defined='yes'/>
    <elf-symbol name='_ZNSt12_Vector_baseIiSaIiEE13_M_deallocateEPim' type='func-type' binding='weak-binding' visibility='default-visibility' is-defined='yes'/>
    <elf-symbol name='_ZNSt12_Vector_baseIiSaIiEE17_M_create_storageEm' type='func-type' binding='weak-binding' visibility='default-visibility' is-defined='yes'/>
    <elf-symbol name='_ZNSt12_Vector_baseIiSaIiEE17_Vector_impl_dataC1Ev' type='func-type' binding='weak-binding' visibility='default-visibility' is-defined='yes'/>
    <elf-symbol name='_ZNSt12_Vector_baseIiSaIiEE17_Vector_impl_dataC2Ev' type='func-type' binding='weak-binding' visibility='default-visibility' alias='_ZNSt12_Vector_baseIiSaIiEE17_Vector_impl_dataC1Ev' is-defined='yes'/>
    <elf-symbol name='_ZNSt12_Vector_baseIiSaIiEE19_M_get_Tp_allocatorEv' type='func-type' binding='weak-binding' visibility='default-visibility' is-defined='yes'/>
    <elf-symbol name='_ZNSt12_Vector_baseIiSaIiEEC1EmRKS0_' type='func-type' binding='weak-binding' visibility='default-visibility' is-defined='yes'/>
    <elf-symbol name='_ZNSt12_Vector_baseIiSaIiEEC2EmRKS0_' type='func-type' binding='weak-binding' visibility='default-visibility' alias='_ZNSt12_Vector_baseIiSaIiEEC1EmRKS0_' is-defined='yes'/>
    <elf-symbol name='_ZNSt12_Vector_baseIiSaIiEED1Ev' type='func-type' binding='weak-binding' visibility='default-visibility' alias='_ZNSt12_Vector_baseIiSaIiEED2Ev' is-defined='yes'/>
    <elf-symbol name='_ZNSt12_Vector_baseIiSaIiEED2Ev' type='func-type' binding='weak-binding' visibility='default-visibility' is-defined='yes'/>
    <elf-symbol name='_ZNSt12__shared_ptrIN10prometheus11CollectableELN9__gnu_cxx12_Lock_policyE2EEC1ERKSt10__weak_ptrIS1_LS3_2EESt9nothrow_t' type='func-type' binding='weak-binding' visibility='default-visibility' is-defined='yes'/>
    <elf-symbol name='_ZNSt12__shared_ptrIN10prometheus11CollectableELN9__gnu_cxx12_Lock_policyE2EEC2ERKSt10__weak_ptrIS1_LS3_2EESt9nothrow_t' type='func-type' binding='weak-binding' visibility='default-visibility' alias='_ZNSt12__shared_ptrIN10prometheus11CollectableELN9__gnu_cxx12_Lock_policyE2EEC1ERKSt10__weak_ptrIS1_LS3_2EESt9nothrow_t' is-defined='yes'/>
    <elf-symbol name='_ZNSt12__shared_ptrIN10prometheus8RegistryELN9__gnu_cxx12_Lock_policyE2EE31_M_enable_shared_from_this_withIS1_S1_EENSt9enable_ifIXntsrNS4_15__has_esft_baseIT0_vEE5valueEvE4typeEPT_' type='func-type' binding='weak-binding' visibility='default-visibility' is-defined='yes'/>
    <elf-symbol name='_ZNSt12__shared_ptrIN10prometheus8RegistryELN9__gnu_cxx12_Lock_policyE2EEC1ISaIS1_EJEEESt20_Sp_alloc_shared_tagIT_EDpOT0_' type='func-type' binding='weak-binding' visibility='default-visibility' alias='_ZNSt12__shared_ptrIN10prometheus8RegistryELN9__gnu_cxx12_Lock_policyE2EEC2ISaIS1_EJEEESt20_Sp_alloc_shared_tagIT_EDpOT0_' is-defined='yes'/>
    <elf-symbol name='_ZNSt12__shared_ptrIN10prometheus8RegistryELN9__gnu_cxx12_Lock_policyE2EEC2ISaIS1_EJEEESt20_Sp_alloc_shared_tagIT_EDpOT0_' type='func-type' binding='weak-binding' visibility='default-visibility' is-defined='yes'/>
    <elf-symbol name='_ZNSt12__weak_countILN9__gnu_cxx12_Lock_policyE2EEC1EOS2_' type='func-type' binding='weak-binding' visibility='default-visibility' is-defined='yes'/>
    <elf-symbol name='_ZNSt12__weak_countILN9__gnu_cxx12_Lock_policyE2EEC1ERKS2_' type='func-type' binding='weak-binding' visibility='default-visibility' alias='_ZNSt12__weak_countILN9__gnu_cxx12_Lock_policyE2EEC2ERKS2_' is-defined='yes'/>
    <elf-symbol name='_ZNSt12__weak_countILN9__gnu_cxx12_Lock_policyE2EEC1ERKSt14__shared_countILS1_2EE' type='func-type' binding='weak-binding' visibility='default-visibility' is-defined='yes'/>
    <elf-symbol name='_ZNSt12__weak_countILN9__gnu_cxx12_Lock_policyE2EEC2EOS2_' type='func-type' binding='weak-binding' visibility='default-visibility' alias='_ZNSt12__weak_countILN9__gnu_cxx12_Lock_policyE2EEC1EOS2_' is-defined='yes'/>
    <elf-symbol name='_ZNSt12__weak_countILN9__gnu_cxx12_Lock_policyE2EEC2ERKS2_' type='func-type' binding='weak-binding' visibility='default-visibility' is-defined='yes'/>
    <elf-symbol name='_ZNSt12__weak_countILN9__gnu_cxx12_Lock_policyE2EEC2ERKSt14__shared_countILS1_2EE' type='func-type' binding='weak-binding' visibility='default-visibility' alias='_ZNSt12__weak_countILN9__gnu_cxx12_Lock_policyE2EEC1ERKSt14__shared_countILS1_2EE' is-defined='yes'/>
    <elf-symbol name='_ZNSt12__weak_countILN9__gnu_cxx12_Lock_policyE2EED1Ev' type='func-type' binding='weak-binding' visibility='default-visibility' is-defined='yes'/>
    <elf-symbol name='_ZNSt12__weak_countILN9__gnu_cxx12_Lock_policyE2EED2Ev' type='func-type' binding='weak-binding' visibility='default-visibility' alias='_ZNSt12__weak_countILN9__gnu_cxx12_Lock_policyE2EED1Ev' is-defined='yes'/>
    <elf-symbol name='_ZNSt12__weak_countILN9__gnu_cxx12_Lock_policyE2EEaSEOS2_' type='func-type' binding='weak-binding' visibility='default-visibility' is-defined='yes'/>
    <elf-symbol name='_ZNSt13_Rb_tree_nodeISt4pairIKNSt7__cxx1112basic_stringIcSt11char_traitsIcESaIcEEES6_EE9_M_valptrEv' type='func-type' binding='weak-binding' visibility='default-visibility' is-defined='yes'/>
    <elf-symbol name='_ZNSt13move_iteratorIN9__gnu_cxx17__normal_iteratorIPN10prometheus12MetricFamilyESt6vectorIS3_SaIS3_EEEEEC1ES8_' type='func-type' binding='weak-binding' visibility='default-visibility' alias='_ZNSt13move_iteratorIN9__gnu_cxx17__normal_iteratorIPN10prometheus12MetricFamilyESt6vectorIS3_SaIS3_EEEEEC2ES8_' is-defined='yes'/>
    <elf-symbol name='_ZNSt13move_iteratorIN9__gnu_cxx17__normal_iteratorIPN10prometheus12MetricFamilyESt6vectorIS3_SaIS3_EEEEEC2ES8_' type='func-type' binding='weak-binding' visibility='default-visibility' is-defined='yes'/>
    <elf-symbol name='_ZNSt13move_iteratorIN9__gnu_cxx17__normal_iteratorIPN10prometheus12MetricFamilyESt6vectorIS3_SaIS3_EEEEEpLEl' type='func-type' binding='weak-binding' visibility='default-visibility' is-defined='yes'/>
    <elf-symbol name='_ZNSt13move_iteratorIN9__gnu_cxx17__normal_iteratorIPN10prometheus12MetricFamilyESt6vectorIS3_SaIS3_EEEEEppEv' type='func-type' binding='weak-binding' visibility='default-visibility' is-defined='yes'/>
    <elf-symbol name='_ZNSt13move_iteratorIPN10prometheus12MetricFamilyEEC1ES2_' type='func-type' binding='weak-binding' visibility='default-visibility' alias='_ZNSt13move_iteratorIPN10prometheus12MetricFamilyEEC2ES2_' is-defined='yes'/>
    <elf-symbol name='_ZNSt13move_iteratorIPN10prometheus12MetricFamilyEEC2ES2_' type='func-type' binding='weak-binding' visibility='default-visibility' is-defined='yes'/>
    <elf-symbol name='_ZNSt13move_iteratorIPN10prometheus12MetricFamilyEEppEv' type='func-type' binding='weak-binding' visibility='default-visibility' is-defined='yes'/>
    <elf-symbol name='_ZNSt13move_iteratorIPSt8weak_ptrIN10prometheus11CollectableEEEC1ES4_' type='func-type' binding='weak-binding' visibility='default-visibility' alias='_ZNSt13move_iteratorIPSt8weak_ptrIN10prometheus11CollectableEEEC2ES4_' is-defined='yes'/>
    <elf-symbol name='_ZNSt13move_iteratorIPSt8weak_ptrIN10prometheus11CollectableEEEC2ES4_' type='func-type' binding='weak-binding' visibility='default-visibility' is-defined='yes'/>
    <elf-symbol name='_ZNSt13move_iteratorIPSt8weak_ptrIN10prometheus11CollectableEEEppEv' type='func-type' binding='weak-binding' visibility='default-visibility' is-defined='yes'/>
    <elf-symbol name='_ZNSt13move_iteratorIPcEC1ES0_' type='func-type' binding='weak-binding' visibility='default-visibility' alias='_ZNSt13move_iteratorIPcEC2ES0_' is-defined='yes'/>
    <elf-symbol name='_ZNSt13move_iteratorIPcEC2ES0_' type='func-type' binding='weak-binding' visibility='default-visibility' is-defined='yes'/>
    <elf-symbol name='_ZNSt13move_iteratorIPhEC1ES0_' type='func-type' binding='weak-binding' visibility='default-visibility' alias='_ZNSt13move_iteratorIPhEC2ES0_' is-defined='yes'/>
    <elf-symbol name='_ZNSt13move_iteratorIPhEC2ES0_' type='func-type' binding='weak-binding' visibility='default-visibility' is-defined='yes'/>
    <elf-symbol name='_ZNSt14_Sp_ebo_helperILi0ESaIN10prometheus8RegistryEELb1EE6_S_getERS3_' type='func-type' binding='weak-binding' visibility='default-visibility' is-defined='yes'/>
    <elf-symbol name='_ZNSt14_Sp_ebo_helperILi0ESaIN10prometheus8RegistryEELb1EEC1ERKS2_' type='func-type' binding='weak-binding' visibility='default-visibility' is-defined='yes'/>
    <elf-symbol name='_ZNSt14_Sp_ebo_helperILi0ESaIN10prometheus8RegistryEELb1EEC2ERKS2_' type='func-type' binding='weak-binding' visibility='default-visibility' alias='_ZNSt14_Sp_ebo_helperILi0ESaIN10prometheus8RegistryEELb1EEC1ERKS2_' is-defined='yes'/>
    <elf-symbol name='_ZNSt14__shared_countILN9__gnu_cxx12_Lock_policyE2EEC1ERKSt12__weak_countILS1_2EESt9nothrow_t' type='func-type' binding='weak-binding' visibility='default-visibility' alias='_ZNSt14__shared_countILN9__gnu_cxx12_Lock_policyE2EEC2ERKSt12__weak_countILS1_2EESt9nothrow_t' is-defined='yes'/>
    <elf-symbol name='_ZNSt14__shared_countILN9__gnu_cxx12_Lock_policyE2EEC1IN10prometheus8RegistryESaIS5_EJEEERPT_St20_Sp_alloc_shared_tagIT0_EDpOT1_' type='func-type' binding='weak-binding' visibility='default-visibility' alias='_ZNSt14__shared_countILN9__gnu_cxx12_Lock_policyE2EEC2IN10prometheus8RegistryESaIS5_EJEEERPT_St20_Sp_alloc_shared_tagIT0_EDpOT1_' is-defined='yes'/>
    <elf-symbol name='_ZNSt14__shared_countILN9__gnu_cxx12_Lock_policyE2EEC2ERKSt12__weak_countILS1_2EESt9nothrow_t' type='func-type' binding='weak-binding' visibility='default-visibility' is-defined='yes'/>
    <elf-symbol name='_ZNSt14__shared_countILN9__gnu_cxx12_Lock_policyE2EEC2IN10prometheus8RegistryESaIS5_EJEEERPT_St20_Sp_alloc_shared_tagIT0_EDpOT1_' type='func-type' binding='weak-binding' visibility='default-visibility' is-defined='yes'/>
    <elf-symbol name='_ZNSt14__shared_countILN9__gnu_cxx12_Lock_policyE2EED1Ev' type='func-type' binding='weak-binding' visibility='default-visibility' alias='_ZNSt14__shared_countILN9__gnu_cxx12_Lock_policyE2EED2Ev' is-defined='yes'/>
    <elf-symbol name='_ZNSt14__shared_countILN9__gnu_cxx12_Lock_policyE2EED2Ev' type='func-type' binding='weak-binding' visibility='default-visibility' is-defined='yes'/>
    <elf-symbol name='_ZNSt15__allocated_ptrISaISt23_Sp_counted_ptr_inplaceIN10prometheus8RegistryESaIS2_ELN9__gnu_cxx12_Lock_policyE2EEEE3getEv' type='func-type' binding='weak-binding' visibility='default-visibility' is-defined='yes'/>
    <elf-symbol name='_ZNSt15__allocated_ptrISaISt23_Sp_counted_ptr_inplaceIN10prometheus8RegistryESaIS2_ELN9__gnu_cxx12_Lock_policyE2EEEEC1ERS7_PS6_' type='func-type' binding='weak-binding' visibility='default-visibility' is-defined='yes'/>
    <elf-symbol name='_ZNSt15__allocated_ptrISaISt23_Sp_counted_ptr_inplaceIN10prometheus8RegistryESaIS2_ELN9__gnu_cxx12_Lock_policyE2EEEEC2ERS7_PS6_' type='func-type' binding='weak-binding' visibility='default-visibility' alias='_ZNSt15__allocated_ptrISaISt23_Sp_counted_ptr_inplaceIN10prometheus8RegistryESaIS2_ELN9__gnu_cxx12_Lock_policyE2EEEEC1ERS7_PS6_' is-defined='yes'/>
    <elf-symbol name='_ZNSt15__allocated_ptrISaISt23_Sp_counted_ptr_inplaceIN10prometheus8RegistryESaIS2_ELN9__gnu_cxx12_Lock_policyE2EEEED1Ev' type='func-type' binding='weak-binding' visibility='default-visibility' alias='_ZNSt15__allocated_ptrISaISt23_Sp_counted_ptr_inplaceIN10prometheus8RegistryESaIS2_ELN9__gnu_cxx12_Lock_policyE2EEEED2Ev' is-defined='yes'/>
    <elf-symbol name='_ZNSt15__allocated_ptrISaISt23_Sp_counted_ptr_inplaceIN10prometheus8RegistryESaIS2_ELN9__gnu_cxx12_Lock_policyE2EEEED2Ev' type='func-type' binding='weak-binding' visibility='default-visibility' is-defined='yes'/>
    <elf-symbol name='_ZNSt15__allocated_ptrISaISt23_Sp_counted_ptr_inplaceIN10prometheus8RegistryESaIS2_ELN9__gnu_cxx12_Lock_policyE2EEEEaSEDn' type='func-type' binding='weak-binding' visibility='default-visibility' is-defined='yes'/>
    <elf-symbol name='_ZNSt15__uniq_ptr_implIN10prometheus10SerializerESt14default_deleteIS1_EE10_M_deleterEv' type='func-type' binding='weak-binding' visibility='default-visibility' is-defined='yes'/>
    <elf-symbol name='_ZNSt15__uniq_ptr_implIN10prometheus10SerializerESt14default_deleteIS1_EE6_M_ptrEv' type='func-type' binding='weak-binding' visibility='default-visibility' is-defined='yes'/>
    <elf-symbol name='_ZNSt15__uniq_ptr_implIN10prometheus10SerializerESt14default_deleteIS1_EEC1EPS1_' type='func-type' binding='weak-binding' visibility='default-visibility' is-defined='yes'/>
    <elf-symbol name='_ZNSt15__uniq_ptr_implIN10prometheus10SerializerESt14default_deleteIS1_EEC2EPS1_' type='func-type' binding='weak-binding' visibility='default-visibility' alias='_ZNSt15__uniq_ptr_implIN10prometheus10SerializerESt14default_deleteIS1_EEC1EPS1_' is-defined='yes'/>
    <elf-symbol name='_ZNSt15__uniq_ptr_implIN10prometheus7CounterESt14default_deleteIS1_EE10_M_deleterEv' type='func-type' binding='weak-binding' visibility='default-visibility' is-defined='yes'/>
    <elf-symbol name='_ZNSt15__uniq_ptr_implIN10prometheus7CounterESt14default_deleteIS1_EE6_M_ptrEv' type='func-type' binding='weak-binding' visibility='default-visibility' is-defined='yes'/>
    <elf-symbol name='_ZNSt15__uniq_ptr_implIN10prometheus7CounterESt14default_deleteIS1_EEC1EPS1_' type='func-type' binding='weak-binding' visibility='default-visibility' is-defined='yes'/>
    <elf-symbol name='_ZNSt15__uniq_ptr_implIN10prometheus7CounterESt14default_deleteIS1_EEC2EPS1_' type='func-type' binding='weak-binding' visibility='default-visibility' alias='_ZNSt15__uniq_ptr_implIN10prometheus7CounterESt14default_deleteIS1_EEC1EPS1_' is-defined='yes'/>
    <elf-symbol name='_ZNSt15__uniq_ptr_implIN10prometheus7SummaryESt14default_deleteIS1_EE10_M_deleterEv' type='func-type' binding='weak-binding' visibility='default-visibility' is-defined='yes'/>
    <elf-symbol name='_ZNSt15__uniq_ptr_implIN10prometheus7SummaryESt14default_deleteIS1_EE6_M_ptrEv' type='func-type' binding='weak-binding' visibility='default-visibility' is-defined='yes'/>
    <elf-symbol name='_ZNSt15__uniq_ptr_implIN10prometheus7SummaryESt14default_deleteIS1_EEC1EPS1_' type='func-type' binding='weak-binding' visibility='default-visibility' alias='_ZNSt15__uniq_ptr_implIN10prometheus7SummaryESt14default_deleteIS1_EEC2EPS1_' is-defined='yes'/>
    <elf-symbol name='_ZNSt15__uniq_ptr_implIN10prometheus7SummaryESt14default_deleteIS1_EEC2EPS1_' type='func-type' binding='weak-binding' visibility='default-visibility' is-defined='yes'/>
    <elf-symbol name='_ZNSt16_Sp_counted_baseILN9__gnu_cxx12_Lock_policyE2EE10_M_destroyEv' type='func-type' binding='weak-binding' visibility='default-visibility' is-defined='yes'/>
    <elf-symbol name='_ZNSt16_Sp_counted_baseILN9__gnu_cxx12_Lock_policyE2EE10_M_releaseEv' type='func-type' binding='weak-binding' visibility='default-visibility' is-defined='yes'/>
    <elf-symbol name='_ZNSt16_Sp_counted_baseILN9__gnu_cxx12_Lock_policyE2EE15_M_weak_add_refEv' type='func-type' binding='weak-binding' visibility='default-visibility' is-defined='yes'/>
    <elf-symbol name='_ZNSt16_Sp_counted_baseILN9__gnu_cxx12_Lock_policyE2EE15_M_weak_releaseEv' type='func-type' binding='weak-binding' visibility='default-visibility' is-defined='yes'/>
    <elf-symbol name='_ZNSt16_Sp_counted_baseILN9__gnu_cxx12_Lock_policyE2EEC1Ev' type='func-type' binding='weak-binding' visibility='default-visibility' alias='_ZNSt16_Sp_counted_baseILN9__gnu_cxx12_Lock_policyE2EEC2Ev' is-defined='yes'/>
    <elf-symbol name='_ZNSt16_Sp_counted_baseILN9__gnu_cxx12_Lock_policyE2EEC2Ev' type='func-type' binding='weak-binding' visibility='default-visibility' is-defined='yes'/>
    <elf-symbol name='_ZNSt16_Sp_counted_baseILN9__gnu_cxx12_Lock_policyE2EED0Ev' type='func-type' binding='weak-binding' visibility='default-visibility' is-defined='yes'/>
    <elf-symbol name='_ZNSt16_Sp_counted_baseILN9__gnu_cxx12_Lock_policyE2EED1Ev' type='func-type' binding='weak-binding' visibility='default-visibility' alias='_ZNSt16_Sp_counted_baseILN9__gnu_cxx12_Lock_policyE2EED2Ev' is-defined='yes'/>
    <elf-symbol name='_ZNSt16_Sp_counted_baseILN9__gnu_cxx12_Lock_policyE2EED2Ev' type='func-type' binding='weak-binding' visibility='default-visibility' is-defined='yes'/>
    <elf-symbol name='_ZNSt16allocator_traitsISaIN10prometheus12ClientMetric5LabelEEE10deallocateERS3_PS2_m' type='func-type' binding='weak-binding' visibility='default-visibility' is-defined='yes'/>
    <elf-symbol name='_ZNSt16allocator_traitsISaIN10prometheus12ClientMetric6BucketEEE10deallocateERS3_PS2_m' type='func-type' binding='weak-binding' visibility='default-visibility' is-defined='yes'/>
    <elf-symbol name='_ZNSt16allocator_traitsISaIN10prometheus12ClientMetric8QuantileEEE10deallocateERS3_PS2_m' type='func-type' binding='weak-binding' visibility='default-visibility' is-defined='yes'/>
    <elf-symbol name='_ZNSt16allocator_traitsISaIN10prometheus12ClientMetricEEE10deallocateERS2_PS1_m' type='func-type' binding='weak-binding' visibility='default-visibility' is-defined='yes'/>
    <elf-symbol name='_ZNSt16allocator_traitsISaIN10prometheus12MetricFamilyEEE10deallocateERS2_PS1_m' type='func-type' binding='weak-binding' visibility='default-visibility' is-defined='yes'/>
    <elf-symbol name='_ZNSt16allocator_traitsISaIN10prometheus12MetricFamilyEEE8allocateERS2_m' type='func-type' binding='weak-binding' visibility='default-visibility' is-defined='yes'/>
    <elf-symbol name='_ZNSt16allocator_traitsISaIN10prometheus12MetricFamilyEEE8max_sizeERKS2_' type='func-type' binding='weak-binding' visibility='default-visibility' is-defined='yes'/>
    <elf-symbol name='_ZNSt16allocator_traitsISaIN10prometheus6detail13CKMSQuantiles4ItemEEE10deallocateERS4_PS3_m' type='func-type' binding='weak-binding' visibility='default-visibility' is-defined='yes'/>
    <elf-symbol name='_ZNSt16allocator_traitsISaIN10prometheus6detail13CKMSQuantiles8QuantileEEE10deallocateERS4_PS3_m' type='func-type' binding='weak-binding' visibility='default-visibility' is-defined='yes'/>
    <elf-symbol name='_ZNSt16allocator_traitsISaIN10prometheus6detail13CKMSQuantiles8QuantileEEE8allocateERS4_m' type='func-type' binding='weak-binding' visibility='default-visibility' is-defined='yes'/>
    <elf-symbol name='_ZNSt16allocator_traitsISaIN10prometheus6detail13CKMSQuantiles8QuantileEEE8max_sizeERKS4_' type='func-type' binding='weak-binding' visibility='default-visibility' is-defined='yes'/>
    <elf-symbol name='_ZNSt16allocator_traitsISaIN10prometheus6detail13CKMSQuantilesEEE10deallocateERS3_PS2_m' type='func-type' binding='weak-binding' visibility='default-visibility' is-defined='yes'/>
    <elf-symbol name='_ZNSt16allocator_traitsISaIN10prometheus8RegistryEEE7destroyIS1_EEvRS2_PT_' type='func-type' binding='weak-binding' visibility='default-visibility' is-defined='yes'/>
    <elf-symbol name='_ZNSt16allocator_traitsISaIN10prometheus8RegistryEEE9constructIS1_JEEEvRS2_PT_DpOT0_' type='func-type' binding='weak-binding' visibility='default-visibility' is-defined='yes'/>
    <elf-symbol name='_ZNSt16allocator_traitsISaINSt7__cxx1112basic_stringIcSt11char_traitsIcESaIcEEEEE10deallocateERS6_PS5_m' type='func-type' binding='weak-binding' visibility='default-visibility' is-defined='yes'/>
    <elf-symbol name='_ZNSt16allocator_traitsISaINSt7__cxx1112basic_stringIcSt11char_traitsIcESaIcEEEEE8allocateERS6_m' type='func-type' binding='weak-binding' visibility='default-visibility' is-defined='yes'/>
    <elf-symbol name='_ZNSt16allocator_traitsISaINSt7__cxx1112basic_stringIcSt11char_traitsIcESaIcEEEEE8max_sizeERKS6_' type='func-type' binding='weak-binding' visibility='default-visibility' is-defined='yes'/>
    <elf-symbol name='_ZNSt16allocator_traitsISaIPKcEE10deallocateERS2_PS1_m' type='func-type' binding='weak-binding' visibility='default-visibility' is-defined='yes'/>
    <elf-symbol name='_ZNSt16allocator_traitsISaIPKcEE8allocateERS2_m' type='func-type' binding='weak-binding' visibility='default-visibility' is-defined='yes'/>
    <elf-symbol name='_ZNSt16allocator_traitsISaIPKcEE8max_sizeERKS2_' type='func-type' binding='weak-binding' visibility='default-visibility' is-defined='yes'/>
    <elf-symbol name='_ZNSt16allocator_traitsISaISt13_Rb_tree_nodeISt4pairIKNSt7__cxx1112basic_stringIcSt11char_traitsIcESaIcEEES7_EEEE10deallocateERSB_PSA_m' type='func-type' binding='weak-binding' visibility='default-visibility' is-defined='yes'/>
    <elf-symbol name='_ZNSt16allocator_traitsISaISt13_Rb_tree_nodeISt4pairIKNSt7__cxx1112basic_stringIcSt11char_traitsIcESaIcEEES7_EEEE7destroyIS9_EEvRSB_PT_' type='func-type' binding='weak-binding' visibility='default-visibility' is-defined='yes'/>
    <elf-symbol name='_ZNSt16allocator_traitsISaISt23_Sp_counted_ptr_inplaceIN10prometheus8RegistryESaIS2_ELN9__gnu_cxx12_Lock_policyE2EEEE10deallocateERS7_PS6_m' type='func-type' binding='weak-binding' visibility='default-visibility' is-defined='yes'/>
    <elf-symbol name='_ZNSt16allocator_traitsISaISt23_Sp_counted_ptr_inplaceIN10prometheus8RegistryESaIS2_ELN9__gnu_cxx12_Lock_policyE2EEEE8allocateERS7_m' type='func-type' binding='weak-binding' visibility='default-visibility' is-defined='yes'/>
    <elf-symbol name='_ZNSt16allocator_traitsISaISt8weak_ptrIN10prometheus11CollectableEEEE10deallocateERS4_PS3_m' type='func-type' binding='weak-binding' visibility='default-visibility' is-defined='yes'/>
    <elf-symbol name='_ZNSt16allocator_traitsISaISt8weak_ptrIN10prometheus11CollectableEEEE7destroyIS3_EEvRS4_PT_' type='func-type' binding='weak-binding' visibility='default-visibility' is-defined='yes'/>
    <elf-symbol name='_ZNSt16allocator_traitsISaISt8weak_ptrIN10prometheus11CollectableEEEE8allocateERS4_m' type='func-type' binding='weak-binding' visibility='default-visibility' is-defined='yes'/>
    <elf-symbol name='_ZNSt16allocator_traitsISaISt8weak_ptrIN10prometheus11CollectableEEEE8max_sizeERKS4_' type='func-type' binding='weak-binding' visibility='default-visibility' is-defined='yes'/>
    <elf-symbol name='_ZNSt16allocator_traitsISaISt8weak_ptrIN10prometheus11CollectableEEEE9constructIS3_JRKS3_EEEvRS4_PT_DpOT0_' type='func-type' binding='weak-binding' visibility='default-visibility' is-defined='yes'/>
    <elf-symbol name='_ZNSt16allocator_traitsISaISt8weak_ptrIN10prometheus11CollectableEEEE9constructIS3_JS3_EEEvRS4_PT_DpOT0_' type='func-type' binding='weak-binding' visibility='default-visibility' is-defined='yes'/>
    <elf-symbol name='_ZNSt16allocator_traitsISaIcEE10deallocateERS0_Pcm' type='func-type' binding='weak-binding' visibility='default-visibility' is-defined='yes'/>
    <elf-symbol name='_ZNSt16allocator_traitsISaIcEE7destroyIcEEvRS0_PT_' type='func-type' binding='weak-binding' visibility='default-visibility' is-defined='yes'/>
    <elf-symbol name='_ZNSt16allocator_traitsISaIcEE8allocateERS0_m' type='func-type' binding='weak-binding' visibility='default-visibility' is-defined='yes'/>
    <elf-symbol name='_ZNSt16allocator_traitsISaIcEE8max_sizeERKS0_' type='func-type' binding='weak-binding' visibility='default-visibility' is-defined='yes'/>
    <elf-symbol name='_ZNSt16allocator_traitsISaIcEE9constructIcJcEEEvRS0_PT_DpOT0_' type='func-type' binding='weak-binding' visibility='default-visibility' is-defined='yes'/>
    <elf-symbol name='_ZNSt16allocator_traitsISaIhEE10deallocateERS0_Phm' type='func-type' binding='weak-binding' visibility='default-visibility' is-defined='yes'/>
    <elf-symbol name='_ZNSt16allocator_traitsISaIhEE8allocateERS0_m' type='func-type' binding='weak-binding' visibility='default-visibility' is-defined='yes'/>
    <elf-symbol name='_ZNSt16allocator_traitsISaIhEE8max_sizeERKS0_' type='func-type' binding='weak-binding' visibility='default-visibility' is-defined='yes'/>
    <elf-symbol name='_ZNSt16allocator_traitsISaIiEE10deallocateERS0_Pim' type='func-type' binding='weak-binding' visibility='default-visibility' is-defined='yes'/>
    <elf-symbol name='_ZNSt16allocator_traitsISaIiEE8allocateERS0_m' type='func-type' binding='weak-binding' visibility='default-visibility' is-defined='yes'/>
    <elf-symbol name='_ZNSt16allocator_traitsISaIiEE8max_sizeERKS0_' type='func-type' binding='weak-binding' visibility='default-visibility' is-defined='yes'/>
    <elf-symbol name='_ZNSt19_Sp_make_shared_tag5_S_tiEv' type='func-type' binding='weak-binding' visibility='default-visibility' is-defined='yes'/>
    <elf-symbol name='_ZNSt20_Rb_tree_key_compareISt4lessINSt7__cxx1112basic_stringIcSt11char_traitsIcESaIcEEEEEC1Ev' type='func-type' binding='weak-binding' visibility='default-visibility' alias='_ZNSt20_Rb_tree_key_compareISt4lessINSt7__cxx1112basic_stringIcSt11char_traitsIcESaIcEEEEEC2Ev' is-defined='yes'/>
    <elf-symbol name='_ZNSt20_Rb_tree_key_compareISt4lessINSt7__cxx1112basic_stringIcSt11char_traitsIcESaIcEEEEEC2Ev' type='func-type' binding='weak-binding' visibility='default-visibility' is-defined='yes'/>
    <elf-symbol name='_ZNSt20__copy_move_backwardILb1ELb0ESt26random_access_iterator_tagE13__copy_move_bIPN10prometheus12MetricFamilyES5_EET0_T_S7_S6_' type='func-type' binding='weak-binding' visibility='default-visibility' is-defined='yes'/>
    <elf-symbol name='_ZNSt20__copy_move_backwardILb1ELb1ESt26random_access_iterator_tagE13__copy_move_bIcEEPT_PKS3_S6_S4_' type='func-type' binding='weak-binding' visibility='default-visibility' is-defined='yes'/>
    <elf-symbol name='_ZNSt20__uninitialized_copyILb0EE13__uninit_copyIPKN10prometheus6detail13CKMSQuantiles8QuantileEPS5_EET0_T_SA_S9_' type='func-type' binding='weak-binding' visibility='default-visibility' is-defined='yes'/>
    <elf-symbol name='_ZNSt20__uninitialized_copyILb0EE13__uninit_copyIPKNSt7__cxx1112basic_stringIcSt11char_traitsIcESaIcEEEPS7_EET0_T_SC_SB_' type='func-type' binding='weak-binding' visibility='default-visibility' is-defined='yes'/>
    <elf-symbol name='_ZNSt20__uninitialized_copyILb0EE13__uninit_copyISt13move_iteratorIN9__gnu_cxx17__normal_iteratorIPN10prometheus12MetricFamilyESt6vectorIS6_SaIS6_EEEEES7_EET0_T_SE_SD_' type='func-type' binding='weak-binding' visibility='default-visibility' is-defined='yes'/>
    <elf-symbol name='_ZNSt20__uninitialized_copyILb0EE13__uninit_copyISt13move_iteratorIPN10prometheus12MetricFamilyEES5_EET0_T_S8_S7_' type='func-type' binding='weak-binding' visibility='default-visibility' is-defined='yes'/>
    <elf-symbol name='_ZNSt20__uninitialized_copyILb0EE13__uninit_copyISt13move_iteratorIPSt8weak_ptrIN10prometheus11CollectableEEES7_EET0_T_SA_S9_' type='func-type' binding='weak-binding' visibility='default-visibility' is-defined='yes'/>
    <elf-symbol name='_ZNSt20__uninitialized_copyILb1EE13__uninit_copyIPcS2_EET0_T_S4_S3_' type='func-type' binding='weak-binding' visibility='default-visibility' is-defined='yes'/>
    <elf-symbol name='_ZNSt20__uninitialized_copyILb1EE13__uninit_copyISt13move_iteratorIPcES3_EET0_T_S6_S5_' type='func-type' binding='weak-binding' visibility='default-visibility' is-defined='yes'/>
    <elf-symbol name='_ZNSt20__uninitialized_copyILb1EE13__uninit_copyISt13move_iteratorIPhES3_EET0_T_S6_S5_' type='func-type' binding='weak-binding' visibility='default-visibility' is-defined='yes'/>
    <elf-symbol name='_ZNSt22__uninitialized_fill_nILb1EE15__uninit_fill_nIPcmcEET_S3_T0_RKT1_' type='func-type' binding='weak-binding' visibility='default-visibility' is-defined='yes'/>
    <elf-symbol name='_ZNSt23_Sp_counted_ptr_inplaceIN10prometheus8RegistryESaIS1_ELN9__gnu_cxx12_Lock_policyE2EE10_M_destroyEv' type='func-type' binding='weak-binding' visibility='default-visibility' is-defined='yes'/>
    <elf-symbol name='_ZNSt23_Sp_counted_ptr_inplaceIN10prometheus8RegistryESaIS1_ELN9__gnu_cxx12_Lock_policyE2EE10_M_disposeEv' type='func-type' binding='weak-binding' visibility='default-visibility' is-defined='yes'/>
    <elf-symbol name='_ZNSt23_Sp_counted_ptr_inplaceIN10prometheus8RegistryESaIS1_ELN9__gnu_cxx12_Lock_policyE2EE14_M_get_deleterERKSt9type_info' type='func-type' binding='weak-binding' visibility='default-visibility' is-defined='yes'/>
    <elf-symbol name='_ZNSt23_Sp_counted_ptr_inplaceIN10prometheus8RegistryESaIS1_ELN9__gnu_cxx12_Lock_policyE2EE5_Impl8_M_allocEv' type='func-type' binding='weak-binding' visibility='default-visibility' is-defined='yes'/>
    <elf-symbol name='_ZNSt23_Sp_counted_ptr_inplaceIN10prometheus8RegistryESaIS1_ELN9__gnu_cxx12_Lock_policyE2EE5_ImplC1ES2_' type='func-type' binding='weak-binding' visibility='default-visibility' is-defined='yes'/>
    <elf-symbol name='_ZNSt23_Sp_counted_ptr_inplaceIN10prometheus8RegistryESaIS1_ELN9__gnu_cxx12_Lock_policyE2EE5_ImplC2ES2_' type='func-type' binding='weak-binding' visibility='default-visibility' alias='_ZNSt23_Sp_counted_ptr_inplaceIN10prometheus8RegistryESaIS1_ELN9__gnu_cxx12_Lock_policyE2EE5_ImplC1ES2_' is-defined='yes'/>
    <elf-symbol name='_ZNSt23_Sp_counted_ptr_inplaceIN10prometheus8RegistryESaIS1_ELN9__gnu_cxx12_Lock_policyE2EE6_M_ptrEv' type='func-type' binding='weak-binding' visibility='default-visibility' is-defined='yes'/>
    <elf-symbol name='_ZNSt23_Sp_counted_ptr_inplaceIN10prometheus8RegistryESaIS1_ELN9__gnu_cxx12_Lock_policyE2EEC1IJEEES2_DpOT_' type='func-type' binding='weak-binding' visibility='default-visibility' alias='_ZNSt23_Sp_counted_ptr_inplaceIN10prometheus8RegistryESaIS1_ELN9__gnu_cxx12_Lock_policyE2EEC2IJEEES2_DpOT_' is-defined='yes'/>
    <elf-symbol name='_ZNSt23_Sp_counted_ptr_inplaceIN10prometheus8RegistryESaIS1_ELN9__gnu_cxx12_Lock_policyE2EEC2IJEEES2_DpOT_' type='func-type' binding='weak-binding' visibility='default-visibility' is-defined='yes'/>
    <elf-symbol name='_ZNSt23_Sp_counted_ptr_inplaceIN10prometheus8RegistryESaIS1_ELN9__gnu_cxx12_Lock_policyE2EED0Ev' type='func-type' binding='weak-binding' visibility='default-visibility' is-defined='yes'/>
    <elf-symbol name='_ZNSt23_Sp_counted_ptr_inplaceIN10prometheus8RegistryESaIS1_ELN9__gnu_cxx12_Lock_policyE2EED1Ev' type='func-type' binding='weak-binding' visibility='default-visibility' alias='_ZNSt23_Sp_counted_ptr_inplaceIN10prometheus8RegistryESaIS1_ELN9__gnu_cxx12_Lock_policyE2EED2Ev' is-defined='yes'/>
    <elf-symbol name='_ZNSt23_Sp_counted_ptr_inplaceIN10prometheus8RegistryESaIS1_ELN9__gnu_cxx12_Lock_policyE2EED2Ev' type='func-type' binding='weak-binding' visibility='default-visibility' is-defined='yes'/>
    <elf-symbol name='_ZNSt27__uninitialized_default_n_1ILb1EE18__uninit_default_nIPPKcmEET_S5_T0_' type='func-type' binding='weak-binding' visibility='default-visibility' is-defined='yes'/>
    <elf-symbol name='_ZNSt27__uninitialized_default_n_1ILb1EE18__uninit_default_nIPcmEET_S3_T0_' type='func-type' binding='weak-binding' visibility='default-visibility' is-defined='yes'/>
    <elf-symbol name='_ZNSt27__uninitialized_default_n_1ILb1EE18__uninit_default_nIPhmEET_S3_T0_' type='func-type' binding='weak-binding' visibility='default-visibility' is-defined='yes'/>
    <elf-symbol name='_ZNSt27__uninitialized_default_n_1ILb1EE18__uninit_default_nIPimEET_S3_T0_' type='func-type' binding='weak-binding' visibility='default-visibility' is-defined='yes'/>
    <elf-symbol name='_ZNSt4pairIPSt18_Rb_tree_node_baseS1_EC1IRS1_Lb1EEEOT_RKS1_' type='func-type' binding='weak-binding' visibility='default-visibility' is-defined='yes'/>
    <elf-symbol name='_ZNSt4pairIPSt18_Rb_tree_node_baseS1_EC1IRS1_Lb1EEERKS1_OT_' type='func-type' binding='weak-binding' visibility='default-visibility' alias='_ZNSt4pairIPSt18_Rb_tree_node_baseS1_EC2IRS1_Lb1EEERKS1_OT_' is-defined='yes'/>
    <elf-symbol name='_ZNSt4pairIPSt18_Rb_tree_node_baseS1_EC1IRS1_S4_Lb1EEEOT_OT0_' type='func-type' binding='weak-binding' visibility='default-visibility' alias='_ZNSt4pairIPSt18_Rb_tree_node_baseS1_EC2IRS1_S4_Lb1EEEOT_OT0_' is-defined='yes'/>
    <elf-symbol name='_ZNSt4pairIPSt18_Rb_tree_node_baseS1_EC2IRS1_Lb1EEEOT_RKS1_' type='func-type' binding='weak-binding' visibility='default-visibility' alias='_ZNSt4pairIPSt18_Rb_tree_node_baseS1_EC1IRS1_Lb1EEEOT_RKS1_' is-defined='yes'/>
    <elf-symbol name='_ZNSt4pairIPSt18_Rb_tree_node_baseS1_EC2IRS1_Lb1EEERKS1_OT_' type='func-type' binding='weak-binding' visibility='default-visibility' is-defined='yes'/>
    <elf-symbol name='_ZNSt4pairIPSt18_Rb_tree_node_baseS1_EC2IRS1_S4_Lb1EEEOT_OT0_' type='func-type' binding='weak-binding' visibility='default-visibility' is-defined='yes'/>
    <elf-symbol name='_ZNSt5tupleIJPN10prometheus10SerializerESt14default_deleteIS1_EEEC1IS2_S4_Lb1EEEv' type='func-type' binding='weak-binding' visibility='default-visibility' is-defined='yes'/>
    <elf-symbol name='_ZNSt5tupleIJPN10prometheus10SerializerESt14default_deleteIS1_EEEC2IS2_S4_Lb1EEEv' type='func-type' binding='weak-binding' visibility='default-visibility' alias='_ZNSt5tupleIJPN10prometheus10SerializerESt14default_deleteIS1_EEEC1IS2_S4_Lb1EEEv' is-defined='yes'/>
    <elf-symbol name='_ZNSt5tupleIJPN10prometheus7CounterESt14default_deleteIS1_EEEC1IS2_S4_Lb1EEEv' type='func-type' binding='weak-binding' visibility='default-visibility' is-defined='yes'/>
    <elf-symbol name='_ZNSt5tupleIJPN10prometheus7CounterESt14default_deleteIS1_EEEC2IS2_S4_Lb1EEEv' type='func-type' binding='weak-binding' visibility='default-visibility' alias='_ZNSt5tupleIJPN10prometheus7CounterESt14default_deleteIS1_EEEC1IS2_S4_Lb1EEEv' is-defined='yes'/>
    <elf-symbol name='_ZNSt5tupleIJPN10prometheus7SummaryESt14default_deleteIS1_EEEC1IS2_S4_Lb1EEEv' type='func-type' binding='weak-binding' visibility='default-visibility' alias='_ZNSt5tupleIJPN10prometheus7SummaryESt14default_deleteIS1_EEEC2IS2_S4_Lb1EEEv' is-defined='yes'/>
    <elf-symbol name='_ZNSt5tupleIJPN10prometheus7SummaryESt14default_deleteIS1_EEEC2IS2_S4_Lb1EEEv' type='func-type' binding='weak-binding' visibility='default-visibility' is-defined='yes'/>
    <elf-symbol name='_ZNSt6chrono13duration_castINS_8durationIlSt5ratioILl1ELl1000000EEEElS2_ILl1ELl1000000000EEEENSt9enable_ifIXsrNS_13__is_durationIT_EE5valueES8_E4typeERKNS1_IT0_T1_EE' type='func-type' binding='weak-binding' visibility='default-visibility' is-defined='yes'/>
    <elf-symbol name='_ZNSt6chrono13duration_castINS_8durationIlSt5ratioILl1ELl1000EEEElS2_ILl1ELl1EEEENSt9enable_ifIXsrNS_13__is_durationIT_EE5valueES8_E4typeERKNS1_IT0_T1_EE' type='func-type' binding='weak-binding' visibility='default-visibility' is-defined='yes'/>
    <elf-symbol name='_ZNSt6chrono20__duration_cast_implINS_8durationIlSt5ratioILl1ELl1000000EEEES2_ILl1ELl1000EElLb1ELb0EE6__castIlS2_ILl1ELl1000000000EEEES4_RKNS1_IT_T0_EE' type='func-type' binding='weak-binding' visibility='default-visibility' is-defined='yes'/>
    <elf-symbol name='_ZNSt6chrono20__duration_cast_implINS_8durationIlSt5ratioILl1ELl1000EEEES2_ILl1000ELl1EElLb0ELb1EE6__castIlS2_ILl1ELl1EEEES4_RKNS1_IT_T0_EE' type='func-type' binding='weak-binding' visibility='default-visibility' is-defined='yes'/>
    <elf-symbol name='_ZNSt6chrono8durationIlSt5ratioILl1ELl1000000000EEEC1IlvEERKT_' type='func-type' binding='weak-binding' visibility='default-visibility' is-defined='yes'/>
    <elf-symbol name='_ZNSt6chrono8durationIlSt5ratioILl1ELl1000000EEEC1IlvEERKT_' type='func-type' binding='weak-binding' visibility='default-visibility' is-defined='yes'/>
    <elf-symbol name='_ZNSt6chrono8durationIlSt5ratioILl1ELl1000000EEEC2IlvEERKT_' type='func-type' binding='weak-binding' visibility='default-visibility' alias='_ZNSt6chrono8durationIlSt5ratioILl1ELl1000000EEEC1IlvEERKT_' is-defined='yes'/>
    <elf-symbol name='_ZNSt6chrono8durationIlSt5ratioILl1ELl1000EEEC1IlS1_ILl1ELl1EEvEERKNS0_IT_T0_EE' type='func-type' binding='weak-binding' visibility='default-visibility' is-defined='yes'/>
    <elf-symbol name='_ZNSt6chrono8durationIlSt5ratioILl1ELl1000EEEC1IlvEERKT_' type='func-type' binding='weak-binding' visibility='default-visibility' alias='_ZNSt6chrono8durationIlSt5ratioILl1ELl1000EEEC2IlvEERKT_' is-defined='yes'/>
    <elf-symbol name='_ZNSt6chrono8durationIlSt5ratioILl1ELl1000EEEC2IlS1_ILl1ELl1EEvEERKNS0_IT_T0_EE' type='func-type' binding='weak-binding' visibility='default-visibility' alias='_ZNSt6chrono8durationIlSt5ratioILl1ELl1000EEEC1IlS1_ILl1ELl1EEvEERKNS0_IT_T0_EE' is-defined='yes'/>
    <elf-symbol name='_ZNSt6chrono8durationIlSt5ratioILl1ELl1000EEEC2IlvEERKT_' type='func-type' binding='weak-binding' visibility='default-visibility' is-defined='yes'/>
    <elf-symbol name='_ZNSt6chrono8durationIlSt5ratioILl1ELl1EEEC1IivEERKT_' type='func-type' binding='weak-binding' visibility='default-visibility' alias='_ZNSt6chrono8durationIlSt5ratioILl1ELl1EEEC2IivEERKT_' is-defined='yes'/>
    <elf-symbol name='_ZNSt6chrono8durationIlSt5ratioILl1ELl1EEEC2IivEERKT_' type='func-type' binding='weak-binding' visibility='default-visibility' is-defined='yes'/>
    <elf-symbol name='_ZNSt6chronomiINS_3_V212steady_clockENS_8durationIlSt5ratioILl1ELl1000000000EEEES6_EENSt11common_typeIJT0_T1_EE4typeERKNS_10time_pointIT_S8_EERKNSC_ISD_S9_EE' type='func-type' binding='weak-binding' visibility='default-visibility' is-defined='yes'/>
    <elf-symbol name='_ZNSt6chronomiIlSt5ratioILl1ELl1000000000EElS2_EENSt11common_typeIJNS_8durationIT_T0_EENS4_IT1_T2_EEEE4typeERKS7_RKSA_' type='func-type' binding='weak-binding' visibility='default-visibility' is-defined='yes'/>
    <elf-symbol name='_ZNSt6vectorIN10prometheus12ClientMetric5LabelESaIS2_EED1Ev' type='func-type' binding='weak-binding' visibility='default-visibility' alias='_ZNSt6vectorIN10prometheus12ClientMetric5LabelESaIS2_EED2Ev' is-defined='yes'/>
    <elf-symbol name='_ZNSt6vectorIN10prometheus12ClientMetric5LabelESaIS2_EED2Ev' type='func-type' binding='weak-binding' visibility='default-visibility' is-defined='yes'/>
    <elf-symbol name='_ZNSt6vectorIN10prometheus12ClientMetric6BucketESaIS2_EED1Ev' type='func-type' binding='weak-binding' visibility='default-visibility' is-defined='yes'/>
    <elf-symbol name='_ZNSt6vectorIN10prometheus12ClientMetric6BucketESaIS2_EED2Ev' type='func-type' binding='weak-binding' visibility='default-visibility' alias='_ZNSt6vectorIN10prometheus12ClientMetric6BucketESaIS2_EED1Ev' is-defined='yes'/>
    <elf-symbol name='_ZNSt6vectorIN10prometheus12ClientMetric8QuantileESaIS2_EED1Ev' type='func-type' binding='weak-binding' visibility='default-visibility' alias='_ZNSt6vectorIN10prometheus12ClientMetric8QuantileESaIS2_EED2Ev' is-defined='yes'/>
    <elf-symbol name='_ZNSt6vectorIN10prometheus12ClientMetric8QuantileESaIS2_EED2Ev' type='func-type' binding='weak-binding' visibility='default-visibility' is-defined='yes'/>
    <elf-symbol name='_ZNSt6vectorIN10prometheus12ClientMetricESaIS1_EE14_M_move_assignEOS3_St17integral_constantIbLb1EE' type='func-type' binding='weak-binding' visibility='default-visibility' is-defined='yes'/>
    <elf-symbol name='_ZNSt6vectorIN10prometheus12ClientMetricESaIS1_EEC1ERKS2_' type='func-type' binding='weak-binding' visibility='default-visibility' alias='_ZNSt6vectorIN10prometheus12ClientMetricESaIS1_EEC2ERKS2_' is-defined='yes'/>
    <elf-symbol name='_ZNSt6vectorIN10prometheus12ClientMetricESaIS1_EEC2ERKS2_' type='func-type' binding='weak-binding' visibility='default-visibility' is-defined='yes'/>
    <elf-symbol name='_ZNSt6vectorIN10prometheus12ClientMetricESaIS1_EED1Ev' type='func-type' binding='weak-binding' visibility='default-visibility' alias='_ZNSt6vectorIN10prometheus12ClientMetricESaIS1_EED2Ev' is-defined='yes'/>
    <elf-symbol name='_ZNSt6vectorIN10prometheus12ClientMetricESaIS1_EED2Ev' type='func-type' binding='weak-binding' visibility='default-visibility' is-defined='yes'/>
    <elf-symbol name='_ZNSt6vectorIN10prometheus12ClientMetricESaIS1_EEaSEOS3_' type='func-type' binding='weak-binding' visibility='default-visibility' is-defined='yes'/>
    <elf-symbol name='_ZNSt6vectorIN10prometheus12MetricFamilyESaIS1_EE11_S_max_sizeERKS2_' type='func-type' binding='weak-binding' visibility='default-visibility' is-defined='yes'/>
    <elf-symbol name='_ZNSt6vectorIN10prometheus12MetricFamilyESaIS1_EE14_M_move_assignEOS3_St17integral_constantIbLb1EE' type='func-type' binding='weak-binding' visibility='default-visibility' is-defined='yes'/>
    <elf-symbol name='_ZNSt6vectorIN10prometheus12MetricFamilyESaIS1_EE15_M_range_insertISt13move_iteratorIN9__gnu_cxx17__normal_iteratorIPS1_S3_EEEEEvS9_T_SB_St20forward_iterator_tag' type='func-type' binding='weak-binding' visibility='default-visibility' is-defined='yes'/>
    <elf-symbol name='_ZNSt6vectorIN10prometheus12MetricFamilyESaIS1_EE18_M_insert_dispatchISt13move_iteratorIN9__gnu_cxx17__normal_iteratorIPS1_S3_EEEEEvS9_T_SB_St12__false_type' type='func-type' binding='weak-binding' visibility='default-visibility' is-defined='yes'/>
    <elf-symbol name='_ZNSt6vectorIN10prometheus12MetricFamilyESaIS1_EE3endEv' type='func-type' binding='weak-binding' visibility='default-visibility' is-defined='yes'/>
    <elf-symbol name='_ZNSt6vectorIN10prometheus12MetricFamilyESaIS1_EE5beginEv' type='func-type' binding='weak-binding' visibility='default-visibility' is-defined='yes'/>
    <elf-symbol name='_ZNSt6vectorIN10prometheus12MetricFamilyESaIS1_EE6insertISt13move_iteratorIN9__gnu_cxx17__normal_iteratorIPS1_S3_EEEvEES9_NS7_IPKS1_S3_EET_SE_' type='func-type' binding='weak-binding' visibility='default-visibility' is-defined='yes'/>
    <elf-symbol name='_ZNSt6vectorIN10prometheus12MetricFamilyESaIS1_EEC1ERKS2_' type='func-type' binding='weak-binding' visibility='default-visibility' alias='_ZNSt6vectorIN10prometheus12MetricFamilyESaIS1_EEC2ERKS2_' is-defined='yes'/>
    <elf-symbol name='_ZNSt6vectorIN10prometheus12MetricFamilyESaIS1_EEC2ERKS2_' type='func-type' binding='weak-binding' visibility='default-visibility' is-defined='yes'/>
    <elf-symbol name='_ZNSt6vectorIN10prometheus12MetricFamilyESaIS1_EED1Ev' type='func-type' binding='weak-binding' visibility='default-visibility' alias='_ZNSt6vectorIN10prometheus12MetricFamilyESaIS1_EED2Ev' is-defined='yes'/>
    <elf-symbol name='_ZNSt6vectorIN10prometheus12MetricFamilyESaIS1_EED2Ev' type='func-type' binding='weak-binding' visibility='default-visibility' is-defined='yes'/>
    <elf-symbol name='_ZNSt6vectorIN10prometheus12MetricFamilyESaIS1_EEaSEOS3_' type='func-type' binding='weak-binding' visibility='default-visibility' is-defined='yes'/>
    <elf-symbol name='_ZNSt6vectorIN10prometheus6detail13CKMSQuantiles4ItemESaIS3_EED1Ev' type='func-type' binding='weak-binding' visibility='default-visibility' alias='_ZNSt6vectorIN10prometheus6detail13CKMSQuantiles4ItemESaIS3_EED2Ev' is-defined='yes'/>
    <elf-symbol name='_ZNSt6vectorIN10prometheus6detail13CKMSQuantiles4ItemESaIS3_EED2Ev' type='func-type' binding='weak-binding' visibility='default-visibility' is-defined='yes'/>
    <elf-symbol name='_ZNSt6vectorIN10prometheus6detail13CKMSQuantiles8QuantileESaIS3_EE11_S_max_sizeERKS4_' type='func-type' binding='weak-binding' visibility='default-visibility' is-defined='yes'/>
    <elf-symbol name='_ZNSt6vectorIN10prometheus6detail13CKMSQuantiles8QuantileESaIS3_EE17_S_check_init_lenEmRKS4_' type='func-type' binding='weak-binding' visibility='default-visibility' is-defined='yes'/>
    <elf-symbol name='_ZNSt6vectorIN10prometheus6detail13CKMSQuantiles8QuantileESaIS3_EE19_M_range_initializeIPKS3_EEvT_S9_St20forward_iterator_tag' type='func-type' binding='weak-binding' visibility='default-visibility' is-defined='yes'/>
    <elf-symbol name='_ZNSt6vectorIN10prometheus6detail13CKMSQuantiles8QuantileESaIS3_EEC1ESt16initializer_listIS3_ERKS4_' type='func-type' binding='weak-binding' visibility='default-visibility' is-defined='yes'/>
    <elf-symbol name='_ZNSt6vectorIN10prometheus6detail13CKMSQuantiles8QuantileESaIS3_EEC2ESt16initializer_listIS3_ERKS4_' type='func-type' binding='weak-binding' visibility='default-visibility' alias='_ZNSt6vectorIN10prometheus6detail13CKMSQuantiles8QuantileESaIS3_EEC1ESt16initializer_listIS3_ERKS4_' is-defined='yes'/>
    <elf-symbol name='_ZNSt6vectorIN10prometheus6detail13CKMSQuantiles8QuantileESaIS3_EED1Ev' type='func-type' binding='weak-binding' visibility='default-visibility' alias='_ZNSt6vectorIN10prometheus6detail13CKMSQuantiles8QuantileESaIS3_EED2Ev' is-defined='yes'/>
    <elf-symbol name='_ZNSt6vectorIN10prometheus6detail13CKMSQuantiles8QuantileESaIS3_EED2Ev' type='func-type' binding='weak-binding' visibility='default-visibility' is-defined='yes'/>
    <elf-symbol name='_ZNSt6vectorIN10prometheus6detail13CKMSQuantilesESaIS2_EED1Ev' type='func-type' binding='weak-binding' visibility='default-visibility' alias='_ZNSt6vectorIN10prometheus6detail13CKMSQuantilesESaIS2_EED2Ev' is-defined='yes'/>
    <elf-symbol name='_ZNSt6vectorIN10prometheus6detail13CKMSQuantilesESaIS2_EED2Ev' type='func-type' binding='weak-binding' visibility='default-visibility' is-defined='yes'/>
    <elf-symbol name='_ZNSt6vectorINSt7__cxx1112basic_stringIcSt11char_traitsIcESaIcEEESaIS5_EE11_S_max_sizeERKS6_' type='func-type' binding='weak-binding' visibility='default-visibility' is-defined='yes'/>
    <elf-symbol name='_ZNSt6vectorINSt7__cxx1112basic_stringIcSt11char_traitsIcESaIcEEESaIS5_EE17_S_check_init_lenEmRKS6_' type='func-type' binding='weak-binding' visibility='default-visibility' is-defined='yes'/>
    <elf-symbol name='_ZNSt6vectorINSt7__cxx1112basic_stringIcSt11char_traitsIcESaIcEEESaIS5_EE19_M_range_initializeIPKS5_EEvT_SB_St20forward_iterator_tag' type='func-type' binding='weak-binding' visibility='default-visibility' is-defined='yes'/>
    <elf-symbol name='_ZNSt6vectorINSt7__cxx1112basic_stringIcSt11char_traitsIcESaIcEEESaIS5_EEC1ESt16initializer_listIS5_ERKS6_' type='func-type' binding='weak-binding' visibility='default-visibility' alias='_ZNSt6vectorINSt7__cxx1112basic_stringIcSt11char_traitsIcESaIcEEESaIS5_EEC2ESt16initializer_listIS5_ERKS6_' is-defined='yes'/>
    <elf-symbol name='_ZNSt6vectorINSt7__cxx1112basic_stringIcSt11char_traitsIcESaIcEEESaIS5_EEC2ESt16initializer_listIS5_ERKS6_' type='func-type' binding='weak-binding' visibility='default-visibility' is-defined='yes'/>
    <elf-symbol name='_ZNSt6vectorINSt7__cxx1112basic_stringIcSt11char_traitsIcESaIcEEESaIS5_EED1Ev' type='func-type' binding='weak-binding' visibility='default-visibility' alias='_ZNSt6vectorINSt7__cxx1112basic_stringIcSt11char_traitsIcESaIcEEESaIS5_EED2Ev' is-defined='yes'/>
    <elf-symbol name='_ZNSt6vectorINSt7__cxx1112basic_stringIcSt11char_traitsIcESaIcEEESaIS5_EED2Ev' type='func-type' binding='weak-binding' visibility='default-visibility' is-defined='yes'/>
    <elf-symbol name='_ZNSt6vectorIPKcSaIS1_EE11_S_max_sizeERKS2_' type='func-type' binding='weak-binding' visibility='default-visibility' is-defined='yes'/>
    <elf-symbol name='_ZNSt6vectorIPKcSaIS1_EE17_S_check_init_lenEmRKS2_' type='func-type' binding='weak-binding' visibility='default-visibility' is-defined='yes'/>
    <elf-symbol name='_ZNSt6vectorIPKcSaIS1_EE21_M_default_initializeEm' type='func-type' binding='weak-binding' visibility='default-visibility' is-defined='yes'/>
    <elf-symbol name='_ZNSt6vectorIPKcSaIS1_EE3endEv' type='func-type' binding='weak-binding' visibility='default-visibility' is-defined='yes'/>
    <elf-symbol name='_ZNSt6vectorIPKcSaIS1_EE4backEv' type='func-type' binding='weak-binding' visibility='default-visibility' is-defined='yes'/>
    <elf-symbol name='_ZNSt6vectorIPKcSaIS1_EEC1EmRKS2_' type='func-type' binding='weak-binding' visibility='default-visibility' is-defined='yes'/>
    <elf-symbol name='_ZNSt6vectorIPKcSaIS1_EEC2EmRKS2_' type='func-type' binding='weak-binding' visibility='default-visibility' alias='_ZNSt6vectorIPKcSaIS1_EEC1EmRKS2_' is-defined='yes'/>
    <elf-symbol name='_ZNSt6vectorIPKcSaIS1_EED1Ev' type='func-type' binding='weak-binding' visibility='default-visibility' alias='_ZNSt6vectorIPKcSaIS1_EED2Ev' is-defined='yes'/>
    <elf-symbol name='_ZNSt6vectorIPKcSaIS1_EED2Ev' type='func-type' binding='weak-binding' visibility='default-visibility' is-defined='yes'/>
    <elf-symbol name='_ZNSt6vectorIPKcSaIS1_EEixEm' type='func-type' binding='weak-binding' visibility='default-visibility' is-defined='yes'/>
    <elf-symbol name='_ZNSt6vectorISt8weak_ptrIN10prometheus11CollectableEESaIS3_EE11_S_max_sizeERKS4_' type='func-type' binding='weak-binding' visibility='default-visibility' is-defined='yes'/>
    <elf-symbol name='_ZNSt6vectorISt8weak_ptrIN10prometheus11CollectableEESaIS3_EE11_S_relocateEPS3_S6_S6_RS4_' type='func-type' binding='weak-binding' visibility='default-visibility' is-defined='yes'/>
    <elf-symbol name='_ZNSt6vectorISt8weak_ptrIN10prometheus11CollectableEESaIS3_EE14_S_do_relocateEPS3_S6_S6_RS4_St17integral_constantIbLb1EE' type='func-type' binding='weak-binding' visibility='default-visibility' is-defined='yes'/>
    <elf-symbol name='_ZNSt6vectorISt8weak_ptrIN10prometheus11CollectableEESaIS3_EE15_M_erase_at_endEPS3_' type='func-type' binding='weak-binding' visibility='default-visibility' is-defined='yes'/>
    <elf-symbol name='_ZNSt6vectorISt8weak_ptrIN10prometheus11CollectableEESaIS3_EE15_S_use_relocateEv' type='func-type' binding='weak-binding' visibility='default-visibility' is-defined='yes'/>
    <elf-symbol name='_ZNSt6vectorISt8weak_ptrIN10prometheus11CollectableEESaIS3_EE17_M_realloc_insertIJRKS3_EEEvN9__gnu_cxx17__normal_iteratorIPS3_S5_EEDpOT_' type='func-type' binding='weak-binding' visibility='default-visibility' is-defined='yes'/>
    <elf-symbol name='_ZNSt6vectorISt8weak_ptrIN10prometheus11CollectableEESaIS3_EE19_S_nothrow_relocateESt17integral_constantIbLb1EE' type='func-type' binding='weak-binding' visibility='default-visibility' is-defined='yes'/>
    <elf-symbol name='_ZNSt6vectorISt8weak_ptrIN10prometheus11CollectableEESaIS3_EE3endEv' type='func-type' binding='weak-binding' visibility='default-visibility' is-defined='yes'/>
    <elf-symbol name='_ZNSt6vectorISt8weak_ptrIN10prometheus11CollectableEESaIS3_EE5beginEv' type='func-type' binding='weak-binding' visibility='default-visibility' is-defined='yes'/>
    <elf-symbol name='_ZNSt6vectorISt8weak_ptrIN10prometheus11CollectableEESaIS3_EE5eraseEN9__gnu_cxx17__normal_iteratorIPKS3_S5_EESA_' type='func-type' binding='weak-binding' visibility='default-visibility' is-defined='yes'/>
    <elf-symbol name='_ZNSt6vectorISt8weak_ptrIN10prometheus11CollectableEESaIS3_EE8_M_eraseEN9__gnu_cxx17__normal_iteratorIPS3_S5_EES9_' type='func-type' binding='weak-binding' visibility='default-visibility' is-defined='yes'/>
    <elf-symbol name='_ZNSt6vectorISt8weak_ptrIN10prometheus11CollectableEESaIS3_EE9push_backERKS3_' type='func-type' binding='weak-binding' visibility='default-visibility' is-defined='yes'/>
    <elf-symbol name='_ZNSt6vectorISt8weak_ptrIN10prometheus11CollectableEESaIS3_EED1Ev' type='func-type' binding='weak-binding' visibility='default-visibility' alias='_ZNSt6vectorISt8weak_ptrIN10prometheus11CollectableEESaIS3_EED2Ev' is-defined='yes'/>
    <elf-symbol name='_ZNSt6vectorISt8weak_ptrIN10prometheus11CollectableEESaIS3_EED2Ev' type='func-type' binding='weak-binding' visibility='default-visibility' is-defined='yes'/>
    <elf-symbol name='_ZNSt6vectorIcSaIcEE11_S_max_sizeERKS0_' type='func-type' binding='weak-binding' visibility='default-visibility' is-defined='yes'/>
    <elf-symbol name='_ZNSt6vectorIcSaIcEE11_S_relocateEPcS2_S2_RS0_' type='func-type' binding='weak-binding' visibility='default-visibility' is-defined='yes'/>
    <elf-symbol name='_ZNSt6vectorIcSaIcEE12emplace_backIJcEEEvDpOT_' type='func-type' binding='weak-binding' visibility='default-visibility' is-defined='yes'/>
    <elf-symbol name='_ZNSt6vectorIcSaIcEE14_M_fill_assignEmRKc' type='func-type' binding='weak-binding' visibility='default-visibility' is-defined='yes'/>
    <elf-symbol name='_ZNSt6vectorIcSaIcEE14_M_move_assignEOS1_St17integral_constantIbLb1EE' type='func-type' binding='weak-binding' visibility='default-visibility' is-defined='yes'/>
    <elf-symbol name='_ZNSt6vectorIcSaIcEE14_S_do_relocateEPcS2_S2_RS0_St17integral_constantIbLb1EE' type='func-type' binding='weak-binding' visibility='default-visibility' is-defined='yes'/>
    <elf-symbol name='_ZNSt6vectorIcSaIcEE15_M_erase_at_endEPc' type='func-type' binding='weak-binding' visibility='default-visibility' is-defined='yes'/>
    <elf-symbol name='_ZNSt6vectorIcSaIcEE15_M_range_insertIPcEEvN9__gnu_cxx17__normal_iteratorIS3_S1_EET_S7_St20forward_iterator_tag' type='func-type' binding='weak-binding' visibility='default-visibility' is-defined='yes'/>
    <elf-symbol name='_ZNSt6vectorIcSaIcEE15_S_use_relocateEv' type='func-type' binding='weak-binding' visibility='default-visibility' is-defined='yes'/>
    <elf-symbol name='_ZNSt6vectorIcSaIcEE17_M_default_appendEm' type='func-type' binding='weak-binding' visibility='default-visibility' is-defined='yes'/>
    <elf-symbol name='_ZNSt6vectorIcSaIcEE17_M_realloc_insertIJcEEEvN9__gnu_cxx17__normal_iteratorIPcS1_EEDpOT_' type='func-type' binding='weak-binding' visibility='default-visibility' is-defined='yes'/>
    <elf-symbol name='_ZNSt6vectorIcSaIcEE17_S_check_init_lenEmRKS0_' type='func-type' binding='weak-binding' visibility='default-visibility' is-defined='yes'/>
    <elf-symbol name='_ZNSt6vectorIcSaIcEE18_M_fill_initializeEmRKc' type='func-type' binding='weak-binding' visibility='default-visibility' is-defined='yes'/>
    <elf-symbol name='_ZNSt6vectorIcSaIcEE18_M_insert_dispatchIPcEEvN9__gnu_cxx17__normal_iteratorIS3_S1_EET_S7_St12__false_type' type='func-type' binding='weak-binding' visibility='default-visibility' is-defined='yes'/>
    <elf-symbol name='_ZNSt6vectorIcSaIcEE19_S_nothrow_relocateESt17integral_constantIbLb1EE' type='func-type' binding='weak-binding' visibility='default-visibility' is-defined='yes'/>
    <elf-symbol name='_ZNSt6vectorIcSaIcEE21_M_default_initializeEm' type='func-type' binding='weak-binding' visibility='default-visibility' is-defined='yes'/>
    <elf-symbol name='_ZNSt6vectorIcSaIcEE3endEv' type='func-type' binding='weak-binding' visibility='default-visibility' is-defined='yes'/>
    <elf-symbol name='_ZNSt6vectorIcSaIcEE5beginEv' type='func-type' binding='weak-binding' visibility='default-visibility' is-defined='yes'/>
    <elf-symbol name='_ZNSt6vectorIcSaIcEE5clearEv' type='func-type' binding='weak-binding' visibility='default-visibility' is-defined='yes'/>
    <elf-symbol name='_ZNSt6vectorIcSaIcEE6assignEmRKc' type='func-type' binding='weak-binding' visibility='default-visibility' is-defined='yes'/>
    <elf-symbol name='_ZNSt6vectorIcSaIcEE6insertIPcvEEN9__gnu_cxx17__normal_iteratorIS3_S1_EENS5_IPKcS1_EET_SA_' type='func-type' binding='weak-binding' visibility='default-visibility' is-defined='yes'/>
    <elf-symbol name='_ZNSt6vectorIcSaIcEE6resizeEm' type='func-type' binding='weak-binding' visibility='default-visibility' is-defined='yes'/>
    <elf-symbol name='_ZNSt6vectorIcSaIcEE9push_backEOc' type='func-type' binding='weak-binding' visibility='default-visibility' is-defined='yes'/>
    <elf-symbol name='_ZNSt6vectorIcSaIcEEC1ERKS0_' type='func-type' binding='weak-binding' visibility='default-visibility' alias='_ZNSt6vectorIcSaIcEEC2ERKS0_' is-defined='yes'/>
    <elf-symbol name='_ZNSt6vectorIcSaIcEEC1EmRKS0_' type='func-type' binding='weak-binding' visibility='default-visibility' alias='_ZNSt6vectorIcSaIcEEC2EmRKS0_' is-defined='yes'/>
    <elf-symbol name='_ZNSt6vectorIcSaIcEEC1EmRKcRKS0_' type='func-type' binding='weak-binding' visibility='default-visibility' alias='_ZNSt6vectorIcSaIcEEC2EmRKcRKS0_' is-defined='yes'/>
    <elf-symbol name='_ZNSt6vectorIcSaIcEEC2ERKS0_' type='func-type' binding='weak-binding' visibility='default-visibility' is-defined='yes'/>
    <elf-symbol name='_ZNSt6vectorIcSaIcEEC2EmRKS0_' type='func-type' binding='weak-binding' visibility='default-visibility' is-defined='yes'/>
    <elf-symbol name='_ZNSt6vectorIcSaIcEEC2EmRKcRKS0_' type='func-type' binding='weak-binding' visibility='default-visibility' is-defined='yes'/>
    <elf-symbol name='_ZNSt6vectorIcSaIcEED1Ev' type='func-type' binding='weak-binding' visibility='default-visibility' alias='_ZNSt6vectorIcSaIcEED2Ev' is-defined='yes'/>
    <elf-symbol name='_ZNSt6vectorIcSaIcEED2Ev' type='func-type' binding='weak-binding' visibility='default-visibility' is-defined='yes'/>
    <elf-symbol name='_ZNSt6vectorIcSaIcEEaSEOS1_' type='func-type' binding='weak-binding' visibility='default-visibility' is-defined='yes'/>
    <elf-symbol name='_ZNSt6vectorIcSaIcEEixEm' type='func-type' binding='weak-binding' visibility='default-visibility' is-defined='yes'/>
    <elf-symbol name='_ZNSt6vectorIhSaIhEE11_S_max_sizeERKS0_' type='func-type' binding='weak-binding' visibility='default-visibility' is-defined='yes'/>
    <elf-symbol name='_ZNSt6vectorIhSaIhEE11_S_relocateEPhS2_S2_RS0_' type='func-type' binding='weak-binding' visibility='default-visibility' is-defined='yes'/>
    <elf-symbol name='_ZNSt6vectorIhSaIhEE14_S_do_relocateEPhS2_S2_RS0_St17integral_constantIbLb1EE' type='func-type' binding='weak-binding' visibility='default-visibility' is-defined='yes'/>
    <elf-symbol name='_ZNSt6vectorIhSaIhEE15_M_erase_at_endEPh' type='func-type' binding='weak-binding' visibility='default-visibility' is-defined='yes'/>
    <elf-symbol name='_ZNSt6vectorIhSaIhEE15_S_use_relocateEv' type='func-type' binding='weak-binding' visibility='default-visibility' is-defined='yes'/>
    <elf-symbol name='_ZNSt6vectorIhSaIhEE17_M_default_appendEm' type='func-type' binding='weak-binding' visibility='default-visibility' is-defined='yes'/>
    <elf-symbol name='_ZNSt6vectorIhSaIhEE19_S_nothrow_relocateESt17integral_constantIbLb1EE' type='func-type' binding='weak-binding' visibility='default-visibility' is-defined='yes'/>
    <elf-symbol name='_ZNSt6vectorIhSaIhEE20_M_allocate_and_copyISt13move_iteratorIPhEEES4_mT_S6_' type='func-type' binding='weak-binding' visibility='default-visibility' is-defined='yes'/>
    <elf-symbol name='_ZNSt6vectorIhSaIhEE4dataEv' type='func-type' binding='weak-binding' visibility='default-visibility' is-defined='yes'/>
    <elf-symbol name='_ZNSt6vectorIhSaIhEE6resizeEm' type='func-type' binding='weak-binding' visibility='default-visibility' is-defined='yes'/>
    <elf-symbol name='_ZNSt6vectorIhSaIhEE7reserveEm' type='func-type' binding='weak-binding' visibility='default-visibility' is-defined='yes'/>
    <elf-symbol name='_ZNSt6vectorIhSaIhEED1Ev' type='func-type' binding='weak-binding' visibility='default-visibility' alias='_ZNSt6vectorIhSaIhEED2Ev' is-defined='yes'/>
    <elf-symbol name='_ZNSt6vectorIhSaIhEED2Ev' type='func-type' binding='weak-binding' visibility='default-visibility' is-defined='yes'/>
    <elf-symbol name='_ZNSt6vectorIiSaIiEE11_S_max_sizeERKS0_' type='func-type' binding='weak-binding' visibility='default-visibility' is-defined='yes'/>
    <elf-symbol name='_ZNSt6vectorIiSaIiEE17_S_check_init_lenEmRKS0_' type='func-type' binding='weak-binding' visibility='default-visibility' is-defined='yes'/>
    <elf-symbol name='_ZNSt6vectorIiSaIiEE21_M_default_initializeEm' type='func-type' binding='weak-binding' visibility='default-visibility' is-defined='yes'/>
    <elf-symbol name='_ZNSt6vectorIiSaIiEEC1EmRKS0_' type='func-type' binding='weak-binding' visibility='default-visibility' is-defined='yes'/>
    <elf-symbol name='_ZNSt6vectorIiSaIiEEC2EmRKS0_' type='func-type' binding='weak-binding' visibility='default-visibility' alias='_ZNSt6vectorIiSaIiEEC1EmRKS0_' is-defined='yes'/>
    <elf-symbol name='_ZNSt6vectorIiSaIiEEixEm' type='func-type' binding='weak-binding' visibility='default-visibility' is-defined='yes'/>
    <elf-symbol name='_ZNSt7__cxx1112basic_stringIcSt11char_traitsIcESaIcEE12_M_constructIN9__gnu_cxx17__normal_iteratorIPcSt6vectorIcS3_EEEEEvT_SC_' type='func-type' binding='weak-binding' visibility='default-visibility' is-defined='yes'/>
    <elf-symbol name='_ZNSt7__cxx1112basic_stringIcSt11char_traitsIcESaIcEE12_M_constructIN9__gnu_cxx17__normal_iteratorIPcSt6vectorIcS3_EEEEEvT_SC_St20forward_iterator_tag' type='func-type' binding='weak-binding' visibility='default-visibility' is-defined='yes'/>
    <elf-symbol name='_ZNSt7__cxx1112basic_stringIcSt11char_traitsIcESaIcEE12_M_constructIPcEEvT_S7_' type='func-type' binding='weak-binding' visibility='default-visibility' is-defined='yes'/>
    <elf-symbol name='_ZNSt7__cxx1112basic_stringIcSt11char_traitsIcESaIcEE12_M_constructIPcEEvT_S7_St20forward_iterator_tag' type='func-type' binding='weak-binding' visibility='default-visibility' is-defined='yes'/>
    <elf-symbol name='_ZNSt7__cxx1112basic_stringIcSt11char_traitsIcESaIcEE13_S_copy_charsIN9__gnu_cxx17__normal_iteratorIPcSt6vectorIcS3_EEEEEvS8_T_SC_' type='func-type' binding='weak-binding' visibility='default-visibility' is-defined='yes'/>
    <elf-symbol name='_ZNSt7__cxx1112basic_stringIcSt11char_traitsIcESaIcEE16_M_construct_auxIN9__gnu_cxx17__normal_iteratorIPcSt6vectorIcS3_EEEEEvT_SC_St12__false_type' type='func-type' binding='weak-binding' visibility='default-visibility' is-defined='yes'/>
    <elf-symbol name='_ZNSt7__cxx1112basic_stringIcSt11char_traitsIcESaIcEE16_M_construct_auxIPcEEvT_S7_St12__false_type' type='func-type' binding='weak-binding' visibility='default-visibility' is-defined='yes'/>
    <elf-symbol name='_ZNSt7__cxx1112basic_stringIcSt11char_traitsIcESaIcEE19_M_replace_dispatchIN9__gnu_cxx17__normal_iteratorIPcSt6vectorIcS3_EEEEERS4_NS7_IPKcS4_EESF_T_SG_St12__false_type' type='func-type' binding='weak-binding' visibility='default-visibility' is-defined='yes'/>
    <elf-symbol name='_ZNSt7__cxx1112basic_stringIcSt11char_traitsIcESaIcEE6assignIN9__gnu_cxx17__normal_iteratorIPcSt6vectorIcS3_EEEvEERS4_T_SD_' type='func-type' binding='weak-binding' visibility='default-visibility' is-defined='yes'/>
    <elf-symbol name='_ZNSt7__cxx1112basic_stringIcSt11char_traitsIcESaIcEE7replaceIN9__gnu_cxx17__normal_iteratorIPcSt6vectorIcS3_EEEvEERS4_NS7_IPKcS4_EESF_T_SG_' type='func-type' binding='weak-binding' visibility='default-visibility' is-defined='yes'/>
    <elf-symbol name='_ZNSt7__cxx1112basic_stringIcSt11char_traitsIcESaIcEEC1IN9__gnu_cxx17__normal_iteratorIPcSt6vectorIcS3_EEEvEET_SC_RKS3_' type='func-type' binding='weak-binding' visibility='default-visibility' is-defined='yes'/>
    <elf-symbol name='_ZNSt7__cxx1112basic_stringIcSt11char_traitsIcESaIcEEC1IPcvEET_S7_RKS3_' type='func-type' binding='weak-binding' visibility='default-visibility' alias='_ZNSt7__cxx1112basic_stringIcSt11char_traitsIcESaIcEEC2IPcvEET_S7_RKS3_' is-defined='yes'/>
    <elf-symbol name='_ZNSt7__cxx1112basic_stringIcSt11char_traitsIcESaIcEEC2IN9__gnu_cxx17__normal_iteratorIPcSt6vectorIcS3_EEEvEET_SC_RKS3_' type='func-type' binding='weak-binding' visibility='default-visibility' alias='_ZNSt7__cxx1112basic_stringIcSt11char_traitsIcESaIcEEC1IN9__gnu_cxx17__normal_iteratorIPcSt6vectorIcS3_EEEvEET_SC_RKS3_' is-defined='yes'/>
    <elf-symbol name='_ZNSt7__cxx1112basic_stringIcSt11char_traitsIcESaIcEEC2IPcvEET_S7_RKS3_' type='func-type' binding='weak-binding' visibility='default-visibility' is-defined='yes'/>
    <elf-symbol name='_ZNSt8_Rb_treeINSt7__cxx1112basic_stringIcSt11char_traitsIcESaIcEEESt4pairIKS5_S5_ESt10_Select1stIS8_ESt4lessIS5_ESaIS8_EE11_M_put_nodeEPSt13_Rb_tree_nodeIS8_E' type='func-type' binding='weak-binding' visibility='default-visibility' is-defined='yes'/>
    <elf-symbol name='_ZNSt8_Rb_treeINSt7__cxx1112basic_stringIcSt11char_traitsIcESaIcEEESt4pairIKS5_S5_ESt10_Select1stIS8_ESt4lessIS5_ESaIS8_EE12_M_drop_nodeEPSt13_Rb_tree_nodeIS8_E' type='func-type' binding='weak-binding' visibility='default-visibility' is-defined='yes'/>
    <elf-symbol name='_ZNSt8_Rb_treeINSt7__cxx1112basic_stringIcSt11char_traitsIcESaIcEEESt4pairIKS5_S5_ESt10_Select1stIS8_ESt4lessIS5_ESaIS8_EE13_Rb_tree_implISC_Lb1EEC1Ev' type='func-type' binding='weak-binding' visibility='default-visibility' alias='_ZNSt8_Rb_treeINSt7__cxx1112basic_stringIcSt11char_traitsIcESaIcEEESt4pairIKS5_S5_ESt10_Select1stIS8_ESt4lessIS5_ESaIS8_EE13_Rb_tree_implISC_Lb1EEC2Ev' is-defined='yes'/>
    <elf-symbol name='_ZNSt8_Rb_treeINSt7__cxx1112basic_stringIcSt11char_traitsIcESaIcEEESt4pairIKS5_S5_ESt10_Select1stIS8_ESt4lessIS5_ESaIS8_EE13_Rb_tree_implISC_Lb1EEC2Ev' type='func-type' binding='weak-binding' visibility='default-visibility' is-defined='yes'/>
    <elf-symbol name='_ZNSt8_Rb_treeINSt7__cxx1112basic_stringIcSt11char_traitsIcESaIcEEESt4pairIKS5_S5_ESt10_Select1stIS8_ESt4lessIS5_ESaIS8_EE15_M_destroy_nodeEPSt13_Rb_tree_nodeIS8_E' type='func-type' binding='weak-binding' visibility='default-visibility' is-defined='yes'/>
    <elf-symbol name='_ZNSt8_Rb_treeINSt7__cxx1112basic_stringIcSt11char_traitsIcESaIcEEESt4pairIKS5_S5_ESt10_Select1stIS8_ESt4lessIS5_ESaIS8_EE21_M_get_Node_allocatorEv' type='func-type' binding='weak-binding' visibility='default-visibility' is-defined='yes'/>
    <elf-symbol name='_ZNSt8_Rb_treeINSt7__cxx1112basic_stringIcSt11char_traitsIcESaIcEEESt4pairIKS5_S5_ESt10_Select1stIS8_ESt4lessIS5_ESaIS8_EE7_S_leftEPSt18_Rb_tree_node_base' type='func-type' binding='weak-binding' visibility='default-visibility' is-defined='yes'/>
    <elf-symbol name='_ZNSt8_Rb_treeINSt7__cxx1112basic_stringIcSt11char_traitsIcESaIcEEESt4pairIKS5_S5_ESt10_Select1stIS8_ESt4lessIS5_ESaIS8_EE8_M_beginEv' type='func-type' binding='weak-binding' visibility='default-visibility' is-defined='yes'/>
    <elf-symbol name='_ZNSt8_Rb_treeINSt7__cxx1112basic_stringIcSt11char_traitsIcESaIcEEESt4pairIKS5_S5_ESt10_Select1stIS8_ESt4lessIS5_ESaIS8_EE8_M_eraseEPSt13_Rb_tree_nodeIS8_E' type='func-type' binding='weak-binding' visibility='default-visibility' is-defined='yes'/>
    <elf-symbol name='_ZNSt8_Rb_treeINSt7__cxx1112basic_stringIcSt11char_traitsIcESaIcEEESt4pairIKS5_S5_ESt10_Select1stIS8_ESt4lessIS5_ESaIS8_EE8_S_rightEPSt18_Rb_tree_node_base' type='func-type' binding='weak-binding' visibility='default-visibility' is-defined='yes'/>
    <elf-symbol name='_ZNSt8_Rb_treeINSt7__cxx1112basic_stringIcSt11char_traitsIcESaIcEEESt4pairIKS5_S5_ESt10_Select1stIS8_ESt4lessIS5_ESaIS8_EED1Ev' type='func-type' binding='weak-binding' visibility='default-visibility' alias='_ZNSt8_Rb_treeINSt7__cxx1112basic_stringIcSt11char_traitsIcESaIcEEESt4pairIKS5_S5_ESt10_Select1stIS8_ESt4lessIS5_ESaIS8_EED2Ev' is-defined='yes'/>
    <elf-symbol name='_ZNSt8_Rb_treeINSt7__cxx1112basic_stringIcSt11char_traitsIcESaIcEEESt4pairIKS5_S5_ESt10_Select1stIS8_ESt4lessIS5_ESaIS8_EED2Ev' type='func-type' binding='weak-binding' visibility='default-visibility' is-defined='yes'/>
    <elf-symbol name='_ZNSt8functionIFbRKNSt7__cxx1112basic_stringIcSt11char_traitsIcESaIcEEES7_EE4swapERS9_' type='func-type' binding='weak-binding' visibility='default-visibility' is-defined='yes'/>
    <elf-symbol name='_ZNSt8functionIFbRKNSt7__cxx1112basic_stringIcSt11char_traitsIcESaIcEEES7_EEC1EOS9_' type='func-type' binding='weak-binding' visibility='default-visibility' is-defined='yes'/>
    <elf-symbol name='_ZNSt8functionIFbRKNSt7__cxx1112basic_stringIcSt11char_traitsIcESaIcEEES7_EEC2EOS9_' type='func-type' binding='weak-binding' visibility='default-visibility' alias='_ZNSt8functionIFbRKNSt7__cxx1112basic_stringIcSt11char_traitsIcESaIcEEES7_EEC1EOS9_' is-defined='yes'/>
    <elf-symbol name='_ZNSt8weak_ptrIN10prometheus11CollectableEEC1INS0_8RegistryEvEERKSt10shared_ptrIT_E' type='func-type' binding='weak-binding' visibility='default-visibility' is-defined='yes'/>
    <elf-symbol name='_ZNSt8weak_ptrIN10prometheus11CollectableEEC2INS0_8RegistryEvEERKSt10shared_ptrIT_E' type='func-type' binding='weak-binding' visibility='default-visibility' alias='_ZNSt8weak_ptrIN10prometheus11CollectableEEC1INS0_8RegistryEvEERKSt10shared_ptrIT_E' is-defined='yes'/>
    <elf-symbol name='_ZSt10_ConstructIN10prometheus12MetricFamilyEJS1_EEvPT_DpOT0_' type='func-type' binding='weak-binding' visibility='default-visibility' is-defined='yes'/>
    <elf-symbol name='_ZSt10_ConstructIN10prometheus6detail13CKMSQuantiles8QuantileEJRKS3_EEvPT_DpOT0_' type='func-type' binding='weak-binding' visibility='default-visibility' is-defined='yes'/>
    <elf-symbol name='_ZSt10_ConstructINSt7__cxx1112basic_stringIcSt11char_traitsIcESaIcEEEJRKS5_EEvPT_DpOT0_' type='func-type' binding='weak-binding' visibility='default-visibility' is-defined='yes'/>
    <elf-symbol name='_ZSt10_ConstructISt8weak_ptrIN10prometheus11CollectableEEJS3_EEvPT_DpOT0_' type='func-type' binding='weak-binding' visibility='default-visibility' is-defined='yes'/>
    <elf-symbol name='_ZSt10__distanceIN9__gnu_cxx17__normal_iteratorIPcSt6vectorIcSaIcEEEEENSt15iterator_traitsIT_E15difference_typeES8_S8_St26random_access_iterator_tag' type='func-type' binding='weak-binding' visibility='default-visibility' is-defined='yes'/>
    <elf-symbol name='_ZSt10__distanceIPKN10prometheus6detail13CKMSQuantiles8QuantileEENSt15iterator_traitsIT_E15difference_typeES7_S7_St26random_access_iterator_tag' type='func-type' binding='weak-binding' visibility='default-visibility' is-defined='yes'/>
    <elf-symbol name='_ZSt10__distanceIPKNSt7__cxx1112basic_stringIcSt11char_traitsIcESaIcEEEENSt15iterator_traitsIT_E15difference_typeES9_S9_St26random_access_iterator_tag' type='func-type' binding='weak-binding' visibility='default-visibility' is-defined='yes'/>
    <elf-symbol name='_ZSt10__distanceIPcENSt15iterator_traitsIT_E15difference_typeES2_S2_St26random_access_iterator_tag' type='func-type' binding='weak-binding' visibility='default-visibility' is-defined='yes'/>
    <elf-symbol name='_ZSt10__distanceISt13move_iteratorIN9__gnu_cxx17__normal_iteratorIPN10prometheus12MetricFamilyESt6vectorIS4_SaIS4_EEEEEENSt15iterator_traitsIT_E15difference_typeESC_SC_St26random_access_iterator_tag' type='func-type' binding='weak-binding' visibility='default-visibility' is-defined='yes'/>
    <elf-symbol name='_ZSt10__fill_n_aIPPKcmS1_EN9__gnu_cxx11__enable_ifIXsrSt11__is_scalarIT1_E7__valueET_E6__typeES8_T0_RKS6_' type='func-type' binding='weak-binding' visibility='default-visibility' is-defined='yes'/>
    <elf-symbol name='_ZSt10__fill_n_aIPimiEN9__gnu_cxx11__enable_ifIXsrSt11__is_scalarIT1_E7__valueET_E6__typeES6_T0_RKS4_' type='func-type' binding='weak-binding' visibility='default-visibility' is-defined='yes'/>
    <elf-symbol name='_ZSt10__fill_n_aImcEN9__gnu_cxx11__enable_ifIXsrSt9__is_byteIT0_E7__valueEPS3_E6__typeES5_T_RKS3_' type='func-type' binding='weak-binding' visibility='default-visibility' is-defined='yes'/>
    <elf-symbol name='_ZSt10__fill_n_aImhEN9__gnu_cxx11__enable_ifIXsrSt9__is_byteIT0_E7__valueEPS3_E6__typeES5_T_RKS3_' type='func-type' binding='weak-binding' visibility='default-visibility' is-defined='yes'/>
    <elf-symbol name='_ZSt11__addressofIN10prometheus12ClientMetric5LabelEEPT_RS3_' type='func-type' binding='weak-binding' visibility='default-visibility' is-defined='yes'/>
    <elf-symbol name='_ZSt11__addressofIN10prometheus12ClientMetricEEPT_RS2_' type='func-type' binding='weak-binding' visibility='default-visibility' is-defined='yes'/>
    <elf-symbol name='_ZSt11__addressofIN10prometheus12MetricFamilyEEPT_RS2_' type='func-type' binding='weak-binding' visibility='default-visibility' is-defined='yes'/>
    <elf-symbol name='_ZSt11__addressofIN10prometheus6detail13CKMSQuantiles8QuantileEEPT_RS4_' type='func-type' binding='weak-binding' visibility='default-visibility' is-defined='yes'/>
    <elf-symbol name='_ZSt11__addressofIN10prometheus6detail13CKMSQuantilesEEPT_RS3_' type='func-type' binding='weak-binding' visibility='default-visibility' is-defined='yes'/>
    <elf-symbol name='_ZSt11__addressofINSt7__cxx1112basic_stringIcSt11char_traitsIcESaIcEEEEPT_RS6_' type='func-type' binding='weak-binding' visibility='default-visibility' is-defined='yes'/>
    <elf-symbol name='_ZSt11__addressofISaISt23_Sp_counted_ptr_inplaceIN10prometheus8RegistryESaIS2_ELN9__gnu_cxx12_Lock_policyE2EEEEPT_RS8_' type='func-type' binding='weak-binding' visibility='default-visibility' is-defined='yes'/>
    <elf-symbol name='_ZSt11__addressofISt8weak_ptrIN10prometheus11CollectableEEEPT_RS4_' type='func-type' binding='weak-binding' visibility='default-visibility' is-defined='yes'/>
    <elf-symbol name='_ZSt11make_sharedIN10prometheus8RegistryEJEESt10shared_ptrIT_EDpOT0_' type='func-type' binding='weak-binding' visibility='default-visibility' is-defined='yes'/>
    <elf-symbol name='_ZSt12__get_helperILm0EPN10prometheus10SerializerEJSt14default_deleteIS1_EEERKT0_RKSt11_Tuple_implIXT_EJS5_DpT1_EE' type='func-type' binding='weak-binding' visibility='default-visibility' is-defined='yes'/>
    <elf-symbol name='_ZSt12__get_helperILm0EPN10prometheus10SerializerEJSt14default_deleteIS1_EEERT0_RSt11_Tuple_implIXT_EJS5_DpT1_EE' type='func-type' binding='weak-binding' visibility='default-visibility' is-defined='yes'/>
    <elf-symbol name='_ZSt12__get_helperILm0EPN10prometheus7CounterEJSt14default_deleteIS1_EEERT0_RSt11_Tuple_implIXT_EJS5_DpT1_EE' type='func-type' binding='weak-binding' visibility='default-visibility' is-defined='yes'/>
    <elf-symbol name='_ZSt12__get_helperILm0EPN10prometheus7SummaryEJSt14default_deleteIS1_EEERT0_RSt11_Tuple_implIXT_EJS5_DpT1_EE' type='func-type' binding='weak-binding' visibility='default-visibility' is-defined='yes'/>
    <elf-symbol name='_ZSt12__get_helperILm1ESt14default_deleteIN10prometheus10SerializerEEJEERT0_RSt11_Tuple_implIXT_EJS4_DpT1_EE' type='func-type' binding='weak-binding' visibility='default-visibility' is-defined='yes'/>
    <elf-symbol name='_ZSt12__get_helperILm1ESt14default_deleteIN10prometheus7CounterEEJEERT0_RSt11_Tuple_implIXT_EJS4_DpT1_EE' type='func-type' binding='weak-binding' visibility='default-visibility' is-defined='yes'/>
    <elf-symbol name='_ZSt12__get_helperILm1ESt14default_deleteIN10prometheus7SummaryEEJEERT0_RSt11_Tuple_implIXT_EJS4_DpT1_EE' type='func-type' binding='weak-binding' visibility='default-visibility' is-defined='yes'/>
    <elf-symbol name='_ZSt12__miter_baseIN9__gnu_cxx17__normal_iteratorIPN10prometheus12MetricFamilyESt6vectorIS3_SaIS3_EEEEEDTcl12__miter_basecldtfp_4baseEEESt13move_iteratorIT_E' type='func-type' binding='weak-binding' visibility='default-visibility' is-defined='yes'/>
    <elf-symbol name='_ZSt12__miter_baseIN9__gnu_cxx17__normal_iteratorIPN10prometheus12MetricFamilyESt6vectorIS3_SaIS3_EEEEET_S9_' type='func-type' binding='weak-binding' visibility='default-visibility' is-defined='yes'/>
    <elf-symbol name='_ZSt12__miter_baseIN9__gnu_cxx17__normal_iteratorIPSt8weak_ptrIN10prometheus11CollectableEESt6vectorIS5_SaIS5_EEEEET_SB_' type='func-type' binding='weak-binding' visibility='default-visibility' is-defined='yes'/>
    <elf-symbol name='_ZSt12__miter_baseIPN10prometheus12MetricFamilyEET_S3_' type='func-type' binding='weak-binding' visibility='default-visibility' is-defined='yes'/>
    <elf-symbol name='_ZSt12__miter_baseIPcEDTcl12__miter_basecldtfp_4baseEEESt13move_iteratorIT_E' type='func-type' binding='weak-binding' visibility='default-visibility' is-defined='yes'/>
    <elf-symbol name='_ZSt12__miter_baseIPcET_S1_' type='func-type' binding='weak-binding' visibility='default-visibility' is-defined='yes'/>
    <elf-symbol name='_ZSt12__miter_baseIPhEDTcl12__miter_basecldtfp_4baseEEESt13move_iteratorIT_E' type='func-type' binding='weak-binding' visibility='default-visibility' is-defined='yes'/>
    <elf-symbol name='_ZSt12__miter_baseIPhET_S1_' type='func-type' binding='weak-binding' visibility='default-visibility' is-defined='yes'/>
    <elf-symbol name='_ZSt12__niter_baseIPN10prometheus12MetricFamilyEET_S3_' type='func-type' binding='weak-binding' visibility='default-visibility' is-defined='yes'/>
    <elf-symbol name='_ZSt12__niter_baseIPN10prometheus12MetricFamilyESt6vectorIS1_SaIS1_EEET_N9__gnu_cxx17__normal_iteratorIS6_T0_EE' type='func-type' binding='weak-binding' visibility='default-visibility' is-defined='yes'/>
    <elf-symbol name='_ZSt12__niter_baseIPPKcET_S3_' type='func-type' binding='weak-binding' visibility='default-visibility' is-defined='yes'/>
    <elf-symbol name='_ZSt12__niter_baseIPSt8weak_ptrIN10prometheus11CollectableEEET_S5_' type='func-type' binding='weak-binding' visibility='default-visibility' is-defined='yes'/>
    <elf-symbol name='_ZSt12__niter_baseIPSt8weak_ptrIN10prometheus11CollectableEESt6vectorIS3_SaIS3_EEET_N9__gnu_cxx17__normal_iteratorIS8_T0_EE' type='func-type' binding='weak-binding' visibility='default-visibility' is-defined='yes'/>
    <elf-symbol name='_ZSt12__niter_baseIPcET_S1_' type='func-type' binding='weak-binding' visibility='default-visibility' is-defined='yes'/>
    <elf-symbol name='_ZSt12__niter_baseIPcSt6vectorIcSaIcEEET_N9__gnu_cxx17__normal_iteratorIS4_T0_EE' type='func-type' binding='weak-binding' visibility='default-visibility' is-defined='yes'/>
    <elf-symbol name='_ZSt12__niter_baseIPhET_S1_' type='func-type' binding='weak-binding' visibility='default-visibility' is-defined='yes'/>
    <elf-symbol name='_ZSt12__niter_baseIPiET_S1_' type='func-type' binding='weak-binding' visibility='default-visibility' is-defined='yes'/>
    <elf-symbol name='_ZSt12__niter_wrapIN9__gnu_cxx17__normal_iteratorIPN10prometheus12MetricFamilyESt6vectorIS3_SaIS3_EEEES4_ET_S9_T0_' type='func-type' binding='weak-binding' visibility='default-visibility' is-defined='yes'/>
    <elf-symbol name='_ZSt12__niter_wrapIN9__gnu_cxx17__normal_iteratorIPSt8weak_ptrIN10prometheus11CollectableEESt6vectorIS5_SaIS5_EEEES6_ET_SB_T0_' type='func-type' binding='weak-binding' visibility='default-visibility' is-defined='yes'/>
    <elf-symbol name='_ZSt12__niter_wrapIN9__gnu_cxx17__normal_iteratorIPcSt6vectorIcSaIcEEEES2_ET_S7_T0_' type='func-type' binding='weak-binding' visibility='default-visibility' is-defined='yes'/>
    <elf-symbol name='_ZSt12__niter_wrapIPN10prometheus12MetricFamilyEET_RKS3_S3_' type='func-type' binding='weak-binding' visibility='default-visibility' is-defined='yes'/>
    <elf-symbol name='_ZSt12__niter_wrapIPPKcET_RKS3_S3_' type='func-type' binding='weak-binding' visibility='default-visibility' is-defined='yes'/>
    <elf-symbol name='_ZSt12__niter_wrapIPcET_RKS1_S1_' type='func-type' binding='weak-binding' visibility='default-visibility' is-defined='yes'/>
    <elf-symbol name='_ZSt12__niter_wrapIPhET_RKS1_S1_' type='func-type' binding='weak-binding' visibility='default-visibility' is-defined='yes'/>
    <elf-symbol name='_ZSt12__niter_wrapIPiET_RKS1_S1_' type='func-type' binding='weak-binding' visibility='default-visibility' is-defined='yes'/>
    <elf-symbol name='_ZSt12__relocate_aIPSt8weak_ptrIN10prometheus11CollectableEES4_SaIS3_EET0_T_S7_S6_RT1_' type='func-type' binding='weak-binding' visibility='default-visibility' is-defined='yes'/>
    <elf-symbol name='_ZSt12__relocate_aIPcS0_SaIcEET0_T_S3_S2_RT1_' type='func-type' binding='weak-binding' visibility='default-visibility' is-defined='yes'/>
    <elf-symbol name='_ZSt12__relocate_aIPhS0_SaIhEET0_T_S3_S2_RT1_' type='func-type' binding='weak-binding' visibility='default-visibility' is-defined='yes'/>
    <elf-symbol name='_ZSt12__to_addressISt23_Sp_counted_ptr_inplaceIN10prometheus8RegistryESaIS2_ELN9__gnu_cxx12_Lock_policyE2EEEPT_S8_' type='func-type' binding='weak-binding' visibility='default-visibility' is-defined='yes'/>
    <elf-symbol name='_ZSt13__copy_move_aILb0EPcS0_ET1_T0_S2_S1_' type='func-type' binding='weak-binding' visibility='default-visibility' is-defined='yes'/>
    <elf-symbol name='_ZSt13__copy_move_aILb1EPN10prometheus12MetricFamilyES2_ET1_T0_S4_S3_' type='func-type' binding='weak-binding' visibility='default-visibility' is-defined='yes'/>
    <elf-symbol name='_ZSt13__copy_move_aILb1EPSt8weak_ptrIN10prometheus11CollectableEES4_ET1_T0_S6_S5_' type='func-type' binding='weak-binding' visibility='default-visibility' is-defined='yes'/>
    <elf-symbol name='_ZSt13__copy_move_aILb1EPcS0_ET1_T0_S2_S1_' type='func-type' binding='weak-binding' visibility='default-visibility' is-defined='yes'/>
    <elf-symbol name='_ZSt13__copy_move_aILb1EPhS0_ET1_T0_S2_S1_' type='func-type' binding='weak-binding' visibility='default-visibility' is-defined='yes'/>
    <elf-symbol name='_ZSt13move_backwardIPN10prometheus12MetricFamilyES2_ET0_T_S4_S3_' type='func-type' binding='weak-binding' visibility='default-visibility' is-defined='yes'/>
    <elf-symbol name='_ZSt13move_backwardIPcS0_ET0_T_S2_S1_' type='func-type' binding='weak-binding' visibility='default-visibility' is-defined='yes'/>
    <elf-symbol name='_ZSt14__copy_move_a2ILb0EPcN9__gnu_cxx17__normal_iteratorIS0_St6vectorIcSaIcEEEEET1_T0_S8_S7_' type='func-type' binding='weak-binding' visibility='default-visibility' is-defined='yes'/>
    <elf-symbol name='_ZSt14__copy_move_a2ILb0EPcS0_ET1_T0_S2_S1_' type='func-type' binding='weak-binding' visibility='default-visibility' is-defined='yes'/>
    <elf-symbol name='_ZSt14__copy_move_a2ILb1EN9__gnu_cxx17__normal_iteratorIPN10prometheus12MetricFamilyESt6vectorIS3_SaIS3_EEEES8_ET1_T0_SA_S9_' type='func-type' binding='weak-binding' visibility='default-visibility' is-defined='yes'/>
    <elf-symbol name='_ZSt14__copy_move_a2ILb1EN9__gnu_cxx17__normal_iteratorIPSt8weak_ptrIN10prometheus11CollectableEESt6vectorIS5_SaIS5_EEEESA_ET1_T0_SC_SB_' type='func-type' binding='weak-binding' visibility='default-visibility' is-defined='yes'/>
    <elf-symbol name='_ZSt14__copy_move_a2ILb1EPcS0_ET1_T0_S2_S1_' type='func-type' binding='weak-binding' visibility='default-visibility' is-defined='yes'/>
    <elf-symbol name='_ZSt14__copy_move_a2ILb1EPhS0_ET1_T0_S2_S1_' type='func-type' binding='weak-binding' visibility='default-visibility' is-defined='yes'/>
    <elf-symbol name='_ZSt14__relocate_a_1IPSt8weak_ptrIN10prometheus11CollectableEES4_SaIS3_EET0_T_S7_S6_RT1_' type='func-type' binding='weak-binding' visibility='default-visibility' is-defined='yes'/>
    <elf-symbol name='_ZSt14__relocate_a_1IccENSt9enable_ifIXsrSt24__is_bitwise_relocatableIT_vE5valueEPS2_E4typeES4_S4_S4_RSaIT0_E' type='func-type' binding='weak-binding' visibility='default-visibility' is-defined='yes'/>
    <elf-symbol name='_ZSt14__relocate_a_1IhhENSt9enable_ifIXsrSt24__is_bitwise_relocatableIT_vE5valueEPS2_E4typeES4_S4_S4_RSaIT0_E' type='func-type' binding='weak-binding' visibility='default-visibility' is-defined='yes'/>
    <elf-symbol name='_ZSt15__alloc_on_moveISaIN10prometheus12ClientMetricEEEvRT_S4_' type='func-type' binding='weak-binding' visibility='default-visibility' is-defined='yes'/>
    <elf-symbol name='_ZSt15__alloc_on_moveISaIN10prometheus12MetricFamilyEEEvRT_S4_' type='func-type' binding='weak-binding' visibility='default-visibility' is-defined='yes'/>
    <elf-symbol name='_ZSt15__alloc_on_moveISaIcEEvRT_S2_' type='func-type' binding='weak-binding' visibility='default-visibility' is-defined='yes'/>
    <elf-symbol name='_ZSt15allocate_sharedIN10prometheus8RegistryESaIS1_EJEESt10shared_ptrIT_ERKT0_DpOT1_' type='func-type' binding='weak-binding' visibility='default-visibility' is-defined='yes'/>
    <elf-symbol name='_ZSt18__allocate_guardedISaISt23_Sp_counted_ptr_inplaceIN10prometheus8RegistryESaIS2_ELN9__gnu_cxx12_Lock_policyE2EEEESt15__allocated_ptrIT_ERS9_' type='func-type' binding='weak-binding' visibility='default-visibility' is-defined='yes'/>
    <elf-symbol name='_ZSt18__do_alloc_on_moveISaIN10prometheus12ClientMetricEEEvRT_S4_St17integral_constantIbLb1EE' type='func-type' binding='weak-binding' visibility='default-visibility' is-defined='yes'/>
    <elf-symbol name='_ZSt18__do_alloc_on_moveISaIN10prometheus12MetricFamilyEEEvRT_S4_St17integral_constantIbLb1EE' type='func-type' binding='weak-binding' visibility='default-visibility' is-defined='yes'/>
    <elf-symbol name='_ZSt18__do_alloc_on_moveISaIcEEvRT_S2_St17integral_constantIbLb1EE' type='func-type' binding='weak-binding' visibility='default-visibility' is-defined='yes'/>
    <elf-symbol name='_ZSt18make_move_iteratorIN9__gnu_cxx17__normal_iteratorIPN10prometheus12MetricFamilyESt6vectorIS3_SaIS3_EEEEESt13move_iteratorIT_ESA_' type='func-type' binding='weak-binding' visibility='default-visibility' is-defined='yes'/>
    <elf-symbol name='_ZSt18make_move_iteratorIPN10prometheus12MetricFamilyEESt13move_iteratorIT_ES4_' type='func-type' binding='weak-binding' visibility='default-visibility' is-defined='yes'/>
    <elf-symbol name='_ZSt18make_move_iteratorIPcESt13move_iteratorIT_ES2_' type='func-type' binding='weak-binding' visibility='default-visibility' is-defined='yes'/>
    <elf-symbol name='_ZSt18uninitialized_copyIPKN10prometheus6detail13CKMSQuantiles8QuantileEPS3_ET0_T_S8_S7_' type='func-type' binding='weak-binding' visibility='default-visibility' is-defined='yes'/>
    <elf-symbol name='_ZSt18uninitialized_copyIPKNSt7__cxx1112basic_stringIcSt11char_traitsIcESaIcEEEPS5_ET0_T_SA_S9_' type='func-type' binding='weak-binding' visibility='default-visibility' is-defined='yes'/>
    <elf-symbol name='_ZSt18uninitialized_copyIPcS0_ET0_T_S2_S1_' type='func-type' binding='weak-binding' visibility='default-visibility' is-defined='yes'/>
    <elf-symbol name='_ZSt18uninitialized_copyISt13move_iteratorIN9__gnu_cxx17__normal_iteratorIPN10prometheus12MetricFamilyESt6vectorIS4_SaIS4_EEEEES5_ET0_T_SC_SB_' type='func-type' binding='weak-binding' visibility='default-visibility' is-defined='yes'/>
    <elf-symbol name='_ZSt18uninitialized_copyISt13move_iteratorIPN10prometheus12MetricFamilyEES3_ET0_T_S6_S5_' type='func-type' binding='weak-binding' visibility='default-visibility' is-defined='yes'/>
    <elf-symbol name='_ZSt18uninitialized_copyISt13move_iteratorIPSt8weak_ptrIN10prometheus11CollectableEEES5_ET0_T_S8_S7_' type='func-type' binding='weak-binding' visibility='default-visibility' is-defined='yes'/>
    <elf-symbol name='_ZSt18uninitialized_copyISt13move_iteratorIPcES1_ET0_T_S4_S3_' type='func-type' binding='weak-binding' visibility='default-visibility' is-defined='yes'/>
    <elf-symbol name='_ZSt18uninitialized_copyISt13move_iteratorIPhES1_ET0_T_S4_S3_' type='func-type' binding='weak-binding' visibility='default-visibility' is-defined='yes'/>
    <elf-symbol name='_ZSt19__iterator_categoryIN9__gnu_cxx17__normal_iteratorIPSt8weak_ptrIN10prometheus11CollectableEESt6vectorIS5_SaIS5_EEEEENSt15iterator_traitsIT_E17iterator_categoryERKSC_' type='func-type' binding='weak-binding' visibility='default-visibility' is-defined='yes'/>
    <elf-symbol name='_ZSt19__iterator_categoryIN9__gnu_cxx17__normal_iteratorIPcSt6vectorIcSaIcEEEEENSt15iterator_traitsIT_E17iterator_categoryERKS8_' type='func-type' binding='weak-binding' visibility='default-visibility' is-defined='yes'/>
    <elf-symbol name='_ZSt19__iterator_categoryIPKN10prometheus6detail13CKMSQuantiles8QuantileEENSt15iterator_traitsIT_E17iterator_categoryERKS7_' type='func-type' binding='weak-binding' visibility='default-visibility' is-defined='yes'/>
    <elf-symbol name='_ZSt19__iterator_categoryIPKNSt7__cxx1112basic_stringIcSt11char_traitsIcESaIcEEEENSt15iterator_traitsIT_E17iterator_categoryERKS9_' type='func-type' binding='weak-binding' visibility='default-visibility' is-defined='yes'/>
    <elf-symbol name='_ZSt19__iterator_categoryIPcENSt15iterator_traitsIT_E17iterator_categoryERKS2_' type='func-type' binding='weak-binding' visibility='default-visibility' is-defined='yes'/>
    <elf-symbol name='_ZSt19__iterator_categoryISt13move_iteratorIN9__gnu_cxx17__normal_iteratorIPN10prometheus12MetricFamilyESt6vectorIS4_SaIS4_EEEEEENSt15iterator_traitsIT_E17iterator_categoryERKSC_' type='func-type' binding='weak-binding' visibility='default-visibility' is-defined='yes'/>
    <elf-symbol name='_ZSt19__relocate_object_aISt8weak_ptrIN10prometheus11CollectableEES3_SaIS3_EEvPT_PT0_RT1_' type='func-type' binding='weak-binding' visibility='default-visibility' is-defined='yes'/>
    <elf-symbol name='_ZSt20uninitialized_fill_nIPcmcET_S1_T0_RKT1_' type='func-type' binding='weak-binding' visibility='default-visibility' is-defined='yes'/>
    <elf-symbol name='_ZSt22__copy_move_backward_aILb1EPN10prometheus12MetricFamilyES2_ET1_T0_S4_S3_' type='func-type' binding='weak-binding' visibility='default-visibility' is-defined='yes'/>
    <elf-symbol name='_ZSt22__copy_move_backward_aILb1EPcS0_ET1_T0_S2_S1_' type='func-type' binding='weak-binding' visibility='default-visibility' is-defined='yes'/>
    <elf-symbol name='_ZSt22__uninitialized_copy_aIPKN10prometheus6detail13CKMSQuantiles8QuantileEPS3_S3_ET0_T_S8_S7_RSaIT1_E' type='func-type' binding='weak-binding' visibility='default-visibility' is-defined='yes'/>
    <elf-symbol name='_ZSt22__uninitialized_copy_aIPKNSt7__cxx1112basic_stringIcSt11char_traitsIcESaIcEEEPS5_S5_ET0_T_SA_S9_RSaIT1_E' type='func-type' binding='weak-binding' visibility='default-visibility' is-defined='yes'/>
    <elf-symbol name='_ZSt22__uninitialized_copy_aIPcS0_cET0_T_S2_S1_RSaIT1_E' type='func-type' binding='weak-binding' visibility='default-visibility' is-defined='yes'/>
    <elf-symbol name='_ZSt22__uninitialized_copy_aISt13move_iteratorIN9__gnu_cxx17__normal_iteratorIPN10prometheus12MetricFamilyESt6vectorIS4_SaIS4_EEEEES5_S4_ET0_T_SC_SB_RSaIT1_E' type='func-type' binding='weak-binding' visibility='default-visibility' is-defined='yes'/>
    <elf-symbol name='_ZSt22__uninitialized_copy_aISt13move_iteratorIPN10prometheus12MetricFamilyEES3_S2_ET0_T_S6_S5_RSaIT1_E' type='func-type' binding='weak-binding' visibility='default-visibility' is-defined='yes'/>
    <elf-symbol name='_ZSt22__uninitialized_copy_aISt13move_iteratorIPSt8weak_ptrIN10prometheus11CollectableEEES5_S4_ET0_T_S8_S7_RSaIT1_E' type='func-type' binding='weak-binding' visibility='default-visibility' is-defined='yes'/>
    <elf-symbol name='_ZSt22__uninitialized_copy_aISt13move_iteratorIPcES1_cET0_T_S4_S3_RSaIT1_E' type='func-type' binding='weak-binding' visibility='default-visibility' is-defined='yes'/>
    <elf-symbol name='_ZSt22__uninitialized_copy_aISt13move_iteratorIPhES1_hET0_T_S4_S3_RSaIT1_E' type='func-type' binding='weak-binding' visibility='default-visibility' is-defined='yes'/>
    <elf-symbol name='_ZSt22__uninitialized_move_aIPN10prometheus12MetricFamilyES2_SaIS1_EET0_T_S5_S4_RT1_' type='func-type' binding='weak-binding' visibility='default-visibility' is-defined='yes'/>
    <elf-symbol name='_ZSt22__uninitialized_move_aIPcS0_SaIcEET0_T_S3_S2_RT1_' type='func-type' binding='weak-binding' visibility='default-visibility' is-defined='yes'/>
    <elf-symbol name='_ZSt23__copy_move_backward_a2ILb1EPN10prometheus12MetricFamilyES2_ET1_T0_S4_S3_' type='func-type' binding='weak-binding' visibility='default-visibility' is-defined='yes'/>
    <elf-symbol name='_ZSt23__copy_move_backward_a2ILb1EPcS0_ET1_T0_S2_S1_' type='func-type' binding='weak-binding' visibility='default-visibility' is-defined='yes'/>
    <elf-symbol name='_ZSt24__uninitialized_fill_n_aIPcmccET_S1_T0_RKT1_RSaIT2_E' type='func-type' binding='weak-binding' visibility='default-visibility' is-defined='yes'/>
    <elf-symbol name='_ZSt25__uninitialized_default_nIPPKcmET_S3_T0_' type='func-type' binding='weak-binding' visibility='default-visibility' is-defined='yes'/>
    <elf-symbol name='_ZSt25__uninitialized_default_nIPcmET_S1_T0_' type='func-type' binding='weak-binding' visibility='default-visibility' is-defined='yes'/>
    <elf-symbol name='_ZSt25__uninitialized_default_nIPhmET_S1_T0_' type='func-type' binding='weak-binding' visibility='default-visibility' is-defined='yes'/>
    <elf-symbol name='_ZSt25__uninitialized_default_nIPimET_S1_T0_' type='func-type' binding='weak-binding' visibility='default-visibility' is-defined='yes'/>
    <elf-symbol name='_ZSt27__uninitialized_default_n_aIPPKcmS1_ET_S3_T0_RSaIT1_E' type='func-type' binding='weak-binding' visibility='default-visibility' is-defined='yes'/>
    <elf-symbol name='_ZSt27__uninitialized_default_n_aIPcmcET_S1_T0_RSaIT1_E' type='func-type' binding='weak-binding' visibility='default-visibility' is-defined='yes'/>
    <elf-symbol name='_ZSt27__uninitialized_default_n_aIPhmhET_S1_T0_RSaIT1_E' type='func-type' binding='weak-binding' visibility='default-visibility' is-defined='yes'/>
    <elf-symbol name='_ZSt27__uninitialized_default_n_aIPimiET_S1_T0_RSaIT1_E' type='func-type' binding='weak-binding' visibility='default-visibility' is-defined='yes'/>
    <elf-symbol name='_ZSt32__make_move_if_noexcept_iteratorIN10prometheus12MetricFamilyESt13move_iteratorIPS1_EET0_PT_' type='func-type' binding='weak-binding' visibility='default-visibility' is-defined='yes'/>
    <elf-symbol name='_ZSt32__make_move_if_noexcept_iteratorISt8weak_ptrIN10prometheus11CollectableEESt13move_iteratorIPS3_EET0_PT_' type='func-type' binding='weak-binding' visibility='default-visibility' is-defined='yes'/>
    <elf-symbol name='_ZSt32__make_move_if_noexcept_iteratorIcSt13move_iteratorIPcEET0_PT_' type='func-type' binding='weak-binding' visibility='default-visibility' is-defined='yes'/>
    <elf-symbol name='_ZSt32__make_move_if_noexcept_iteratorIhSt13move_iteratorIPhEET0_PT_' type='func-type' binding='weak-binding' visibility='default-visibility' is-defined='yes'/>
    <elf-symbol name='_ZSt34__uninitialized_move_if_noexcept_aIPN10prometheus12MetricFamilyES2_SaIS1_EET0_T_S5_S4_RT1_' type='func-type' binding='weak-binding' visibility='default-visibility' is-defined='yes'/>
    <elf-symbol name='_ZSt34__uninitialized_move_if_noexcept_aIPSt8weak_ptrIN10prometheus11CollectableEES4_SaIS3_EET0_T_S7_S6_RT1_' type='func-type' binding='weak-binding' visibility='default-visibility' is-defined='yes'/>
    <elf-symbol name='_ZSt34__uninitialized_move_if_noexcept_aIPcS0_SaIcEET0_T_S3_S2_RT1_' type='func-type' binding='weak-binding' visibility='default-visibility' is-defined='yes'/>
    <elf-symbol name='_ZSt34__uninitialized_move_if_noexcept_aIPhS0_SaIhEET0_T_S3_S2_RT1_' type='func-type' binding='weak-binding' visibility='default-visibility' is-defined='yes'/>
    <elf-symbol name='_ZSt3endISt6vectorISt8weak_ptrIN10prometheus11CollectableEESaIS4_EEEDTcldtfp_3endEERT_' type='func-type' binding='weak-binding' visibility='default-visibility' is-defined='yes'/>
    <elf-symbol name='_ZSt3getILm0EJPN10prometheus10SerializerESt14default_deleteIS1_EEERKNSt13tuple_elementIXT_ESt5tupleIJDpT0_EEE4typeERKS9_' type='func-type' binding='weak-binding' visibility='default-visibility' is-defined='yes'/>
    <elf-symbol name='_ZSt3getILm0EJPN10prometheus10SerializerESt14default_deleteIS1_EEERNSt13tuple_elementIXT_ESt5tupleIJDpT0_EEE4typeERS9_' type='func-type' binding='weak-binding' visibility='default-visibility' is-defined='yes'/>
    <elf-symbol name='_ZSt3getILm0EJPN10prometheus7CounterESt14default_deleteIS1_EEERNSt13tuple_elementIXT_ESt5tupleIJDpT0_EEE4typeERS9_' type='func-type' binding='weak-binding' visibility='default-visibility' is-defined='yes'/>
    <elf-symbol name='_ZSt3getILm0EJPN10prometheus7SummaryESt14default_deleteIS1_EEERNSt13tuple_elementIXT_ESt5tupleIJDpT0_EEE4typeERS9_' type='func-type' binding='weak-binding' visibility='default-visibility' is-defined='yes'/>
    <elf-symbol name='_ZSt3getILm1EJPN10prometheus10SerializerESt14default_deleteIS1_EEERNSt13tuple_elementIXT_ESt5tupleIJDpT0_EEE4typeERS9_' type='func-type' binding='weak-binding' visibility='default-visibility' is-defined='yes'/>
    <elf-symbol name='_ZSt3getILm1EJPN10prometheus7CounterESt14default_deleteIS1_EEERNSt13tuple_elementIXT_ESt5tupleIJDpT0_EEE4typeERS9_' type='func-type' binding='weak-binding' visibility='default-visibility' is-defined='yes'/>
    <elf-symbol name='_ZSt3getILm1EJPN10prometheus7SummaryESt14default_deleteIS1_EEERNSt13tuple_elementIXT_ESt5tupleIJDpT0_EEE4typeERS9_' type='func-type' binding='weak-binding' visibility='default-visibility' is-defined='yes'/>
    <elf-symbol name='_ZSt3maxImERKT_S2_S2_' type='func-type' binding='weak-binding' visibility='default-visibility' is-defined='yes'/>
    <elf-symbol name='_ZSt3minImERKT_S2_S2_' type='func-type' binding='weak-binding' visibility='default-visibility' is-defined='yes'/>
    <elf-symbol name='_ZSt4copyIPcN9__gnu_cxx17__normal_iteratorIS0_St6vectorIcSaIcEEEEET0_T_S8_S7_' type='func-type' binding='weak-binding' visibility='default-visibility' is-defined='yes'/>
    <elf-symbol name='_ZSt4copyIPcS0_ET0_T_S2_S1_' type='func-type' binding='weak-binding' visibility='default-visibility' is-defined='yes'/>
    <elf-symbol name='_ZSt4copyISt13move_iteratorIN9__gnu_cxx17__normal_iteratorIPN10prometheus12MetricFamilyESt6vectorIS4_SaIS4_EEEEES9_ET0_T_SC_SB_' type='func-type' binding='weak-binding' visibility='default-visibility' is-defined='yes'/>
    <elf-symbol name='_ZSt4copyISt13move_iteratorIPcES1_ET0_T_S4_S3_' type='func-type' binding='weak-binding' visibility='default-visibility' is-defined='yes'/>
    <elf-symbol name='_ZSt4copyISt13move_iteratorIPhES1_ET0_T_S4_S3_' type='func-type' binding='weak-binding' visibility='default-visibility' is-defined='yes'/>
    <elf-symbol name='_ZSt4fillIN9__gnu_cxx17__normal_iteratorIPcSt6vectorIcSaIcEEEEcEvT_S7_RKT0_' type='func-type' binding='weak-binding' visibility='default-visibility' is-defined='yes'/>
    <elf-symbol name='_ZSt4moveIN9__gnu_cxx17__normal_iteratorIPSt8weak_ptrIN10prometheus11CollectableEESt6vectorIS5_SaIS5_EEEESA_ET0_T_SC_SB_' type='func-type' binding='weak-binding' visibility='default-visibility' is-defined='yes'/>
    <elf-symbol name='_ZSt4moveIRN10prometheus12MetricFamilyEEONSt16remove_referenceIT_E4typeEOS4_' type='func-type' binding='weak-binding' visibility='default-visibility' is-defined='yes'/>
    <elf-symbol name='_ZSt4moveIRNSt12_Vector_baseIN10prometheus12ClientMetricESaIS2_EE12_Vector_implEEONSt16remove_referenceIT_E4typeEOS8_' type='func-type' binding='weak-binding' visibility='default-visibility' is-defined='yes'/>
    <elf-symbol name='_ZSt4moveIRNSt12_Vector_baseIhSaIhEE12_Vector_implEEONSt16remove_referenceIT_E4typeEOS6_' type='func-type' binding='weak-binding' visibility='default-visibility' is-defined='yes'/>
    <elf-symbol name='_ZSt4moveIRNSt7__cxx1112basic_stringIcSt11char_traitsIcESaIcEEEEONSt16remove_referenceIT_E4typeEOS8_' type='func-type' binding='weak-binding' visibility='default-visibility' is-defined='yes'/>
    <elf-symbol name='_ZSt4moveIRP11CivetServerEONSt16remove_referenceIT_E4typeEOS4_' type='func-type' binding='weak-binding' visibility='default-visibility' is-defined='yes'/>
    <elf-symbol name='_ZSt4moveIRPFbRKSt9_Any_dataRKNSt7__cxx1112basic_stringIcSt11char_traitsIcESaIcEEESA_EEONSt16remove_referenceIT_E4typeEOSF_' type='func-type' binding='weak-binding' visibility='default-visibility' is-defined='yes'/>
    <elf-symbol name='_ZSt4moveIRPFbRSt9_Any_dataRKS0_St18_Manager_operationEEONSt16remove_referenceIT_E4typeEOS9_' type='func-type' binding='weak-binding' visibility='default-visibility' is-defined='yes'/>
    <elf-symbol name='_ZSt4moveIRPN10prometheus10SerializerEEONSt16remove_referenceIT_E4typeEOS5_' type='func-type' binding='weak-binding' visibility='default-visibility' is-defined='yes'/>
    <elf-symbol name='_ZSt4moveIRPN10prometheus7CounterEEONSt16remove_referenceIT_E4typeEOS5_' type='func-type' binding='weak-binding' visibility='default-visibility' is-defined='yes'/>
    <elf-symbol name='_ZSt4moveIRPN10prometheus7SummaryEEONSt16remove_referenceIT_E4typeEOS5_' type='func-type' binding='weak-binding' visibility='default-visibility' is-defined='yes'/>
    <elf-symbol name='_ZSt4moveIRSaIN10prometheus12ClientMetricEEEONSt16remove_referenceIT_E4typeEOS5_' type='func-type' binding='weak-binding' visibility='default-visibility' is-defined='yes'/>
    <elf-symbol name='_ZSt4moveIRSaIN10prometheus12MetricFamilyEEEONSt16remove_referenceIT_E4typeEOS5_' type='func-type' binding='weak-binding' visibility='default-visibility' is-defined='yes'/>
    <elf-symbol name='_ZSt4moveIRSaIcEEONSt16remove_referenceIT_E4typeEOS3_' type='func-type' binding='weak-binding' visibility='default-visibility' is-defined='yes'/>
    <elf-symbol name='_ZSt4moveIRSt12__weak_countILN9__gnu_cxx12_Lock_policyE2EEEONSt16remove_referenceIT_E4typeEOS6_' type='func-type' binding='weak-binding' visibility='default-visibility' is-defined='yes'/>
    <elf-symbol name='_ZSt4moveIRSt6vectorIN10prometheus12ClientMetricESaIS2_EEEONSt16remove_referenceIT_E4typeEOS7_' type='func-type' binding='weak-binding' visibility='default-visibility' is-defined='yes'/>
    <elf-symbol name='_ZSt4moveIRSt6vectorINSt7__cxx1112basic_stringIcSt11char_traitsIcESaIcEEESaIS6_EEEONSt16remove_referenceIT_E4typeEOSB_' type='func-type' binding='weak-binding' visibility='default-visibility' is-defined='yes'/>
    <elf-symbol name='_ZSt4moveIRSt6vectorIcSaIcEEEONSt16remove_referenceIT_E4typeEOS5_' type='func-type' binding='weak-binding' visibility='default-visibility' is-defined='yes'/>
    <elf-symbol name='_ZSt4moveIRSt8functionIFbRKNSt7__cxx1112basic_stringIcSt11char_traitsIcESaIcEEES8_EEEONSt16remove_referenceIT_E4typeEOSD_' type='func-type' binding='weak-binding' visibility='default-visibility' is-defined='yes'/>
    <elf-symbol name='_ZSt4moveIRSt8weak_ptrIN10prometheus11CollectableEEEONSt16remove_referenceIT_E4typeEOS6_' type='func-type' binding='weak-binding' visibility='default-visibility' is-defined='yes'/>
    <elf-symbol name='_ZSt4moveIRSt9_Any_dataEONSt16remove_referenceIT_E4typeEOS3_' type='func-type' binding='weak-binding' visibility='default-visibility' is-defined='yes'/>
    <elf-symbol name='_ZSt4moveIRcEONSt16remove_referenceIT_E4typeEOS2_' type='func-type' binding='weak-binding' visibility='default-visibility' is-defined='yes'/>
    <elf-symbol name='_ZSt4swapIPFbRKSt9_Any_dataRKNSt7__cxx1112basic_stringIcSt11char_traitsIcESaIcEEESA_EENSt9enable_ifIXsrSt6__and_IJSt6__not_ISt15__is_tuple_likeIT_EESt21is_move_constructibleISH_ESt18is_move_assignableISH_EEE5valueEvE4typeERSH_SR_' type='func-type' binding='weak-binding' visibility='default-visibility' is-defined='yes'/>
    <elf-symbol name='_ZSt4swapIPFbRSt9_Any_dataRKS0_St18_Manager_operationEENSt9enable_ifIXsrSt6__and_IJSt6__not_ISt15__is_tuple_likeIT_EESt21is_move_constructibleISB_ESt18is_move_assignableISB_EEE5valueEvE4typeERSB_SL_' type='func-type' binding='weak-binding' visibility='default-visibility' is-defined='yes'/>
    <elf-symbol name='_ZSt4swapISt9_Any_dataENSt9enable_ifIXsrSt6__and_IJSt6__not_ISt15__is_tuple_likeIT_EESt21is_move_constructibleIS5_ESt18is_move_assignableIS5_EEE5valueEvE4typeERS5_SF_' type='func-type' binding='weak-binding' visibility='default-visibility' is-defined='yes'/>
    <elf-symbol name='_ZSt5beginISt6vectorISt8weak_ptrIN10prometheus11CollectableEESaIS4_EEEDTcldtfp_5beginEERT_' type='func-type' binding='weak-binding' visibility='default-visibility' is-defined='yes'/>
    <elf-symbol name='_ZSt6fill_nIPPKcmS1_ET_S3_T0_RKT1_' type='func-type' binding='weak-binding' visibility='default-visibility' is-defined='yes'/>
    <elf-symbol name='_ZSt6fill_nIPcmcET_S1_T0_RKT1_' type='func-type' binding='weak-binding' visibility='default-visibility' is-defined='yes'/>
    <elf-symbol name='_ZSt6fill_nIPhmhET_S1_T0_RKT1_' type='func-type' binding='weak-binding' visibility='default-visibility' is-defined='yes'/>
    <elf-symbol name='_ZSt6fill_nIPimiET_S1_T0_RKT1_' type='func-type' binding='weak-binding' visibility='default-visibility' is-defined='yes'/>
    <elf-symbol name='_ZSt7advanceIPcmEvRT_T0_' type='func-type' binding='weak-binding' visibility='default-visibility' is-defined='yes'/>
    <elf-symbol name='_ZSt7advanceISt13move_iteratorIN9__gnu_cxx17__normal_iteratorIPN10prometheus12MetricFamilyESt6vectorIS4_SaIS4_EEEEEmEvRT_T0_' type='func-type' binding='weak-binding' visibility='default-visibility' is-defined='yes'/>
    <elf-symbol name='_ZSt7forwardIN10prometheus12MetricFamilyEEOT_RNSt16remove_referenceIS2_E4typeE' type='func-type' binding='weak-binding' visibility='default-visibility' is-defined='yes'/>
    <elf-symbol name='_ZSt7forwardIR11CivetServerEOT_RNSt16remove_referenceIS2_E4typeE' type='func-type' binding='weak-binding' visibility='default-visibility' is-defined='yes'/>
    <elf-symbol name='_ZSt7forwardIRKN10prometheus6detail13CKMSQuantiles8QuantileEEOT_RNSt16remove_referenceIS6_E4typeE' type='func-type' binding='weak-binding' visibility='default-visibility' is-defined='yes'/>
    <elf-symbol name='_ZSt7forwardIRKNSt7__cxx1112basic_stringIcSt11char_traitsIcESaIcEEEEOT_RNSt16remove_referenceIS8_E4typeE' type='func-type' binding='weak-binding' visibility='default-visibility' is-defined='yes'/>
    <elf-symbol name='_ZSt7forwardIRKSt21piecewise_construct_tEOT_RNSt16remove_referenceIS3_E4typeE' type='func-type' binding='weak-binding' visibility='default-visibility' is-defined='yes'/>
    <elf-symbol name='_ZSt7forwardIRKSt8weak_ptrIN10prometheus11CollectableEEEOT_RNSt16remove_referenceIS6_E4typeE' type='func-type' binding='weak-binding' visibility='default-visibility' is-defined='yes'/>
    <elf-symbol name='_ZSt7forwardIRN10prometheus8RegistryEEOT_RNSt16remove_referenceIS3_E4typeE' type='func-type' binding='weak-binding' visibility='default-visibility' is-defined='yes'/>
    <elf-symbol name='_ZSt7forwardIRPSt18_Rb_tree_node_baseEOT_RNSt16remove_referenceIS3_E4typeE' type='func-type' binding='weak-binding' visibility='default-visibility' is-defined='yes'/>
    <elf-symbol name='_ZSt7forwardIRSt6vectorIN10prometheus6detail13CKMSQuantiles8QuantileESaIS4_EEEOT_RNSt16remove_referenceIS8_E4typeE' type='func-type' binding='weak-binding' visibility='default-visibility' is-defined='yes'/>
    <elf-symbol name='_ZSt7forwardISt5tupleIJEEEOT_RNSt16remove_referenceIS2_E4typeE' type='func-type' binding='weak-binding' visibility='default-visibility' is-defined='yes'/>
    <elf-symbol name='_ZSt7forwardISt6vectorINSt7__cxx1112basic_stringIcSt11char_traitsIcESaIcEEESaIS6_EEEOT_RNSt16remove_referenceIS9_E4typeE' type='func-type' binding='weak-binding' visibility='default-visibility' is-defined='yes'/>
    <elf-symbol name='_ZSt7forwardISt8functionIFbRKNSt7__cxx1112basic_stringIcSt11char_traitsIcESaIcEEES8_EEEOT_RNSt16remove_referenceISB_E4typeE' type='func-type' binding='weak-binding' visibility='default-visibility' is-defined='yes'/>
    <elf-symbol name='_ZSt7forwardISt8weak_ptrIN10prometheus11CollectableEEEOT_RNSt16remove_referenceIS4_E4typeE' type='func-type' binding='weak-binding' visibility='default-visibility' is-defined='yes'/>
    <elf-symbol name='_ZSt7forwardIcEOT_RNSt16remove_referenceIS0_E4typeE' type='func-type' binding='weak-binding' visibility='default-visibility' is-defined='yes'/>
    <elf-symbol name='_ZSt8_DestroyIN10prometheus12ClientMetric5LabelEEvPT_' type='func-type' binding='weak-binding' visibility='default-visibility' is-defined='yes'/>
    <elf-symbol name='_ZSt8_DestroyIN10prometheus12ClientMetricEEvPT_' type='func-type' binding='weak-binding' visibility='default-visibility' is-defined='yes'/>
    <elf-symbol name='_ZSt8_DestroyIN10prometheus12MetricFamilyEEvPT_' type='func-type' binding='weak-binding' visibility='default-visibility' is-defined='yes'/>
    <elf-symbol name='_ZSt8_DestroyIN10prometheus6detail13CKMSQuantilesEEvPT_' type='func-type' binding='weak-binding' visibility='default-visibility' is-defined='yes'/>
    <elf-symbol name='_ZSt8_DestroyINSt7__cxx1112basic_stringIcSt11char_traitsIcESaIcEEEEvPT_' type='func-type' binding='weak-binding' visibility='default-visibility' is-defined='yes'/>
    <elf-symbol name='_ZSt8_DestroyIPN10prometheus12ClientMetric5LabelEEvT_S4_' type='func-type' binding='weak-binding' visibility='default-visibility' is-defined='yes'/>
    <elf-symbol name='_ZSt8_DestroyIPN10prometheus12ClientMetric5LabelES2_EvT_S4_RSaIT0_E' type='func-type' binding='weak-binding' visibility='default-visibility' is-defined='yes'/>
    <elf-symbol name='_ZSt8_DestroyIPN10prometheus12ClientMetric6BucketEEvT_S4_' type='func-type' binding='weak-binding' visibility='default-visibility' is-defined='yes'/>
    <elf-symbol name='_ZSt8_DestroyIPN10prometheus12ClientMetric6BucketES2_EvT_S4_RSaIT0_E' type='func-type' binding='weak-binding' visibility='default-visibility' is-defined='yes'/>
    <elf-symbol name='_ZSt8_DestroyIPN10prometheus12ClientMetric8QuantileEEvT_S4_' type='func-type' binding='weak-binding' visibility='default-visibility' is-defined='yes'/>
    <elf-symbol name='_ZSt8_DestroyIPN10prometheus12ClientMetric8QuantileES2_EvT_S4_RSaIT0_E' type='func-type' binding='weak-binding' visibility='default-visibility' is-defined='yes'/>
    <elf-symbol name='_ZSt8_DestroyIPN10prometheus12ClientMetricEEvT_S3_' type='func-type' binding='weak-binding' visibility='default-visibility' is-defined='yes'/>
    <elf-symbol name='_ZSt8_DestroyIPN10prometheus12ClientMetricES1_EvT_S3_RSaIT0_E' type='func-type' binding='weak-binding' visibility='default-visibility' is-defined='yes'/>
    <elf-symbol name='_ZSt8_DestroyIPN10prometheus12MetricFamilyEEvT_S3_' type='func-type' binding='weak-binding' visibility='default-visibility' is-defined='yes'/>
    <elf-symbol name='_ZSt8_DestroyIPN10prometheus12MetricFamilyES1_EvT_S3_RSaIT0_E' type='func-type' binding='weak-binding' visibility='default-visibility' is-defined='yes'/>
    <elf-symbol name='_ZSt8_DestroyIPN10prometheus6detail13CKMSQuantiles4ItemEEvT_S5_' type='func-type' binding='weak-binding' visibility='default-visibility' is-defined='yes'/>
    <elf-symbol name='_ZSt8_DestroyIPN10prometheus6detail13CKMSQuantiles4ItemES3_EvT_S5_RSaIT0_E' type='func-type' binding='weak-binding' visibility='default-visibility' is-defined='yes'/>
    <elf-symbol name='_ZSt8_DestroyIPN10prometheus6detail13CKMSQuantiles8QuantileEEvT_S5_' type='func-type' binding='weak-binding' visibility='default-visibility' is-defined='yes'/>
    <elf-symbol name='_ZSt8_DestroyIPN10prometheus6detail13CKMSQuantiles8QuantileES3_EvT_S5_RSaIT0_E' type='func-type' binding='weak-binding' visibility='default-visibility' is-defined='yes'/>
    <elf-symbol name='_ZSt8_DestroyIPN10prometheus6detail13CKMSQuantilesEEvT_S4_' type='func-type' binding='weak-binding' visibility='default-visibility' is-defined='yes'/>
    <elf-symbol name='_ZSt8_DestroyIPN10prometheus6detail13CKMSQuantilesES2_EvT_S4_RSaIT0_E' type='func-type' binding='weak-binding' visibility='default-visibility' is-defined='yes'/>
    <elf-symbol name='_ZSt8_DestroyIPNSt7__cxx1112basic_stringIcSt11char_traitsIcESaIcEEEEvT_S7_' type='func-type' binding='weak-binding' visibility='default-visibility' is-defined='yes'/>
    <elf-symbol name='_ZSt8_DestroyIPNSt7__cxx1112basic_stringIcSt11char_traitsIcESaIcEEES5_EvT_S7_RSaIT0_E' type='func-type' binding='weak-binding' visibility='default-visibility' is-defined='yes'/>
    <elf-symbol name='_ZSt8_DestroyIPPKcEvT_S3_' type='func-type' binding='weak-binding' visibility='default-visibility' is-defined='yes'/>
    <elf-symbol name='_ZSt8_DestroyIPPKcS1_EvT_S3_RSaIT0_E' type='func-type' binding='weak-binding' visibility='default-visibility' is-defined='yes'/>
    <elf-symbol name='_ZSt8_DestroyIPSt8weak_ptrIN10prometheus11CollectableEEEvT_S5_' type='func-type' binding='weak-binding' visibility='default-visibility' is-defined='yes'/>
    <elf-symbol name='_ZSt8_DestroyIPSt8weak_ptrIN10prometheus11CollectableEES3_EvT_S5_RSaIT0_E' type='func-type' binding='weak-binding' visibility='default-visibility' is-defined='yes'/>
    <elf-symbol name='_ZSt8_DestroyIPcEvT_S1_' type='func-type' binding='weak-binding' visibility='default-visibility' is-defined='yes'/>
    <elf-symbol name='_ZSt8_DestroyIPccEvT_S1_RSaIT0_E' type='func-type' binding='weak-binding' visibility='default-visibility' is-defined='yes'/>
    <elf-symbol name='_ZSt8_DestroyIPhEvT_S1_' type='func-type' binding='weak-binding' visibility='default-visibility' is-defined='yes'/>
    <elf-symbol name='_ZSt8_DestroyIPhhEvT_S1_RSaIT0_E' type='func-type' binding='weak-binding' visibility='default-visibility' is-defined='yes'/>
    <elf-symbol name='_ZSt8_DestroyISt8weak_ptrIN10prometheus11CollectableEEEvPT_' type='func-type' binding='weak-binding' visibility='default-visibility' is-defined='yes'/>
    <elf-symbol name='_ZSt8__fill_aIcEN9__gnu_cxx11__enable_ifIXsrSt9__is_byteIT_E7__valueEvE6__typeEPS3_S7_RKS3_' type='func-type' binding='weak-binding' visibility='default-visibility' is-defined='yes'/>
    <elf-symbol name='_ZSt8__fill_aIhEN9__gnu_cxx11__enable_ifIXsrSt9__is_byteIT_E7__valueEvE6__typeEPS3_S7_RKS3_' type='func-type' binding='weak-binding' visibility='default-visibility' is-defined='yes'/>
    <elf-symbol name='_ZSt8distanceIN9__gnu_cxx17__normal_iteratorIPcSt6vectorIcSaIcEEEEENSt15iterator_traitsIT_E15difference_typeES8_S8_' type='func-type' binding='weak-binding' visibility='default-visibility' is-defined='yes'/>
    <elf-symbol name='_ZSt8distanceIPKN10prometheus6detail13CKMSQuantiles8QuantileEENSt15iterator_traitsIT_E15difference_typeES7_S7_' type='func-type' binding='weak-binding' visibility='default-visibility' is-defined='yes'/>
    <elf-symbol name='_ZSt8distanceIPKNSt7__cxx1112basic_stringIcSt11char_traitsIcESaIcEEEENSt15iterator_traitsIT_E15difference_typeES9_S9_' type='func-type' binding='weak-binding' visibility='default-visibility' is-defined='yes'/>
    <elf-symbol name='_ZSt8distanceIPcENSt15iterator_traitsIT_E15difference_typeES2_S2_' type='func-type' binding='weak-binding' visibility='default-visibility' is-defined='yes'/>
    <elf-symbol name='_ZSt8distanceISt13move_iteratorIN9__gnu_cxx17__normal_iteratorIPN10prometheus12MetricFamilyESt6vectorIS4_SaIS4_EEEEEENSt15iterator_traitsIT_E15difference_typeESC_SC_' type='func-type' binding='weak-binding' visibility='default-visibility' is-defined='yes'/>
    <elf-symbol name='_ZSt9__advanceIPclEvRT_T0_St26random_access_iterator_tag' type='func-type' binding='weak-binding' visibility='default-visibility' is-defined='yes'/>
    <elf-symbol name='_ZSt9__advanceISt13move_iteratorIN9__gnu_cxx17__normal_iteratorIPN10prometheus12MetricFamilyESt6vectorIS4_SaIS4_EEEEElEvRT_T0_St26random_access_iterator_tag' type='func-type' binding='weak-binding' visibility='default-visibility' is-defined='yes'/>
    <elf-symbol name='_ZSteqIN10prometheus11CollectableES1_EbRKSt10shared_ptrIT_ERKS2_IT0_E' type='func-type' binding='weak-binding' visibility='default-visibility' is-defined='yes'/>
    <elf-symbol name='_ZSteqIN9__gnu_cxx17__normal_iteratorIPN10prometheus12MetricFamilyESt6vectorIS3_SaIS3_EEEEEbRKSt13move_iteratorIT_ESD_' type='func-type' binding='weak-binding' visibility='default-visibility' is-defined='yes'/>
    <elf-symbol name='_ZSteqIPN10prometheus12MetricFamilyEEbRKSt13move_iteratorIT_ES7_' type='func-type' binding='weak-binding' visibility='default-visibility' is-defined='yes'/>
    <elf-symbol name='_ZSteqIPSt8weak_ptrIN10prometheus11CollectableEEEbRKSt13move_iteratorIT_ES9_' type='func-type' binding='weak-binding' visibility='default-visibility' is-defined='yes'/>
    <elf-symbol name='_ZSteqIcEN9__gnu_cxx11__enable_ifIXsrSt9__is_charIT_E7__valueEbE6__typeERKNSt7__cxx1112basic_stringIS3_St11char_traitsIS3_ESaIS3_EEESE_' type='func-type' binding='weak-binding' visibility='default-visibility' is-defined='yes'/>
    <elf-symbol name='_ZStmiIN9__gnu_cxx17__normal_iteratorIPN10prometheus12MetricFamilyESt6vectorIS3_SaIS3_EEEES8_EDTmicldtfp_4baseEcldtfp0_4baseEERKSt13move_iteratorIT_ERKSA_IT0_E' type='func-type' binding='weak-binding' visibility='default-visibility' is-defined='yes'/>
    <elf-symbol name='_ZStneIN9__gnu_cxx17__normal_iteratorIPN10prometheus12MetricFamilyESt6vectorIS3_SaIS3_EEEEEbRKSt13move_iteratorIT_ESD_' type='func-type' binding='weak-binding' visibility='default-visibility' is-defined='yes'/>
    <elf-symbol name='_ZStneIPN10prometheus12MetricFamilyEEbRKSt13move_iteratorIT_ES7_' type='func-type' binding='weak-binding' visibility='default-visibility' is-defined='yes'/>
    <elf-symbol name='_ZStneIPSt8weak_ptrIN10prometheus11CollectableEEEbRKSt13move_iteratorIT_ES9_' type='func-type' binding='weak-binding' visibility='default-visibility' is-defined='yes'/>
  </elf-function-symbols>
  <elf-variable-symbols>
    <elf-symbol name='_ZTI11CivetServer' size='16' type='object-type' binding='weak-binding' visibility='default-visibility' is-defined='yes'/>
    <elf-symbol name='_ZTI12CivetHandler' size='16' type='object-type' binding='weak-binding' visibility='default-visibility' is-defined='yes'/>
    <elf-symbol name='_ZTI14CivetException' size='24' type='object-type' binding='weak-binding' visibility='default-visibility' is-defined='yes'/>
    <elf-symbol name='_ZTI16CivetAuthHandler' size='16' type='object-type' binding='weak-binding' visibility='default-visibility' is-defined='yes'/>
    <elf-symbol name='_ZTI21CivetWebSocketHandler' size='16' type='object-type' binding='weak-binding' visibility='default-visibility' is-defined='yes'/>
    <elf-symbol name='_ZTISt11_Mutex_baseILN9__gnu_cxx12_Lock_policyE2EE' size='16' type='object-type' binding='weak-binding' visibility='default-visibility' is-defined='yes'/>
    <elf-symbol name='_ZTISt16_Sp_counted_baseILN9__gnu_cxx12_Lock_policyE2EE' size='24' type='object-type' binding='weak-binding' visibility='default-visibility' is-defined='yes'/>
    <elf-symbol name='_ZTISt19_Sp_make_shared_tag' size='16' type='object-type' binding='weak-binding' visibility='default-visibility' is-defined='yes'/>
    <elf-symbol name='_ZTISt23_Sp_counted_ptr_inplaceIN10prometheus8RegistryESaIS1_ELN9__gnu_cxx12_Lock_policyE2EE' size='24' type='object-type' binding='weak-binding' visibility='default-visibility' is-defined='yes'/>
    <elf-symbol name='_ZTS11CivetServer' size='14' type='object-type' binding='weak-binding' visibility='default-visibility' is-defined='yes'/>
    <elf-symbol name='_ZTS12CivetHandler' size='15' type='object-type' binding='weak-binding' visibility='default-visibility' is-defined='yes'/>
    <elf-symbol name='_ZTS14CivetException' size='17' type='object-type' binding='weak-binding' visibility='default-visibility' is-defined='yes'/>
    <elf-symbol name='_ZTS16CivetAuthHandler' size='19' type='object-type' binding='weak-binding' visibility='default-visibility' is-defined='yes'/>
    <elf-symbol name='_ZTS21CivetWebSocketHandler' size='24' type='object-type' binding='weak-binding' visibility='default-visibility' is-defined='yes'/>
    <elf-symbol name='_ZTSSt11_Mutex_baseILN9__gnu_cxx12_Lock_policyE2EE' size='47' type='object-type' binding='weak-binding' visibility='default-visibility' is-defined='yes'/>
    <elf-symbol name='_ZTSSt16_Sp_counted_baseILN9__gnu_cxx12_Lock_policyE2EE' size='52' type='object-type' binding='weak-binding' visibility='default-visibility' is-defined='yes'/>
    <elf-symbol name='_ZTSSt19_Sp_make_shared_tag' size='24' type='object-type' binding='weak-binding' visibility='default-visibility' is-defined='yes'/>
    <elf-symbol name='_ZTSSt23_Sp_counted_ptr_inplaceIN10prometheus8RegistryESaIS1_ELN9__gnu_cxx12_Lock_policyE2EE' size='89' type='object-type' binding='weak-binding' visibility='default-visibility' is-defined='yes'/>
    <elf-symbol name='_ZTV11CivetServer' size='32' type='object-type' binding='weak-binding' visibility='default-visibility' is-defined='yes'/>
    <elf-symbol name='_ZTV12CivetHandler' size='88' type='object-type' binding='weak-binding' visibility='default-visibility' is-defined='yes'/>
    <elf-symbol name='_ZTV14CivetException' size='40' type='object-type' binding='weak-binding' visibility='default-visibility' is-defined='yes'/>
    <elf-symbol name='_ZTV16CivetAuthHandler' size='40' type='object-type' binding='weak-binding' visibility='default-visibility' is-defined='yes'/>
    <elf-symbol name='_ZTV21CivetWebSocketHandler' size='64' type='object-type' binding='weak-binding' visibility='default-visibility' is-defined='yes'/>
    <elf-symbol name='_ZTVSt16_Sp_counted_baseILN9__gnu_cxx12_Lock_policyE2EE' size='56' type='object-type' binding='weak-binding' visibility='default-visibility' is-defined='yes'/>
    <elf-symbol name='_ZTVSt23_Sp_counted_ptr_inplaceIN10prometheus8RegistryESaIS1_ELN9__gnu_cxx12_Lock_policyE2EE' size='56' type='object-type' binding='weak-binding' visibility='default-visibility' is-defined='yes'/>
    <elf-symbol name='_ZZNSt19_Sp_make_shared_tag5_S_tiEvE5__tag' size='16' type='object-type' binding='gnu-unique-binding' visibility='default-visibility' is-defined='yes'/>
  </elf-variable-symbols>
</abi-corpus>
