<abi-corpus path='lib/libprometheus-cpp-core.so' architecture='elf-amd-x86_64' soname='libprometheus-cpp-core.so.0.12'>
  <elf-needed>
    <dependency name='libstdc++.so.6'/>
    <dependency name='libm.so.6'/>
    <dependency name='libgcc_s.so.1'/>
    <dependency name='libc.so.6'/>
  </elf-needed>
  <elf-function-symbols>
    <elf-symbol name='_ZN10prometheus10BuildGaugeEv' type='func-type' binding='global-binding' visibility='default-visibility' is-defined='yes'/>
    <elf-symbol name='_ZN10prometheus12BuildCounterEv' type='func-type' binding='global-binding' visibility='default-visibility' is-defined='yes'/>
    <elf-symbol name='_ZN10prometheus12BuildSummaryEv' type='func-type' binding='global-binding' visibility='default-visibility' is-defined='yes'/>
    <elf-symbol name='_ZN10prometheus14BuildHistogramEv' type='func-type' binding='global-binding' visibility='default-visibility' is-defined='yes'/>
    <elf-symbol name='_ZN10prometheus14CheckLabelNameERKNSt7__cxx1112basic_stringIcSt11char_traitsIcESaIcEEE' type='func-type' binding='global-binding' visibility='default-visibility' is-defined='yes'/>
    <elf-symbol name='_ZN10prometheus15CheckMetricNameERKNSt7__cxx1112basic_stringIcSt11char_traitsIcESaIcEEE' type='func-type' binding='global-binding' visibility='default-visibility' is-defined='yes'/>
    <elf-symbol name='_ZN10prometheus5Gauge16SetToCurrentTimeEv' type='func-type' binding='global-binding' visibility='default-visibility' is-defined='yes'/>
    <elf-symbol name='_ZN10prometheus5Gauge3SetEd' type='func-type' binding='global-binding' visibility='default-visibility' is-defined='yes'/>
    <elf-symbol name='_ZN10prometheus5Gauge6ChangeEd' type='func-type' binding='global-binding' visibility='default-visibility' is-defined='yes'/>
    <elf-symbol name='_ZN10prometheus5Gauge9DecrementEd' type='func-type' binding='global-binding' visibility='default-visibility' is-defined='yes'/>
    <elf-symbol name='_ZN10prometheus5Gauge9DecrementEv' type='func-type' binding='global-binding' visibility='default-visibility' is-defined='yes'/>
    <elf-symbol name='_ZN10prometheus5Gauge9IncrementEd' type='func-type' binding='global-binding' visibility='default-visibility' is-defined='yes'/>
    <elf-symbol name='_ZN10prometheus5Gauge9IncrementEv' type='func-type' binding='global-binding' visibility='default-visibility' is-defined='yes'/>
    <elf-symbol name='_ZN10prometheus5GaugeC1Ed' type='func-type' binding='global-binding' visibility='default-visibility' alias='_ZN10prometheus5GaugeC2Ed' is-defined='yes'/>
    <elf-symbol name='_ZN10prometheus5GaugeC2Ed' type='func-type' binding='global-binding' visibility='default-visibility' is-defined='yes'/>
    <elf-symbol name='_ZN10prometheus6FamilyINS_5GaugeEE3AddERKSt3mapINSt7__cxx1112basic_stringIcSt11char_traitsIcESaIcEEES9_St4lessIS9_ESaISt4pairIKS9_S9_EEESt10unique_ptrIS1_St14default_deleteIS1_EE' type='func-type' binding='weak-binding' visibility='default-visibility' is-defined='yes'/>
    <elf-symbol name='_ZN10prometheus6FamilyINS_5GaugeEE6RemoveEPS1_' type='func-type' binding='weak-binding' visibility='default-visibility' is-defined='yes'/>
    <elf-symbol name='_ZN10prometheus6FamilyINS_5GaugeEEC1ERKNSt7__cxx1112basic_stringIcSt11char_traitsIcESaIcEEESA_RKSt3mapIS8_S8_St4lessIS8_ESaISt4pairIS9_S8_EEE' type='func-type' binding='weak-binding' visibility='default-visibility' alias='_ZN10prometheus6FamilyINS_5GaugeEEC2ERKNSt7__cxx1112basic_stringIcSt11char_traitsIcESaIcEEESA_RKSt3mapIS8_S8_St4lessIS8_ESaISt4pairIS9_S8_EEE' is-defined='yes'/>
    <elf-symbol name='_ZN10prometheus6FamilyINS_5GaugeEEC2ERKNSt7__cxx1112basic_stringIcSt11char_traitsIcESaIcEEESA_RKSt3mapIS8_S8_St4lessIS8_ESaISt4pairIS9_S8_EEE' type='func-type' binding='weak-binding' visibility='default-visibility' is-defined='yes'/>
    <elf-symbol name='_ZN10prometheus6FamilyINS_7CounterEE3AddERKSt3mapINSt7__cxx1112basic_stringIcSt11char_traitsIcESaIcEEES9_St4lessIS9_ESaISt4pairIKS9_S9_EEESt10unique_ptrIS1_St14default_deleteIS1_EE' type='func-type' binding='weak-binding' visibility='default-visibility' is-defined='yes'/>
    <elf-symbol name='_ZN10prometheus6FamilyINS_7CounterEE6RemoveEPS1_' type='func-type' binding='weak-binding' visibility='default-visibility' is-defined='yes'/>
    <elf-symbol name='_ZN10prometheus6FamilyINS_7CounterEEC1ERKNSt7__cxx1112basic_stringIcSt11char_traitsIcESaIcEEESA_RKSt3mapIS8_S8_St4lessIS8_ESaISt4pairIS9_S8_EEE' type='func-type' binding='weak-binding' visibility='default-visibility' alias='_ZN10prometheus6FamilyINS_7CounterEEC2ERKNSt7__cxx1112basic_stringIcSt11char_traitsIcESaIcEEESA_RKSt3mapIS8_S8_St4lessIS8_ESaISt4pairIS9_S8_EEE' is-defined='yes'/>
    <elf-symbol name='_ZN10prometheus6FamilyINS_7CounterEEC2ERKNSt7__cxx1112basic_stringIcSt11char_traitsIcESaIcEEESA_RKSt3mapIS8_S8_St4lessIS8_ESaISt4pairIS9_S8_EEE' type='func-type' binding='weak-binding' visibility='default-visibility' is-defined='yes'/>
    <elf-symbol name='_ZN10prometheus6FamilyINS_7SummaryEE3AddERKSt3mapINSt7__cxx1112basic_stringIcSt11char_traitsIcESaIcEEES9_St4lessIS9_ESaISt4pairIKS9_S9_EEESt10unique_ptrIS1_St14default_deleteIS1_EE' type='func-type' binding='weak-binding' visibility='default-visibility' is-defined='yes'/>
    <elf-symbol name='_ZN10prometheus6FamilyINS_7SummaryEE6RemoveEPS1_' type='func-type' binding='weak-binding' visibility='default-visibility' is-defined='yes'/>
    <elf-symbol name='_ZN10prometheus6FamilyINS_7SummaryEEC1ERKNSt7__cxx1112basic_stringIcSt11char_traitsIcESaIcEEESA_RKSt3mapIS8_S8_St4lessIS8_ESaISt4pairIS9_S8_EEE' type='func-type' binding='weak-binding' visibility='default-visibility' alias='_ZN10prometheus6FamilyINS_7SummaryEEC2ERKNSt7__cxx1112basic_stringIcSt11char_traitsIcESaIcEEESA_RKSt3mapIS8_S8_St4lessIS8_ESaISt4pairIS9_S8_EEE' is-defined='yes'/>
    <elf-symbol name='_ZN10prometheus6FamilyINS_7SummaryEEC2ERKNSt7__cxx1112basic_stringIcSt11char_traitsIcESaIcEEESA_RKSt3mapIS8_S8_St4lessIS8_ESaISt4pairIS9_S8_EEE' type='func-type' binding='weak-binding' visibility='default-visibility' is-defined='yes'/>
    <elf-symbol name='_ZN10prometheus6FamilyINS_9HistogramEE3AddERKSt3mapINSt7__cxx1112basic_stringIcSt11char_traitsIcESaIcEEES9_St4lessIS9_ESaISt4pairIKS9_S9_EEESt10unique_ptrIS1_St14default_deleteIS1_EE' type='func-type' binding='weak-binding' visibility='default-visibility' is-defined='yes'/>
    <elf-symbol name='_ZN10prometheus6FamilyINS_9HistogramEE6RemoveEPS1_' type='func-type' binding='weak-binding' visibility='default-visibility' is-defined='yes'/>
    <elf-symbol name='_ZN10prometheus6FamilyINS_9HistogramEEC1ERKNSt7__cxx1112basic_stringIcSt11char_traitsIcESaIcEEESA_RKSt3mapIS8_S8_St4lessIS8_ESaISt4pairIS9_S8_EEE' type='func-type' binding='weak-binding' visibility='default-visibility' is-defined='yes'/>
    <elf-symbol name='_ZN10prometheus6FamilyINS_9HistogramEEC2ERKNSt7__cxx1112basic_stringIcSt11char_traitsIcESaIcEEESA_RKSt3mapIS8_S8_St4lessIS8_ESaISt4pairIS9_S8_EEE' type='func-type' binding='weak-binding' visibility='default-visibility' alias='_ZN10prometheus6FamilyINS_9HistogramEEC1ERKNSt7__cxx1112basic_stringIcSt11char_traitsIcESaIcEEESA_RKSt3mapIS8_S8_St4lessIS8_ESaISt4pairIS9_S8_EEE' is-defined='yes'/>
    <elf-symbol name='_ZN10prometheus6detail11hash_labelsERKSt3mapINSt7__cxx1112basic_stringIcSt11char_traitsIcESaIcEEES7_St4lessIS7_ESaISt4pairIKS7_S7_EEE' type='func-type' binding='global-binding' visibility='default-visibility' is-defined='yes'/>
    <elf-symbol name='_ZN10prometheus6detail13CKMSQuantiles11insertBatchEv' type='func-type' binding='global-binding' visibility='default-visibility' is-defined='yes'/>
    <elf-symbol name='_ZN10prometheus6detail13CKMSQuantiles14allowableErrorEi' type='func-type' binding='global-binding' visibility='default-visibility' is-defined='yes'/>
    <elf-symbol name='_ZN10prometheus6detail13CKMSQuantiles3getEd' type='func-type' binding='global-binding' visibility='default-visibility' is-defined='yes'/>
    <elf-symbol name='_ZN10prometheus6detail13CKMSQuantiles4ItemC1Edii' type='func-type' binding='global-binding' visibility='default-visibility' is-defined='yes'/>
    <elf-symbol name='_ZN10prometheus6detail13CKMSQuantiles4ItemC2Edii' type='func-type' binding='global-binding' visibility='default-visibility' alias='_ZN10prometheus6detail13CKMSQuantiles4ItemC1Edii' is-defined='yes'/>
    <elf-symbol name='_ZN10prometheus6detail13CKMSQuantiles5resetEv' type='func-type' binding='global-binding' visibility='default-visibility' is-defined='yes'/>
    <elf-symbol name='_ZN10prometheus6detail13CKMSQuantiles6insertEd' type='func-type' binding='global-binding' visibility='default-visibility' is-defined='yes'/>
    <elf-symbol name='_ZN10prometheus6detail13CKMSQuantiles8QuantileC1Edd' type='func-type' binding='global-binding' visibility='default-visibility' is-defined='yes'/>
    <elf-symbol name='_ZN10prometheus6detail13CKMSQuantiles8QuantileC2Edd' type='func-type' binding='global-binding' visibility='default-visibility' alias='_ZN10prometheus6detail13CKMSQuantiles8QuantileC1Edd' is-defined='yes'/>
    <elf-symbol name='_ZN10prometheus6detail13CKMSQuantiles8compressEv' type='func-type' binding='global-binding' visibility='default-visibility' is-defined='yes'/>
    <elf-symbol name='_ZN10prometheus6detail13CKMSQuantilesC1ERKSt6vectorINS1_8QuantileESaIS3_EE' type='func-type' binding='global-binding' visibility='default-visibility' is-defined='yes'/>
    <elf-symbol name='_ZN10prometheus6detail13CKMSQuantilesC2ERKSt6vectorINS1_8QuantileESaIS3_EE' type='func-type' binding='global-binding' visibility='default-visibility' alias='_ZN10prometheus6detail13CKMSQuantilesC1ERKSt6vectorINS1_8QuantileESaIS3_EE' is-defined='yes'/>
    <elf-symbol name='_ZN10prometheus6detail19TimeWindowQuantiles6insertEd' type='func-type' binding='global-binding' visibility='default-visibility' is-defined='yes'/>
    <elf-symbol name='_ZN10prometheus6detail19TimeWindowQuantilesC1ERKSt6vectorINS0_13CKMSQuantiles8QuantileESaIS4_EENSt6chrono8durationIlSt5ratioILl1ELl1000000000EEEEi' type='func-type' binding='global-binding' visibility='default-visibility' is-defined='yes'/>
    <elf-symbol name='_ZN10prometheus6detail19TimeWindowQuantilesC2ERKSt6vectorINS0_13CKMSQuantiles8QuantileESaIS4_EENSt6chrono8durationIlSt5ratioILl1ELl1000000000EEEEi' type='func-type' binding='global-binding' visibility='default-visibility' alias='_ZN10prometheus6detail19TimeWindowQuantilesC1ERKSt6vectorINS0_13CKMSQuantiles8QuantileESaIS4_EENSt6chrono8durationIlSt5ratioILl1ELl1000000000EEEEi' is-defined='yes'/>
    <elf-symbol name='_ZN10prometheus6detail7BuilderINS_5GaugeEE4HelpERKNSt7__cxx1112basic_stringIcSt11char_traitsIcESaIcEEE' type='func-type' binding='weak-binding' visibility='default-visibility' is-defined='yes'/>
    <elf-symbol name='_ZN10prometheus6detail7BuilderINS_5GaugeEE4NameERKNSt7__cxx1112basic_stringIcSt11char_traitsIcESaIcEEE' type='func-type' binding='weak-binding' visibility='default-visibility' is-defined='yes'/>
    <elf-symbol name='_ZN10prometheus6detail7BuilderINS_5GaugeEE6LabelsERKSt3mapINSt7__cxx1112basic_stringIcSt11char_traitsIcESaIcEEESA_St4lessISA_ESaISt4pairIKSA_SA_EEE' type='func-type' binding='weak-binding' visibility='default-visibility' is-defined='yes'/>
    <elf-symbol name='_ZN10prometheus6detail7BuilderINS_5GaugeEE8RegisterERNS_8RegistryE' type='func-type' binding='weak-binding' visibility='default-visibility' is-defined='yes'/>
    <elf-symbol name='_ZN10prometheus6detail7BuilderINS_7CounterEE4HelpERKNSt7__cxx1112basic_stringIcSt11char_traitsIcESaIcEEE' type='func-type' binding='weak-binding' visibility='default-visibility' is-defined='yes'/>
    <elf-symbol name='_ZN10prometheus6detail7BuilderINS_7CounterEE4NameERKNSt7__cxx1112basic_stringIcSt11char_traitsIcESaIcEEE' type='func-type' binding='weak-binding' visibility='default-visibility' is-defined='yes'/>
    <elf-symbol name='_ZN10prometheus6detail7BuilderINS_7CounterEE6LabelsERKSt3mapINSt7__cxx1112basic_stringIcSt11char_traitsIcESaIcEEESA_St4lessISA_ESaISt4pairIKSA_SA_EEE' type='func-type' binding='weak-binding' visibility='default-visibility' is-defined='yes'/>
    <elf-symbol name='_ZN10prometheus6detail7BuilderINS_7CounterEE8RegisterERNS_8RegistryE' type='func-type' binding='weak-binding' visibility='default-visibility' is-defined='yes'/>
    <elf-symbol name='_ZN10prometheus6detail7BuilderINS_7SummaryEE4HelpERKNSt7__cxx1112basic_stringIcSt11char_traitsIcESaIcEEE' type='func-type' binding='weak-binding' visibility='default-visibility' is-defined='yes'/>
    <elf-symbol name='_ZN10prometheus6detail7BuilderINS_7SummaryEE4NameERKNSt7__cxx1112basic_stringIcSt11char_traitsIcESaIcEEE' type='func-type' binding='weak-binding' visibility='default-visibility' is-defined='yes'/>
    <elf-symbol name='_ZN10prometheus6detail7BuilderINS_7SummaryEE6LabelsERKSt3mapINSt7__cxx1112basic_stringIcSt11char_traitsIcESaIcEEESA_St4lessISA_ESaISt4pairIKSA_SA_EEE' type='func-type' binding='weak-binding' visibility='default-visibility' is-defined='yes'/>
    <elf-symbol name='_ZN10prometheus6detail7BuilderINS_7SummaryEE8RegisterERNS_8RegistryE' type='func-type' binding='weak-binding' visibility='default-visibility' is-defined='yes'/>
    <elf-symbol name='_ZN10prometheus6detail7BuilderINS_9HistogramEE4HelpERKNSt7__cxx1112basic_stringIcSt11char_traitsIcESaIcEEE' type='func-type' binding='weak-binding' visibility='default-visibility' is-defined='yes'/>
    <elf-symbol name='_ZN10prometheus6detail7BuilderINS_9HistogramEE4NameERKNSt7__cxx1112basic_stringIcSt11char_traitsIcESaIcEEE' type='func-type' binding='weak-binding' visibility='default-visibility' is-defined='yes'/>
    <elf-symbol name='_ZN10prometheus6detail7BuilderINS_9HistogramEE6LabelsERKSt3mapINSt7__cxx1112basic_stringIcSt11char_traitsIcESaIcEEESA_St4lessISA_ESaISt4pairIKSA_SA_EEE' type='func-type' binding='weak-binding' visibility='default-visibility' is-defined='yes'/>
    <elf-symbol name='_ZN10prometheus6detail7BuilderINS_9HistogramEE8RegisterERNS_8RegistryE' type='func-type' binding='weak-binding' visibility='default-visibility' is-defined='yes'/>
    <elf-symbol name='_ZN10prometheus7Counter9IncrementEd' type='func-type' binding='global-binding' visibility='default-visibility' is-defined='yes'/>
    <elf-symbol name='_ZN10prometheus7Counter9IncrementEv' type='func-type' binding='global-binding' visibility='default-visibility' is-defined='yes'/>
    <elf-symbol name='_ZN10prometheus7Summary7ObserveEd' type='func-type' binding='global-binding' visibility='default-visibility' is-defined='yes'/>
    <elf-symbol name='_ZN10prometheus7SummaryC1ERKSt6vectorINS_6detail13CKMSQuantiles8QuantileESaIS4_EENSt6chrono8durationIlSt5ratioILl1ELl1000EEEEi' type='func-type' binding='global-binding' visibility='default-visibility' alias='_ZN10prometheus7SummaryC2ERKSt6vectorINS_6detail13CKMSQuantiles8QuantileESaIS4_EENSt6chrono8durationIlSt5ratioILl1ELl1000EEEEi' is-defined='yes'/>
    <elf-symbol name='_ZN10prometheus7SummaryC2ERKSt6vectorINS_6detail13CKMSQuantiles8QuantileESaIS4_EENSt6chrono8durationIlSt5ratioILl1ELl1000EEEEi' type='func-type' binding='global-binding' visibility='default-visibility' is-defined='yes'/>
    <elf-symbol name='_ZN10prometheus8Registry11GetFamiliesINS_5GaugeEEERSt6vectorISt10unique_ptrINS_6FamilyIT_EESt14default_deleteIS7_EESaISA_EEv' type='func-type' binding='global-binding' visibility='default-visibility' is-defined='yes'/>
    <elf-symbol name='_ZN10prometheus8Registry11GetFamiliesINS_7CounterEEERSt6vectorISt10unique_ptrINS_6FamilyIT_EESt14default_deleteIS7_EESaISA_EEv' type='func-type' binding='global-binding' visibility='default-visibility' is-defined='yes'/>
    <elf-symbol name='_ZN10prometheus8Registry11GetFamiliesINS_7SummaryEEERSt6vectorISt10unique_ptrINS_6FamilyIT_EESt14default_deleteIS7_EESaISA_EEv' type='func-type' binding='global-binding' visibility='default-visibility' is-defined='yes'/>
    <elf-symbol name='_ZN10prometheus8Registry11GetFamiliesINS_9HistogramEEERSt6vectorISt10unique_ptrINS_6FamilyIT_EESt14default_deleteIS7_EESaISA_EEv' type='func-type' binding='global-binding' visibility='default-visibility' is-defined='yes'/>
    <elf-symbol name='_ZN10prometheus8Registry3AddINS_5GaugeEEERNS_6FamilyIT_EERKNSt7__cxx1112basic_stringIcSt11char_traitsIcESaIcEEESE_RKSt3mapISC_SC_St4lessISC_ESaISt4pairISD_SC_EEE' type='func-type' binding='weak-binding' visibility='default-visibility' is-defined='yes'/>
    <elf-symbol name='_ZN10prometheus8Registry3AddINS_7CounterEEERNS_6FamilyIT_EERKNSt7__cxx1112basic_stringIcSt11char_traitsIcESaIcEEESE_RKSt3mapISC_SC_St4lessISC_ESaISt4pairISD_SC_EEE' type='func-type' binding='weak-binding' visibility='default-visibility' is-defined='yes'/>
    <elf-symbol name='_ZN10prometheus8Registry3AddINS_7SummaryEEERNS_6FamilyIT_EERKNSt7__cxx1112basic_stringIcSt11char_traitsIcESaIcEEESE_RKSt3mapISC_SC_St4lessISC_ESaISt4pairISD_SC_EEE' type='func-type' binding='weak-binding' visibility='default-visibility' is-defined='yes'/>
    <elf-symbol name='_ZN10prometheus8Registry3AddINS_9HistogramEEERNS_6FamilyIT_EERKNSt7__cxx1112basic_stringIcSt11char_traitsIcESaIcEEESE_RKSt3mapISC_SC_St4lessISC_ESaISt4pairISD_SC_EEE' type='func-type' binding='weak-binding' visibility='default-visibility' is-defined='yes'/>
    <elf-symbol name='_ZN10prometheus8RegistryC1ENS0_14InsertBehaviorE' type='func-type' binding='global-binding' visibility='default-visibility' is-defined='yes'/>
    <elf-symbol name='_ZN10prometheus8RegistryC2ENS0_14InsertBehaviorE' type='func-type' binding='global-binding' visibility='default-visibility' alias='_ZN10prometheus8RegistryC1ENS0_14InsertBehaviorE' is-defined='yes'/>
    <elf-symbol name='_ZN10prometheus8RegistryD0Ev' type='func-type' binding='global-binding' visibility='default-visibility' is-defined='yes'/>
    <elf-symbol name='_ZN10prometheus8RegistryD1Ev' type='func-type' binding='global-binding' visibility='default-visibility' alias='_ZN10prometheus8RegistryD2Ev' is-defined='yes'/>
    <elf-symbol name='_ZN10prometheus8RegistryD2Ev' type='func-type' binding='global-binding' visibility='default-visibility' is-defined='yes'/>
    <elf-symbol name='_ZN10prometheus9Histogram15ObserveMultipleERKSt6vectorIdSaIdEEd' type='func-type' binding='global-binding' visibility='default-visibility' is-defined='yes'/>
    <elf-symbol name='_ZN10prometheus9Histogram7ObserveEd' type='func-type' binding='global-binding' visibility='default-visibility' is-defined='yes'/>
    <elf-symbol name='_ZN10prometheus9HistogramC1ERKSt6vectorIdSaIdEE' type='func-type' binding='global-binding' visibility='default-visibility' alias='_ZN10prometheus9HistogramC2ERKSt6vectorIdSaIdEE' is-defined='yes'/>
    <elf-symbol name='_ZN10prometheus9HistogramC2ERKSt6vectorIdSaIdEE' type='func-type' binding='global-binding' visibility='default-visibility' is-defined='yes'/>
    <elf-symbol name='_ZN9__gnu_cxx13new_allocatorIN10prometheus12ClientMetric5LabelEE10deallocateEPS3_m' type='func-type' binding='weak-binding' visibility='default-visibility' is-defined='yes'/>
    <elf-symbol name='_ZN9__gnu_cxx13new_allocatorIN10prometheus12ClientMetric5LabelEE7destroyIS3_EEvPT_' type='func-type' binding='weak-binding' visibility='default-visibility' is-defined='yes'/>
    <elf-symbol name='_ZN9__gnu_cxx13new_allocatorIN10prometheus12ClientMetric5LabelEE8allocateEmPKv' type='func-type' binding='weak-binding' visibility='default-visibility' is-defined='yes'/>
    <elf-symbol name='_ZN9__gnu_cxx13new_allocatorIN10prometheus12ClientMetric5LabelEE9constructIS3_JS3_EEEvPT_DpOT0_' type='func-type' binding='weak-binding' visibility='default-visibility' is-defined='yes'/>
    <elf-symbol name='_ZN9__gnu_cxx13new_allocatorIN10prometheus12ClientMetric5LabelEEC1ERKS4_' type='func-type' binding='weak-binding' visibility='default-visibility' is-defined='yes'/>
    <elf-symbol name='_ZN9__gnu_cxx13new_allocatorIN10prometheus12ClientMetric5LabelEEC1Ev' type='func-type' binding='weak-binding' visibility='default-visibility' is-defined='yes'/>
    <elf-symbol name='_ZN9__gnu_cxx13new_allocatorIN10prometheus12ClientMetric5LabelEEC2ERKS4_' type='func-type' binding='weak-binding' visibility='default-visibility' alias='_ZN9__gnu_cxx13new_allocatorIN10prometheus12ClientMetric5LabelEEC1ERKS4_' is-defined='yes'/>
    <elf-symbol name='_ZN9__gnu_cxx13new_allocatorIN10prometheus12ClientMetric5LabelEEC2Ev' type='func-type' binding='weak-binding' visibility='default-visibility' alias='_ZN9__gnu_cxx13new_allocatorIN10prometheus12ClientMetric5LabelEEC1Ev' is-defined='yes'/>
    <elf-symbol name='_ZN9__gnu_cxx13new_allocatorIN10prometheus12ClientMetric5LabelEED1Ev' type='func-type' binding='weak-binding' visibility='default-visibility' alias='_ZN9__gnu_cxx13new_allocatorIN10prometheus12ClientMetric5LabelEED2Ev' is-defined='yes'/>
    <elf-symbol name='_ZN9__gnu_cxx13new_allocatorIN10prometheus12ClientMetric5LabelEED2Ev' type='func-type' binding='weak-binding' visibility='default-visibility' is-defined='yes'/>
    <elf-symbol name='_ZN9__gnu_cxx13new_allocatorIN10prometheus12ClientMetric6BucketEE10deallocateEPS3_m' type='func-type' binding='weak-binding' visibility='default-visibility' is-defined='yes'/>
    <elf-symbol name='_ZN9__gnu_cxx13new_allocatorIN10prometheus12ClientMetric6BucketEE7destroyIS3_EEvPT_' type='func-type' binding='weak-binding' visibility='default-visibility' is-defined='yes'/>
    <elf-symbol name='_ZN9__gnu_cxx13new_allocatorIN10prometheus12ClientMetric6BucketEE8allocateEmPKv' type='func-type' binding='weak-binding' visibility='default-visibility' is-defined='yes'/>
    <elf-symbol name='_ZN9__gnu_cxx13new_allocatorIN10prometheus12ClientMetric6BucketEE9constructIS3_JS3_EEEvPT_DpOT0_' type='func-type' binding='weak-binding' visibility='default-visibility' is-defined='yes'/>
    <elf-symbol name='_ZN9__gnu_cxx13new_allocatorIN10prometheus12ClientMetric6BucketEEC1ERKS4_' type='func-type' binding='weak-binding' visibility='default-visibility' is-defined='yes'/>
    <elf-symbol name='_ZN9__gnu_cxx13new_allocatorIN10prometheus12ClientMetric6BucketEEC1Ev' type='func-type' binding='weak-binding' visibility='default-visibility' is-defined='yes'/>
    <elf-symbol name='_ZN9__gnu_cxx13new_allocatorIN10prometheus12ClientMetric6BucketEEC2ERKS4_' type='func-type' binding='weak-binding' visibility='default-visibility' alias='_ZN9__gnu_cxx13new_allocatorIN10prometheus12ClientMetric6BucketEEC1ERKS4_' is-defined='yes'/>
    <elf-symbol name='_ZN9__gnu_cxx13new_allocatorIN10prometheus12ClientMetric6BucketEEC2Ev' type='func-type' binding='weak-binding' visibility='default-visibility' alias='_ZN9__gnu_cxx13new_allocatorIN10prometheus12ClientMetric6BucketEEC1Ev' is-defined='yes'/>
    <elf-symbol name='_ZN9__gnu_cxx13new_allocatorIN10prometheus12ClientMetric6BucketEED1Ev' type='func-type' binding='weak-binding' visibility='default-visibility' alias='_ZN9__gnu_cxx13new_allocatorIN10prometheus12ClientMetric6BucketEED2Ev' is-defined='yes'/>
    <elf-symbol name='_ZN9__gnu_cxx13new_allocatorIN10prometheus12ClientMetric6BucketEED2Ev' type='func-type' binding='weak-binding' visibility='default-visibility' is-defined='yes'/>
    <elf-symbol name='_ZN9__gnu_cxx13new_allocatorIN10prometheus12ClientMetric8QuantileEE10deallocateEPS3_m' type='func-type' binding='weak-binding' visibility='default-visibility' is-defined='yes'/>
    <elf-symbol name='_ZN9__gnu_cxx13new_allocatorIN10prometheus12ClientMetric8QuantileEE7destroyIS3_EEvPT_' type='func-type' binding='weak-binding' visibility='default-visibility' is-defined='yes'/>
    <elf-symbol name='_ZN9__gnu_cxx13new_allocatorIN10prometheus12ClientMetric8QuantileEE8allocateEmPKv' type='func-type' binding='weak-binding' visibility='default-visibility' is-defined='yes'/>
    <elf-symbol name='_ZN9__gnu_cxx13new_allocatorIN10prometheus12ClientMetric8QuantileEE9constructIS3_JS3_EEEvPT_DpOT0_' type='func-type' binding='weak-binding' visibility='default-visibility' is-defined='yes'/>
    <elf-symbol name='_ZN9__gnu_cxx13new_allocatorIN10prometheus12ClientMetric8QuantileEEC1ERKS4_' type='func-type' binding='weak-binding' visibility='default-visibility' is-defined='yes'/>
    <elf-symbol name='_ZN9__gnu_cxx13new_allocatorIN10prometheus12ClientMetric8QuantileEEC1Ev' type='func-type' binding='weak-binding' visibility='default-visibility' alias='_ZN9__gnu_cxx13new_allocatorIN10prometheus12ClientMetric8QuantileEEC2Ev' is-defined='yes'/>
    <elf-symbol name='_ZN9__gnu_cxx13new_allocatorIN10prometheus12ClientMetric8QuantileEEC2ERKS4_' type='func-type' binding='weak-binding' visibility='default-visibility' alias='_ZN9__gnu_cxx13new_allocatorIN10prometheus12ClientMetric8QuantileEEC1ERKS4_' is-defined='yes'/>
    <elf-symbol name='_ZN9__gnu_cxx13new_allocatorIN10prometheus12ClientMetric8QuantileEEC2Ev' type='func-type' binding='weak-binding' visibility='default-visibility' is-defined='yes'/>
    <elf-symbol name='_ZN9__gnu_cxx13new_allocatorIN10prometheus12ClientMetric8QuantileEED1Ev' type='func-type' binding='weak-binding' visibility='default-visibility' is-defined='yes'/>
    <elf-symbol name='_ZN9__gnu_cxx13new_allocatorIN10prometheus12ClientMetric8QuantileEED2Ev' type='func-type' binding='weak-binding' visibility='default-visibility' alias='_ZN9__gnu_cxx13new_allocatorIN10prometheus12ClientMetric8QuantileEED1Ev' is-defined='yes'/>
    <elf-symbol name='_ZN9__gnu_cxx13new_allocatorIN10prometheus12ClientMetricEE10deallocateEPS2_m' type='func-type' binding='weak-binding' visibility='default-visibility' is-defined='yes'/>
    <elf-symbol name='_ZN9__gnu_cxx13new_allocatorIN10prometheus12ClientMetricEE7destroyIS2_EEvPT_' type='func-type' binding='weak-binding' visibility='default-visibility' is-defined='yes'/>
    <elf-symbol name='_ZN9__gnu_cxx13new_allocatorIN10prometheus12ClientMetricEE8allocateEmPKv' type='func-type' binding='weak-binding' visibility='default-visibility' is-defined='yes'/>
    <elf-symbol name='_ZN9__gnu_cxx13new_allocatorIN10prometheus12ClientMetricEE9constructIS2_JS2_EEEvPT_DpOT0_' type='func-type' binding='weak-binding' visibility='default-visibility' is-defined='yes'/>
    <elf-symbol name='_ZN9__gnu_cxx13new_allocatorIN10prometheus12ClientMetricEEC1ERKS3_' type='func-type' binding='weak-binding' visibility='default-visibility' is-defined='yes'/>
    <elf-symbol name='_ZN9__gnu_cxx13new_allocatorIN10prometheus12ClientMetricEEC1Ev' type='func-type' binding='weak-binding' visibility='default-visibility' alias='_ZN9__gnu_cxx13new_allocatorIN10prometheus12ClientMetricEEC2Ev' is-defined='yes'/>
    <elf-symbol name='_ZN9__gnu_cxx13new_allocatorIN10prometheus12ClientMetricEEC2ERKS3_' type='func-type' binding='weak-binding' visibility='default-visibility' alias='_ZN9__gnu_cxx13new_allocatorIN10prometheus12ClientMetricEEC1ERKS3_' is-defined='yes'/>
    <elf-symbol name='_ZN9__gnu_cxx13new_allocatorIN10prometheus12ClientMetricEEC2Ev' type='func-type' binding='weak-binding' visibility='default-visibility' is-defined='yes'/>
    <elf-symbol name='_ZN9__gnu_cxx13new_allocatorIN10prometheus12ClientMetricEED1Ev' type='func-type' binding='weak-binding' visibility='default-visibility' is-defined='yes'/>
    <elf-symbol name='_ZN9__gnu_cxx13new_allocatorIN10prometheus12ClientMetricEED2Ev' type='func-type' binding='weak-binding' visibility='default-visibility' alias='_ZN9__gnu_cxx13new_allocatorIN10prometheus12ClientMetricEED1Ev' is-defined='yes'/>
    <elf-symbol name='_ZN9__gnu_cxx13new_allocatorIN10prometheus12MetricFamilyEE10deallocateEPS2_m' type='func-type' binding='weak-binding' visibility='default-visibility' is-defined='yes'/>
    <elf-symbol name='_ZN9__gnu_cxx13new_allocatorIN10prometheus12MetricFamilyEE8allocateEmPKv' type='func-type' binding='weak-binding' visibility='default-visibility' is-defined='yes'/>
    <elf-symbol name='_ZN9__gnu_cxx13new_allocatorIN10prometheus12MetricFamilyEEC1ERKS3_' type='func-type' binding='weak-binding' visibility='default-visibility' is-defined='yes'/>
    <elf-symbol name='_ZN9__gnu_cxx13new_allocatorIN10prometheus12MetricFamilyEEC1Ev' type='func-type' binding='weak-binding' visibility='default-visibility' is-defined='yes'/>
    <elf-symbol name='_ZN9__gnu_cxx13new_allocatorIN10prometheus12MetricFamilyEEC2ERKS3_' type='func-type' binding='weak-binding' visibility='default-visibility' alias='_ZN9__gnu_cxx13new_allocatorIN10prometheus12MetricFamilyEEC1ERKS3_' is-defined='yes'/>
    <elf-symbol name='_ZN9__gnu_cxx13new_allocatorIN10prometheus12MetricFamilyEEC2Ev' type='func-type' binding='weak-binding' visibility='default-visibility' alias='_ZN9__gnu_cxx13new_allocatorIN10prometheus12MetricFamilyEEC1Ev' is-defined='yes'/>
    <elf-symbol name='_ZN9__gnu_cxx13new_allocatorIN10prometheus12MetricFamilyEED1Ev' type='func-type' binding='weak-binding' visibility='default-visibility' alias='_ZN9__gnu_cxx13new_allocatorIN10prometheus12MetricFamilyEED2Ev' is-defined='yes'/>
    <elf-symbol name='_ZN9__gnu_cxx13new_allocatorIN10prometheus12MetricFamilyEED2Ev' type='func-type' binding='weak-binding' visibility='default-visibility' is-defined='yes'/>
    <elf-symbol name='_ZN9__gnu_cxx13new_allocatorIN10prometheus6detail13CKMSQuantiles4ItemEE10deallocateEPS4_m' type='func-type' binding='weak-binding' visibility='default-visibility' is-defined='yes'/>
    <elf-symbol name='_ZN9__gnu_cxx13new_allocatorIN10prometheus6detail13CKMSQuantiles4ItemEE7destroyIS4_EEvPT_' type='func-type' binding='weak-binding' visibility='default-visibility' is-defined='yes'/>
    <elf-symbol name='_ZN9__gnu_cxx13new_allocatorIN10prometheus6detail13CKMSQuantiles4ItemEE8allocateEmPKv' type='func-type' binding='weak-binding' visibility='default-visibility' is-defined='yes'/>
    <elf-symbol name='_ZN9__gnu_cxx13new_allocatorIN10prometheus6detail13CKMSQuantiles4ItemEE9constructIS4_JRdiRiEEEvPT_DpOT0_' type='func-type' binding='weak-binding' visibility='default-visibility' is-defined='yes'/>
    <elf-symbol name='_ZN9__gnu_cxx13new_allocatorIN10prometheus6detail13CKMSQuantiles4ItemEE9constructIS4_JRdiiEEEvPT_DpOT0_' type='func-type' binding='weak-binding' visibility='default-visibility' is-defined='yes'/>
    <elf-symbol name='_ZN9__gnu_cxx13new_allocatorIN10prometheus6detail13CKMSQuantiles4ItemEE9constructIS4_JS4_EEEvPT_DpOT0_' type='func-type' binding='weak-binding' visibility='default-visibility' is-defined='yes'/>
    <elf-symbol name='_ZN9__gnu_cxx13new_allocatorIN10prometheus6detail13CKMSQuantiles4ItemEEC1ERKS5_' type='func-type' binding='weak-binding' visibility='default-visibility' is-defined='yes'/>
    <elf-symbol name='_ZN9__gnu_cxx13new_allocatorIN10prometheus6detail13CKMSQuantiles4ItemEEC1Ev' type='func-type' binding='weak-binding' visibility='default-visibility' alias='_ZN9__gnu_cxx13new_allocatorIN10prometheus6detail13CKMSQuantiles4ItemEEC2Ev' is-defined='yes'/>
    <elf-symbol name='_ZN9__gnu_cxx13new_allocatorIN10prometheus6detail13CKMSQuantiles4ItemEEC2ERKS5_' type='func-type' binding='weak-binding' visibility='default-visibility' alias='_ZN9__gnu_cxx13new_allocatorIN10prometheus6detail13CKMSQuantiles4ItemEEC1ERKS5_' is-defined='yes'/>
    <elf-symbol name='_ZN9__gnu_cxx13new_allocatorIN10prometheus6detail13CKMSQuantiles4ItemEEC2Ev' type='func-type' binding='weak-binding' visibility='default-visibility' is-defined='yes'/>
    <elf-symbol name='_ZN9__gnu_cxx13new_allocatorIN10prometheus6detail13CKMSQuantiles4ItemEED1Ev' type='func-type' binding='weak-binding' visibility='default-visibility' is-defined='yes'/>
    <elf-symbol name='_ZN9__gnu_cxx13new_allocatorIN10prometheus6detail13CKMSQuantiles4ItemEED2Ev' type='func-type' binding='weak-binding' visibility='default-visibility' alias='_ZN9__gnu_cxx13new_allocatorIN10prometheus6detail13CKMSQuantiles4ItemEED1Ev' is-defined='yes'/>
    <elf-symbol name='_ZN9__gnu_cxx13new_allocatorIN10prometheus6detail13CKMSQuantiles8QuantileEE10deallocateEPS4_m' type='func-type' binding='weak-binding' visibility='default-visibility' is-defined='yes'/>
    <elf-symbol name='_ZN9__gnu_cxx13new_allocatorIN10prometheus6detail13CKMSQuantiles8QuantileEE8allocateEmPKv' type='func-type' binding='weak-binding' visibility='default-visibility' is-defined='yes'/>
    <elf-symbol name='_ZN9__gnu_cxx13new_allocatorIN10prometheus6detail13CKMSQuantiles8QuantileEEC1ERKS5_' type='func-type' binding='weak-binding' visibility='default-visibility' alias='_ZN9__gnu_cxx13new_allocatorIN10prometheus6detail13CKMSQuantiles8QuantileEEC2ERKS5_' is-defined='yes'/>
    <elf-symbol name='_ZN9__gnu_cxx13new_allocatorIN10prometheus6detail13CKMSQuantiles8QuantileEEC2ERKS5_' type='func-type' binding='weak-binding' visibility='default-visibility' is-defined='yes'/>
    <elf-symbol name='_ZN9__gnu_cxx13new_allocatorIN10prometheus6detail13CKMSQuantiles8QuantileEED1Ev' type='func-type' binding='weak-binding' visibility='default-visibility' is-defined='yes'/>
    <elf-symbol name='_ZN9__gnu_cxx13new_allocatorIN10prometheus6detail13CKMSQuantiles8QuantileEED2Ev' type='func-type' binding='weak-binding' visibility='default-visibility' alias='_ZN9__gnu_cxx13new_allocatorIN10prometheus6detail13CKMSQuantiles8QuantileEED1Ev' is-defined='yes'/>
    <elf-symbol name='_ZN9__gnu_cxx13new_allocatorIN10prometheus6detail13CKMSQuantilesEE10deallocateEPS3_m' type='func-type' binding='weak-binding' visibility='default-visibility' is-defined='yes'/>
    <elf-symbol name='_ZN9__gnu_cxx13new_allocatorIN10prometheus6detail13CKMSQuantilesEE8allocateEmPKv' type='func-type' binding='weak-binding' visibility='default-visibility' is-defined='yes'/>
    <elf-symbol name='_ZN9__gnu_cxx13new_allocatorIN10prometheus6detail13CKMSQuantilesEEC1ERKS4_' type='func-type' binding='weak-binding' visibility='default-visibility' is-defined='yes'/>
    <elf-symbol name='_ZN9__gnu_cxx13new_allocatorIN10prometheus6detail13CKMSQuantilesEEC1Ev' type='func-type' binding='weak-binding' visibility='default-visibility' is-defined='yes'/>
    <elf-symbol name='_ZN9__gnu_cxx13new_allocatorIN10prometheus6detail13CKMSQuantilesEEC2ERKS4_' type='func-type' binding='weak-binding' visibility='default-visibility' alias='_ZN9__gnu_cxx13new_allocatorIN10prometheus6detail13CKMSQuantilesEEC1ERKS4_' is-defined='yes'/>
    <elf-symbol name='_ZN9__gnu_cxx13new_allocatorIN10prometheus6detail13CKMSQuantilesEEC2Ev' type='func-type' binding='weak-binding' visibility='default-visibility' alias='_ZN9__gnu_cxx13new_allocatorIN10prometheus6detail13CKMSQuantilesEEC1Ev' is-defined='yes'/>
    <elf-symbol name='_ZN9__gnu_cxx13new_allocatorIN10prometheus6detail13CKMSQuantilesEED1Ev' type='func-type' binding='weak-binding' visibility='default-visibility' alias='_ZN9__gnu_cxx13new_allocatorIN10prometheus6detail13CKMSQuantilesEED2Ev' is-defined='yes'/>
    <elf-symbol name='_ZN9__gnu_cxx13new_allocatorIN10prometheus6detail13CKMSQuantilesEED2Ev' type='func-type' binding='weak-binding' visibility='default-visibility' is-defined='yes'/>
    <elf-symbol name='_ZN9__gnu_cxx13new_allocatorIN10prometheus7CounterEE10deallocateEPS2_m' type='func-type' binding='weak-binding' visibility='default-visibility' is-defined='yes'/>
    <elf-symbol name='_ZN9__gnu_cxx13new_allocatorIN10prometheus7CounterEE8allocateEmPKv' type='func-type' binding='weak-binding' visibility='default-visibility' is-defined='yes'/>
    <elf-symbol name='_ZN9__gnu_cxx13new_allocatorIN10prometheus7CounterEEC1ERKS3_' type='func-type' binding='weak-binding' visibility='default-visibility' alias='_ZN9__gnu_cxx13new_allocatorIN10prometheus7CounterEEC2ERKS3_' is-defined='yes'/>
    <elf-symbol name='_ZN9__gnu_cxx13new_allocatorIN10prometheus7CounterEEC1Ev' type='func-type' binding='weak-binding' visibility='default-visibility' is-defined='yes'/>
    <elf-symbol name='_ZN9__gnu_cxx13new_allocatorIN10prometheus7CounterEEC2ERKS3_' type='func-type' binding='weak-binding' visibility='default-visibility' is-defined='yes'/>
    <elf-symbol name='_ZN9__gnu_cxx13new_allocatorIN10prometheus7CounterEEC2Ev' type='func-type' binding='weak-binding' visibility='default-visibility' alias='_ZN9__gnu_cxx13new_allocatorIN10prometheus7CounterEEC1Ev' is-defined='yes'/>
    <elf-symbol name='_ZN9__gnu_cxx13new_allocatorIN10prometheus7CounterEED1Ev' type='func-type' binding='weak-binding' visibility='default-visibility' alias='_ZN9__gnu_cxx13new_allocatorIN10prometheus7CounterEED2Ev' is-defined='yes'/>
    <elf-symbol name='_ZN9__gnu_cxx13new_allocatorIN10prometheus7CounterEED2Ev' type='func-type' binding='weak-binding' visibility='default-visibility' is-defined='yes'/>
    <elf-symbol name='_ZN9__gnu_cxx13new_allocatorINSt8__detail10_Hash_nodeISt4pairIKPN10prometheus5GaugeEmELb0EEEE10deallocateEPS9_m' type='func-type' binding='weak-binding' visibility='default-visibility' is-defined='yes'/>
    <elf-symbol name='_ZN9__gnu_cxx13new_allocatorINSt8__detail10_Hash_nodeISt4pairIKPN10prometheus5GaugeEmELb0EEEE7destroyIS8_EEvPT_' type='func-type' binding='weak-binding' visibility='default-visibility' is-defined='yes'/>
    <elf-symbol name='_ZN9__gnu_cxx13new_allocatorINSt8__detail10_Hash_nodeISt4pairIKPN10prometheus5GaugeEmELb0EEEE8allocateEmPKv' type='func-type' binding='weak-binding' visibility='default-visibility' is-defined='yes'/>
    <elf-symbol name='_ZN9__gnu_cxx13new_allocatorINSt8__detail10_Hash_nodeISt4pairIKPN10prometheus5GaugeEmELb0EEEE9constructIS8_JS8_EEEvPT_DpOT0_' type='func-type' binding='weak-binding' visibility='default-visibility' is-defined='yes'/>
    <elf-symbol name='_ZN9__gnu_cxx13new_allocatorINSt8__detail10_Hash_nodeISt4pairIKPN10prometheus5GaugeEmELb0EEEEC1Ev' type='func-type' binding='weak-binding' visibility='default-visibility' is-defined='yes'/>
    <elf-symbol name='_ZN9__gnu_cxx13new_allocatorINSt8__detail10_Hash_nodeISt4pairIKPN10prometheus5GaugeEmELb0EEEEC2Ev' type='func-type' binding='weak-binding' visibility='default-visibility' alias='_ZN9__gnu_cxx13new_allocatorINSt8__detail10_Hash_nodeISt4pairIKPN10prometheus5GaugeEmELb0EEEEC1Ev' is-defined='yes'/>
    <elf-symbol name='_ZN9__gnu_cxx13new_allocatorINSt8__detail10_Hash_nodeISt4pairIKPN10prometheus5GaugeEmELb0EEEED1Ev' type='func-type' binding='weak-binding' visibility='default-visibility' alias='_ZN9__gnu_cxx13new_allocatorINSt8__detail10_Hash_nodeISt4pairIKPN10prometheus5GaugeEmELb0EEEED2Ev' is-defined='yes'/>
    <elf-symbol name='_ZN9__gnu_cxx13new_allocatorINSt8__detail10_Hash_nodeISt4pairIKPN10prometheus5GaugeEmELb0EEEED2Ev' type='func-type' binding='weak-binding' visibility='default-visibility' is-defined='yes'/>
    <elf-symbol name='_ZN9__gnu_cxx13new_allocatorINSt8__detail10_Hash_nodeISt4pairIKPN10prometheus7CounterEmELb0EEEE10deallocateEPS9_m' type='func-type' binding='weak-binding' visibility='default-visibility' is-defined='yes'/>
    <elf-symbol name='_ZN9__gnu_cxx13new_allocatorINSt8__detail10_Hash_nodeISt4pairIKPN10prometheus7CounterEmELb0EEEE7destroyIS8_EEvPT_' type='func-type' binding='weak-binding' visibility='default-visibility' is-defined='yes'/>
    <elf-symbol name='_ZN9__gnu_cxx13new_allocatorINSt8__detail10_Hash_nodeISt4pairIKPN10prometheus7CounterEmELb0EEEE8allocateEmPKv' type='func-type' binding='weak-binding' visibility='default-visibility' is-defined='yes'/>
    <elf-symbol name='_ZN9__gnu_cxx13new_allocatorINSt8__detail10_Hash_nodeISt4pairIKPN10prometheus7CounterEmELb0EEEE9constructIS8_JS8_EEEvPT_DpOT0_' type='func-type' binding='weak-binding' visibility='default-visibility' is-defined='yes'/>
    <elf-symbol name='_ZN9__gnu_cxx13new_allocatorINSt8__detail10_Hash_nodeISt4pairIKPN10prometheus7CounterEmELb0EEEEC1Ev' type='func-type' binding='weak-binding' visibility='default-visibility' alias='_ZN9__gnu_cxx13new_allocatorINSt8__detail10_Hash_nodeISt4pairIKPN10prometheus7CounterEmELb0EEEEC2Ev' is-defined='yes'/>
    <elf-symbol name='_ZN9__gnu_cxx13new_allocatorINSt8__detail10_Hash_nodeISt4pairIKPN10prometheus7CounterEmELb0EEEEC2Ev' type='func-type' binding='weak-binding' visibility='default-visibility' is-defined='yes'/>
    <elf-symbol name='_ZN9__gnu_cxx13new_allocatorINSt8__detail10_Hash_nodeISt4pairIKPN10prometheus7CounterEmELb0EEEED1Ev' type='func-type' binding='weak-binding' visibility='default-visibility' is-defined='yes'/>
    <elf-symbol name='_ZN9__gnu_cxx13new_allocatorINSt8__detail10_Hash_nodeISt4pairIKPN10prometheus7CounterEmELb0EEEED2Ev' type='func-type' binding='weak-binding' visibility='default-visibility' alias='_ZN9__gnu_cxx13new_allocatorINSt8__detail10_Hash_nodeISt4pairIKPN10prometheus7CounterEmELb0EEEED1Ev' is-defined='yes'/>
    <elf-symbol name='_ZN9__gnu_cxx13new_allocatorINSt8__detail10_Hash_nodeISt4pairIKPN10prometheus7SummaryEmELb0EEEE10deallocateEPS9_m' type='func-type' binding='weak-binding' visibility='default-visibility' is-defined='yes'/>
    <elf-symbol name='_ZN9__gnu_cxx13new_allocatorINSt8__detail10_Hash_nodeISt4pairIKPN10prometheus7SummaryEmELb0EEEE7destroyIS8_EEvPT_' type='func-type' binding='weak-binding' visibility='default-visibility' is-defined='yes'/>
    <elf-symbol name='_ZN9__gnu_cxx13new_allocatorINSt8__detail10_Hash_nodeISt4pairIKPN10prometheus7SummaryEmELb0EEEE8allocateEmPKv' type='func-type' binding='weak-binding' visibility='default-visibility' is-defined='yes'/>
    <elf-symbol name='_ZN9__gnu_cxx13new_allocatorINSt8__detail10_Hash_nodeISt4pairIKPN10prometheus7SummaryEmELb0EEEE9constructIS8_JS8_EEEvPT_DpOT0_' type='func-type' binding='weak-binding' visibility='default-visibility' is-defined='yes'/>
    <elf-symbol name='_ZN9__gnu_cxx13new_allocatorINSt8__detail10_Hash_nodeISt4pairIKPN10prometheus7SummaryEmELb0EEEEC1Ev' type='func-type' binding='weak-binding' visibility='default-visibility' is-defined='yes'/>
    <elf-symbol name='_ZN9__gnu_cxx13new_allocatorINSt8__detail10_Hash_nodeISt4pairIKPN10prometheus7SummaryEmELb0EEEEC2Ev' type='func-type' binding='weak-binding' visibility='default-visibility' alias='_ZN9__gnu_cxx13new_allocatorINSt8__detail10_Hash_nodeISt4pairIKPN10prometheus7SummaryEmELb0EEEEC1Ev' is-defined='yes'/>
    <elf-symbol name='_ZN9__gnu_cxx13new_allocatorINSt8__detail10_Hash_nodeISt4pairIKPN10prometheus7SummaryEmELb0EEEED1Ev' type='func-type' binding='weak-binding' visibility='default-visibility' alias='_ZN9__gnu_cxx13new_allocatorINSt8__detail10_Hash_nodeISt4pairIKPN10prometheus7SummaryEmELb0EEEED2Ev' is-defined='yes'/>
    <elf-symbol name='_ZN9__gnu_cxx13new_allocatorINSt8__detail10_Hash_nodeISt4pairIKPN10prometheus7SummaryEmELb0EEEED2Ev' type='func-type' binding='weak-binding' visibility='default-visibility' is-defined='yes'/>
    <elf-symbol name='_ZN9__gnu_cxx13new_allocatorINSt8__detail10_Hash_nodeISt4pairIKPN10prometheus9HistogramEmELb0EEEE10deallocateEPS9_m' type='func-type' binding='weak-binding' visibility='default-visibility' is-defined='yes'/>
    <elf-symbol name='_ZN9__gnu_cxx13new_allocatorINSt8__detail10_Hash_nodeISt4pairIKPN10prometheus9HistogramEmELb0EEEE7destroyIS8_EEvPT_' type='func-type' binding='weak-binding' visibility='default-visibility' is-defined='yes'/>
    <elf-symbol name='_ZN9__gnu_cxx13new_allocatorINSt8__detail10_Hash_nodeISt4pairIKPN10prometheus9HistogramEmELb0EEEE8allocateEmPKv' type='func-type' binding='weak-binding' visibility='default-visibility' is-defined='yes'/>
    <elf-symbol name='_ZN9__gnu_cxx13new_allocatorINSt8__detail10_Hash_nodeISt4pairIKPN10prometheus9HistogramEmELb0EEEE9constructIS8_JS8_EEEvPT_DpOT0_' type='func-type' binding='weak-binding' visibility='default-visibility' is-defined='yes'/>
    <elf-symbol name='_ZN9__gnu_cxx13new_allocatorINSt8__detail10_Hash_nodeISt4pairIKPN10prometheus9HistogramEmELb0EEEEC1Ev' type='func-type' binding='weak-binding' visibility='default-visibility' is-defined='yes'/>
    <elf-symbol name='_ZN9__gnu_cxx13new_allocatorINSt8__detail10_Hash_nodeISt4pairIKPN10prometheus9HistogramEmELb0EEEEC2Ev' type='func-type' binding='weak-binding' visibility='default-visibility' alias='_ZN9__gnu_cxx13new_allocatorINSt8__detail10_Hash_nodeISt4pairIKPN10prometheus9HistogramEmELb0EEEEC1Ev' is-defined='yes'/>
    <elf-symbol name='_ZN9__gnu_cxx13new_allocatorINSt8__detail10_Hash_nodeISt4pairIKPN10prometheus9HistogramEmELb0EEEED1Ev' type='func-type' binding='weak-binding' visibility='default-visibility' alias='_ZN9__gnu_cxx13new_allocatorINSt8__detail10_Hash_nodeISt4pairIKPN10prometheus9HistogramEmELb0EEEED2Ev' is-defined='yes'/>
    <elf-symbol name='_ZN9__gnu_cxx13new_allocatorINSt8__detail10_Hash_nodeISt4pairIKPN10prometheus9HistogramEmELb0EEEED2Ev' type='func-type' binding='weak-binding' visibility='default-visibility' is-defined='yes'/>
    <elf-symbol name='_ZN9__gnu_cxx13new_allocatorINSt8__detail10_Hash_nodeISt4pairIKmSt10unique_ptrIN10prometheus5GaugeESt14default_deleteIS7_EEELb0EEEE10deallocateEPSC_m' type='func-type' binding='weak-binding' visibility='default-visibility' is-defined='yes'/>
    <elf-symbol name='_ZN9__gnu_cxx13new_allocatorINSt8__detail10_Hash_nodeISt4pairIKmSt10unique_ptrIN10prometheus5GaugeESt14default_deleteIS7_EEELb0EEEE7destroyISB_EEvPT_' type='func-type' binding='weak-binding' visibility='default-visibility' is-defined='yes'/>
    <elf-symbol name='_ZN9__gnu_cxx13new_allocatorINSt8__detail10_Hash_nodeISt4pairIKmSt10unique_ptrIN10prometheus5GaugeESt14default_deleteIS7_EEELb0EEEE8allocateEmPKv' type='func-type' binding='weak-binding' visibility='default-visibility' is-defined='yes'/>
    <elf-symbol name='_ZN9__gnu_cxx13new_allocatorINSt8__detail10_Hash_nodeISt4pairIKmSt10unique_ptrIN10prometheus5GaugeESt14default_deleteIS7_EEELb0EEEE9constructISB_JS3_ImSA_EEEEvPT_DpOT0_' type='func-type' binding='weak-binding' visibility='default-visibility' is-defined='yes'/>
    <elf-symbol name='_ZN9__gnu_cxx13new_allocatorINSt8__detail10_Hash_nodeISt4pairIKmSt10unique_ptrIN10prometheus5GaugeESt14default_deleteIS7_EEELb0EEEEC1Ev' type='func-type' binding='weak-binding' visibility='default-visibility' alias='_ZN9__gnu_cxx13new_allocatorINSt8__detail10_Hash_nodeISt4pairIKmSt10unique_ptrIN10prometheus5GaugeESt14default_deleteIS7_EEELb0EEEEC2Ev' is-defined='yes'/>
    <elf-symbol name='_ZN9__gnu_cxx13new_allocatorINSt8__detail10_Hash_nodeISt4pairIKmSt10unique_ptrIN10prometheus5GaugeESt14default_deleteIS7_EEELb0EEEEC2Ev' type='func-type' binding='weak-binding' visibility='default-visibility' is-defined='yes'/>
    <elf-symbol name='_ZN9__gnu_cxx13new_allocatorINSt8__detail10_Hash_nodeISt4pairIKmSt10unique_ptrIN10prometheus5GaugeESt14default_deleteIS7_EEELb0EEEED1Ev' type='func-type' binding='weak-binding' visibility='default-visibility' is-defined='yes'/>
    <elf-symbol name='_ZN9__gnu_cxx13new_allocatorINSt8__detail10_Hash_nodeISt4pairIKmSt10unique_ptrIN10prometheus5GaugeESt14default_deleteIS7_EEELb0EEEED2Ev' type='func-type' binding='weak-binding' visibility='default-visibility' alias='_ZN9__gnu_cxx13new_allocatorINSt8__detail10_Hash_nodeISt4pairIKmSt10unique_ptrIN10prometheus5GaugeESt14default_deleteIS7_EEELb0EEEED1Ev' is-defined='yes'/>
    <elf-symbol name='_ZN9__gnu_cxx13new_allocatorINSt8__detail10_Hash_nodeISt4pairIKmSt10unique_ptrIN10prometheus7CounterESt14default_deleteIS7_EEELb0EEEE10deallocateEPSC_m' type='func-type' binding='weak-binding' visibility='default-visibility' is-defined='yes'/>
    <elf-symbol name='_ZN9__gnu_cxx13new_allocatorINSt8__detail10_Hash_nodeISt4pairIKmSt10unique_ptrIN10prometheus7CounterESt14default_deleteIS7_EEELb0EEEE7destroyISB_EEvPT_' type='func-type' binding='weak-binding' visibility='default-visibility' is-defined='yes'/>
    <elf-symbol name='_ZN9__gnu_cxx13new_allocatorINSt8__detail10_Hash_nodeISt4pairIKmSt10unique_ptrIN10prometheus7CounterESt14default_deleteIS7_EEELb0EEEE8allocateEmPKv' type='func-type' binding='weak-binding' visibility='default-visibility' is-defined='yes'/>
    <elf-symbol name='_ZN9__gnu_cxx13new_allocatorINSt8__detail10_Hash_nodeISt4pairIKmSt10unique_ptrIN10prometheus7CounterESt14default_deleteIS7_EEELb0EEEE9constructISB_JS3_ImSA_EEEEvPT_DpOT0_' type='func-type' binding='weak-binding' visibility='default-visibility' is-defined='yes'/>
    <elf-symbol name='_ZN9__gnu_cxx13new_allocatorINSt8__detail10_Hash_nodeISt4pairIKmSt10unique_ptrIN10prometheus7CounterESt14default_deleteIS7_EEELb0EEEEC1Ev' type='func-type' binding='weak-binding' visibility='default-visibility' is-defined='yes'/>
    <elf-symbol name='_ZN9__gnu_cxx13new_allocatorINSt8__detail10_Hash_nodeISt4pairIKmSt10unique_ptrIN10prometheus7CounterESt14default_deleteIS7_EEELb0EEEEC2Ev' type='func-type' binding='weak-binding' visibility='default-visibility' alias='_ZN9__gnu_cxx13new_allocatorINSt8__detail10_Hash_nodeISt4pairIKmSt10unique_ptrIN10prometheus7CounterESt14default_deleteIS7_EEELb0EEEEC1Ev' is-defined='yes'/>
    <elf-symbol name='_ZN9__gnu_cxx13new_allocatorINSt8__detail10_Hash_nodeISt4pairIKmSt10unique_ptrIN10prometheus7CounterESt14default_deleteIS7_EEELb0EEEED1Ev' type='func-type' binding='weak-binding' visibility='default-visibility' alias='_ZN9__gnu_cxx13new_allocatorINSt8__detail10_Hash_nodeISt4pairIKmSt10unique_ptrIN10prometheus7CounterESt14default_deleteIS7_EEELb0EEEED2Ev' is-defined='yes'/>
    <elf-symbol name='_ZN9__gnu_cxx13new_allocatorINSt8__detail10_Hash_nodeISt4pairIKmSt10unique_ptrIN10prometheus7CounterESt14default_deleteIS7_EEELb0EEEED2Ev' type='func-type' binding='weak-binding' visibility='default-visibility' is-defined='yes'/>
    <elf-symbol name='_ZN9__gnu_cxx13new_allocatorINSt8__detail10_Hash_nodeISt4pairIKmSt10unique_ptrIN10prometheus7SummaryESt14default_deleteIS7_EEELb0EEEE10deallocateEPSC_m' type='func-type' binding='weak-binding' visibility='default-visibility' is-defined='yes'/>
    <elf-symbol name='_ZN9__gnu_cxx13new_allocatorINSt8__detail10_Hash_nodeISt4pairIKmSt10unique_ptrIN10prometheus7SummaryESt14default_deleteIS7_EEELb0EEEE7destroyISB_EEvPT_' type='func-type' binding='weak-binding' visibility='default-visibility' is-defined='yes'/>
    <elf-symbol name='_ZN9__gnu_cxx13new_allocatorINSt8__detail10_Hash_nodeISt4pairIKmSt10unique_ptrIN10prometheus7SummaryESt14default_deleteIS7_EEELb0EEEE8allocateEmPKv' type='func-type' binding='weak-binding' visibility='default-visibility' is-defined='yes'/>
    <elf-symbol name='_ZN9__gnu_cxx13new_allocatorINSt8__detail10_Hash_nodeISt4pairIKmSt10unique_ptrIN10prometheus7SummaryESt14default_deleteIS7_EEELb0EEEE9constructISB_JS3_ImSA_EEEEvPT_DpOT0_' type='func-type' binding='weak-binding' visibility='default-visibility' is-defined='yes'/>
    <elf-symbol name='_ZN9__gnu_cxx13new_allocatorINSt8__detail10_Hash_nodeISt4pairIKmSt10unique_ptrIN10prometheus7SummaryESt14default_deleteIS7_EEELb0EEEEC1Ev' type='func-type' binding='weak-binding' visibility='default-visibility' alias='_ZN9__gnu_cxx13new_allocatorINSt8__detail10_Hash_nodeISt4pairIKmSt10unique_ptrIN10prometheus7SummaryESt14default_deleteIS7_EEELb0EEEEC2Ev' is-defined='yes'/>
    <elf-symbol name='_ZN9__gnu_cxx13new_allocatorINSt8__detail10_Hash_nodeISt4pairIKmSt10unique_ptrIN10prometheus7SummaryESt14default_deleteIS7_EEELb0EEEEC2Ev' type='func-type' binding='weak-binding' visibility='default-visibility' is-defined='yes'/>
    <elf-symbol name='_ZN9__gnu_cxx13new_allocatorINSt8__detail10_Hash_nodeISt4pairIKmSt10unique_ptrIN10prometheus7SummaryESt14default_deleteIS7_EEELb0EEEED1Ev' type='func-type' binding='weak-binding' visibility='default-visibility' is-defined='yes'/>
    <elf-symbol name='_ZN9__gnu_cxx13new_allocatorINSt8__detail10_Hash_nodeISt4pairIKmSt10unique_ptrIN10prometheus7SummaryESt14default_deleteIS7_EEELb0EEEED2Ev' type='func-type' binding='weak-binding' visibility='default-visibility' alias='_ZN9__gnu_cxx13new_allocatorINSt8__detail10_Hash_nodeISt4pairIKmSt10unique_ptrIN10prometheus7SummaryESt14default_deleteIS7_EEELb0EEEED1Ev' is-defined='yes'/>
    <elf-symbol name='_ZN9__gnu_cxx13new_allocatorINSt8__detail10_Hash_nodeISt4pairIKmSt10unique_ptrIN10prometheus9HistogramESt14default_deleteIS7_EEELb0EEEE10deallocateEPSC_m' type='func-type' binding='weak-binding' visibility='default-visibility' is-defined='yes'/>
    <elf-symbol name='_ZN9__gnu_cxx13new_allocatorINSt8__detail10_Hash_nodeISt4pairIKmSt10unique_ptrIN10prometheus9HistogramESt14default_deleteIS7_EEELb0EEEE7destroyISB_EEvPT_' type='func-type' binding='weak-binding' visibility='default-visibility' is-defined='yes'/>
    <elf-symbol name='_ZN9__gnu_cxx13new_allocatorINSt8__detail10_Hash_nodeISt4pairIKmSt10unique_ptrIN10prometheus9HistogramESt14default_deleteIS7_EEELb0EEEE8allocateEmPKv' type='func-type' binding='weak-binding' visibility='default-visibility' is-defined='yes'/>
    <elf-symbol name='_ZN9__gnu_cxx13new_allocatorINSt8__detail10_Hash_nodeISt4pairIKmSt10unique_ptrIN10prometheus9HistogramESt14default_deleteIS7_EEELb0EEEE9constructISB_JS3_ImSA_EEEEvPT_DpOT0_' type='func-type' binding='weak-binding' visibility='default-visibility' is-defined='yes'/>
    <elf-symbol name='_ZN9__gnu_cxx13new_allocatorINSt8__detail10_Hash_nodeISt4pairIKmSt10unique_ptrIN10prometheus9HistogramESt14default_deleteIS7_EEELb0EEEEC1Ev' type='func-type' binding='weak-binding' visibility='default-visibility' alias='_ZN9__gnu_cxx13new_allocatorINSt8__detail10_Hash_nodeISt4pairIKmSt10unique_ptrIN10prometheus9HistogramESt14default_deleteIS7_EEELb0EEEEC2Ev' is-defined='yes'/>
    <elf-symbol name='_ZN9__gnu_cxx13new_allocatorINSt8__detail10_Hash_nodeISt4pairIKmSt10unique_ptrIN10prometheus9HistogramESt14default_deleteIS7_EEELb0EEEEC2Ev' type='func-type' binding='weak-binding' visibility='default-visibility' is-defined='yes'/>
    <elf-symbol name='_ZN9__gnu_cxx13new_allocatorINSt8__detail10_Hash_nodeISt4pairIKmSt10unique_ptrIN10prometheus9HistogramESt14default_deleteIS7_EEELb0EEEED1Ev' type='func-type' binding='weak-binding' visibility='default-visibility' is-defined='yes'/>
    <elf-symbol name='_ZN9__gnu_cxx13new_allocatorINSt8__detail10_Hash_nodeISt4pairIKmSt10unique_ptrIN10prometheus9HistogramESt14default_deleteIS7_EEELb0EEEED2Ev' type='func-type' binding='weak-binding' visibility='default-visibility' alias='_ZN9__gnu_cxx13new_allocatorINSt8__detail10_Hash_nodeISt4pairIKmSt10unique_ptrIN10prometheus9HistogramESt14default_deleteIS7_EEELb0EEEED1Ev' is-defined='yes'/>
    <elf-symbol name='_ZN9__gnu_cxx13new_allocatorINSt8__detail10_Hash_nodeISt4pairIKmSt3mapINSt7__cxx1112basic_stringIcSt11char_traitsIcESaIcEEESB_St4lessISB_ESaIS3_IKSB_SB_EEEELb0EEEE10deallocateEPSJ_m' type='func-type' binding='weak-binding' visibility='default-visibility' is-defined='yes'/>
    <elf-symbol name='_ZN9__gnu_cxx13new_allocatorINSt8__detail10_Hash_nodeISt4pairIKmSt3mapINSt7__cxx1112basic_stringIcSt11char_traitsIcESaIcEEESB_St4lessISB_ESaIS3_IKSB_SB_EEEELb0EEEE7destroyISI_EEvPT_' type='func-type' binding='weak-binding' visibility='default-visibility' is-defined='yes'/>
    <elf-symbol name='_ZN9__gnu_cxx13new_allocatorINSt8__detail10_Hash_nodeISt4pairIKmSt3mapINSt7__cxx1112basic_stringIcSt11char_traitsIcESaIcEEESB_St4lessISB_ESaIS3_IKSB_SB_EEEELb0EEEE8allocateEmPKv' type='func-type' binding='weak-binding' visibility='default-visibility' is-defined='yes'/>
    <elf-symbol name='_ZN9__gnu_cxx13new_allocatorINSt8__detail10_Hash_nodeISt4pairIKmSt3mapINSt7__cxx1112basic_stringIcSt11char_traitsIcESaIcEEESB_St4lessISB_ESaIS3_IKSB_SB_EEEELb0EEEE9constructISI_JSI_EEEvPT_DpOT0_' type='func-type' binding='weak-binding' visibility='default-visibility' is-defined='yes'/>
    <elf-symbol name='_ZN9__gnu_cxx13new_allocatorINSt8__detail10_Hash_nodeISt4pairIKmSt3mapINSt7__cxx1112basic_stringIcSt11char_traitsIcESaIcEEESB_St4lessISB_ESaIS3_IKSB_SB_EEEELb0EEEEC1Ev' type='func-type' binding='weak-binding' visibility='default-visibility' is-defined='yes'/>
    <elf-symbol name='_ZN9__gnu_cxx13new_allocatorINSt8__detail10_Hash_nodeISt4pairIKmSt3mapINSt7__cxx1112basic_stringIcSt11char_traitsIcESaIcEEESB_St4lessISB_ESaIS3_IKSB_SB_EEEELb0EEEEC2Ev' type='func-type' binding='weak-binding' visibility='default-visibility' alias='_ZN9__gnu_cxx13new_allocatorINSt8__detail10_Hash_nodeISt4pairIKmSt3mapINSt7__cxx1112basic_stringIcSt11char_traitsIcESaIcEEESB_St4lessISB_ESaIS3_IKSB_SB_EEEELb0EEEEC1Ev' is-defined='yes'/>
    <elf-symbol name='_ZN9__gnu_cxx13new_allocatorINSt8__detail10_Hash_nodeISt4pairIKmSt3mapINSt7__cxx1112basic_stringIcSt11char_traitsIcESaIcEEESB_St4lessISB_ESaIS3_IKSB_SB_EEEELb0EEEED1Ev' type='func-type' binding='weak-binding' visibility='default-visibility' alias='_ZN9__gnu_cxx13new_allocatorINSt8__detail10_Hash_nodeISt4pairIKmSt3mapINSt7__cxx1112basic_stringIcSt11char_traitsIcESaIcEEESB_St4lessISB_ESaIS3_IKSB_SB_EEEELb0EEEED2Ev' is-defined='yes'/>
    <elf-symbol name='_ZN9__gnu_cxx13new_allocatorINSt8__detail10_Hash_nodeISt4pairIKmSt3mapINSt7__cxx1112basic_stringIcSt11char_traitsIcESaIcEEESB_St4lessISB_ESaIS3_IKSB_SB_EEEELb0EEEED2Ev' type='func-type' binding='weak-binding' visibility='default-visibility' is-defined='yes'/>
    <elf-symbol name='_ZN9__gnu_cxx13new_allocatorIPNSt8__detail15_Hash_node_baseEE10deallocateEPS3_m' type='func-type' binding='weak-binding' visibility='default-visibility' is-defined='yes'/>
    <elf-symbol name='_ZN9__gnu_cxx13new_allocatorIPNSt8__detail15_Hash_node_baseEE8allocateEmPKv' type='func-type' binding='weak-binding' visibility='default-visibility' is-defined='yes'/>
    <elf-symbol name='_ZN9__gnu_cxx13new_allocatorIPNSt8__detail15_Hash_node_baseEEC1Ev' type='func-type' binding='weak-binding' visibility='default-visibility' is-defined='yes'/>
    <elf-symbol name='_ZN9__gnu_cxx13new_allocatorIPNSt8__detail15_Hash_node_baseEEC2Ev' type='func-type' binding='weak-binding' visibility='default-visibility' alias='_ZN9__gnu_cxx13new_allocatorIPNSt8__detail15_Hash_node_baseEEC1Ev' is-defined='yes'/>
    <elf-symbol name='_ZN9__gnu_cxx13new_allocatorIPNSt8__detail15_Hash_node_baseEED1Ev' type='func-type' binding='weak-binding' visibility='default-visibility' is-defined='yes'/>
    <elf-symbol name='_ZN9__gnu_cxx13new_allocatorIPNSt8__detail15_Hash_node_baseEED2Ev' type='func-type' binding='weak-binding' visibility='default-visibility' alias='_ZN9__gnu_cxx13new_allocatorIPNSt8__detail15_Hash_node_baseEED1Ev' is-defined='yes'/>
    <elf-symbol name='_ZN9__gnu_cxx13new_allocatorISt13_Rb_tree_nodeISt4pairIKNSt7__cxx1112basic_stringIcSt11char_traitsIcESaIcEEES8_EEE10deallocateEPSB_m' type='func-type' binding='weak-binding' visibility='default-visibility' is-defined='yes'/>
    <elf-symbol name='_ZN9__gnu_cxx13new_allocatorISt13_Rb_tree_nodeISt4pairIKNSt7__cxx1112basic_stringIcSt11char_traitsIcESaIcEEES8_EEE7destroyISA_EEvPT_' type='func-type' binding='weak-binding' visibility='default-visibility' is-defined='yes'/>
    <elf-symbol name='_ZN9__gnu_cxx13new_allocatorISt13_Rb_tree_nodeISt4pairIKNSt7__cxx1112basic_stringIcSt11char_traitsIcESaIcEEES8_EEE8allocateEmPKv' type='func-type' binding='weak-binding' visibility='default-visibility' is-defined='yes'/>
    <elf-symbol name='_ZN9__gnu_cxx13new_allocatorISt13_Rb_tree_nodeISt4pairIKNSt7__cxx1112basic_stringIcSt11char_traitsIcESaIcEEES8_EEE9constructISA_JRKSA_EEEvPT_DpOT0_' type='func-type' binding='weak-binding' visibility='default-visibility' is-defined='yes'/>
    <elf-symbol name='_ZN9__gnu_cxx13new_allocatorISt13_Rb_tree_nodeISt4pairIKNSt7__cxx1112basic_stringIcSt11char_traitsIcESaIcEEES8_EEEC1ERKSC_' type='func-type' binding='weak-binding' visibility='default-visibility' is-defined='yes'/>
    <elf-symbol name='_ZN9__gnu_cxx13new_allocatorISt13_Rb_tree_nodeISt4pairIKNSt7__cxx1112basic_stringIcSt11char_traitsIcESaIcEEES8_EEEC1Ev' type='func-type' binding='weak-binding' visibility='default-visibility' alias='_ZN9__gnu_cxx13new_allocatorISt13_Rb_tree_nodeISt4pairIKNSt7__cxx1112basic_stringIcSt11char_traitsIcESaIcEEES8_EEEC2Ev' is-defined='yes'/>
    <elf-symbol name='_ZN9__gnu_cxx13new_allocatorISt13_Rb_tree_nodeISt4pairIKNSt7__cxx1112basic_stringIcSt11char_traitsIcESaIcEEES8_EEEC2ERKSC_' type='func-type' binding='weak-binding' visibility='default-visibility' alias='_ZN9__gnu_cxx13new_allocatorISt13_Rb_tree_nodeISt4pairIKNSt7__cxx1112basic_stringIcSt11char_traitsIcESaIcEEES8_EEEC1ERKSC_' is-defined='yes'/>
    <elf-symbol name='_ZN9__gnu_cxx13new_allocatorISt13_Rb_tree_nodeISt4pairIKNSt7__cxx1112basic_stringIcSt11char_traitsIcESaIcEEES8_EEEC2Ev' type='func-type' binding='weak-binding' visibility='default-visibility' is-defined='yes'/>
    <elf-symbol name='_ZN9__gnu_cxx13new_allocatorISt13_Rb_tree_nodeISt4pairIKNSt7__cxx1112basic_stringIcSt11char_traitsIcESaIcEEES8_EEED1Ev' type='func-type' binding='weak-binding' visibility='default-visibility' is-defined='yes'/>
    <elf-symbol name='_ZN9__gnu_cxx13new_allocatorISt13_Rb_tree_nodeISt4pairIKNSt7__cxx1112basic_stringIcSt11char_traitsIcESaIcEEES8_EEED2Ev' type='func-type' binding='weak-binding' visibility='default-visibility' alias='_ZN9__gnu_cxx13new_allocatorISt13_Rb_tree_nodeISt4pairIKNSt7__cxx1112basic_stringIcSt11char_traitsIcESaIcEEES8_EEED1Ev' is-defined='yes'/>
    <elf-symbol name='_ZN9__gnu_cxx13new_allocatorIdE10deallocateEPdm' type='func-type' binding='weak-binding' visibility='default-visibility' is-defined='yes'/>
    <elf-symbol name='_ZN9__gnu_cxx13new_allocatorIdE8allocateEmPKv' type='func-type' binding='weak-binding' visibility='default-visibility' is-defined='yes'/>
    <elf-symbol name='_ZN9__gnu_cxx13new_allocatorIdEC1ERKS1_' type='func-type' binding='weak-binding' visibility='default-visibility' is-defined='yes'/>
    <elf-symbol name='_ZN9__gnu_cxx13new_allocatorIdEC2ERKS1_' type='func-type' binding='weak-binding' visibility='default-visibility' alias='_ZN9__gnu_cxx13new_allocatorIdEC1ERKS1_' is-defined='yes'/>
    <elf-symbol name='_ZN9__gnu_cxx13new_allocatorIdED1Ev' type='func-type' binding='weak-binding' visibility='default-visibility' alias='_ZN9__gnu_cxx13new_allocatorIdED2Ev' is-defined='yes'/>
    <elf-symbol name='_ZN9__gnu_cxx13new_allocatorIdED2Ev' type='func-type' binding='weak-binding' visibility='default-visibility' is-defined='yes'/>
    <elf-symbol name='_ZN9__gnu_cxx14__alloc_traitsISaIN10prometheus12ClientMetric5LabelEES3_E17_S_select_on_copyERKS4_' type='func-type' binding='weak-binding' visibility='default-visibility' is-defined='yes'/>
    <elf-symbol name='_ZN9__gnu_cxx14__alloc_traitsISaIN10prometheus12ClientMetric6BucketEES3_E17_S_select_on_copyERKS4_' type='func-type' binding='weak-binding' visibility='default-visibility' is-defined='yes'/>
    <elf-symbol name='_ZN9__gnu_cxx14__alloc_traitsISaIN10prometheus12ClientMetric8QuantileEES3_E17_S_select_on_copyERKS4_' type='func-type' binding='weak-binding' visibility='default-visibility' is-defined='yes'/>
    <elf-symbol name='_ZN9__gnu_cxx14__alloc_traitsISaIN10prometheus12ClientMetricEES2_E17_S_select_on_copyERKS3_' type='func-type' binding='weak-binding' visibility='default-visibility' is-defined='yes'/>
    <elf-symbol name='_ZN9__gnu_cxx14__alloc_traitsISaIN10prometheus6detail13CKMSQuantiles4ItemEES4_E17_S_select_on_copyERKS5_' type='func-type' binding='weak-binding' visibility='default-visibility' is-defined='yes'/>
    <elf-symbol name='_ZN9__gnu_cxx14__alloc_traitsISaIN10prometheus6detail13CKMSQuantiles8QuantileEES4_E17_S_select_on_copyERKS5_' type='func-type' binding='weak-binding' visibility='default-visibility' is-defined='yes'/>
    <elf-symbol name='_ZN9__gnu_cxx14__alloc_traitsISaISt13_Rb_tree_nodeISt4pairIKNSt7__cxx1112basic_stringIcSt11char_traitsIcESaIcEEES8_EEESB_E15_S_always_equalEv' type='func-type' binding='weak-binding' visibility='default-visibility' is-defined='yes'/>
    <elf-symbol name='_ZN9__gnu_cxx14__alloc_traitsISaISt13_Rb_tree_nodeISt4pairIKNSt7__cxx1112basic_stringIcSt11char_traitsIcESaIcEEES8_EEESB_E17_S_select_on_copyERKSC_' type='func-type' binding='weak-binding' visibility='default-visibility' is-defined='yes'/>
    <elf-symbol name='_ZN9__gnu_cxx14__alloc_traitsISaISt13_Rb_tree_nodeISt4pairIKNSt7__cxx1112basic_stringIcSt11char_traitsIcESaIcEEES8_EEESB_E27_S_propagate_on_copy_assignEv' type='func-type' binding='weak-binding' visibility='default-visibility' is-defined='yes'/>
    <elf-symbol name='_ZN9__gnu_cxx14__alloc_traitsISaIdEdE17_S_select_on_copyERKS1_' type='func-type' binding='weak-binding' visibility='default-visibility' is-defined='yes'/>
    <elf-symbol name='_ZN9__gnu_cxx17__normal_iteratorIPKN10prometheus12ClientMetric5LabelESt6vectorIS3_SaIS3_EEEC1ERKS5_' type='func-type' binding='weak-binding' visibility='default-visibility' alias='_ZN9__gnu_cxx17__normal_iteratorIPKN10prometheus12ClientMetric5LabelESt6vectorIS3_SaIS3_EEEC2ERKS5_' is-defined='yes'/>
    <elf-symbol name='_ZN9__gnu_cxx17__normal_iteratorIPKN10prometheus12ClientMetric5LabelESt6vectorIS3_SaIS3_EEEC2ERKS5_' type='func-type' binding='weak-binding' visibility='default-visibility' is-defined='yes'/>
    <elf-symbol name='_ZN9__gnu_cxx17__normal_iteratorIPKN10prometheus12ClientMetric5LabelESt6vectorIS3_SaIS3_EEEppEv' type='func-type' binding='weak-binding' visibility='default-visibility' is-defined='yes'/>
    <elf-symbol name='_ZN9__gnu_cxx17__normal_iteratorIPKN10prometheus12ClientMetric6BucketESt6vectorIS3_SaIS3_EEEC1ERKS5_' type='func-type' binding='weak-binding' visibility='default-visibility' is-defined='yes'/>
    <elf-symbol name='_ZN9__gnu_cxx17__normal_iteratorIPKN10prometheus12ClientMetric6BucketESt6vectorIS3_SaIS3_EEEC2ERKS5_' type='func-type' binding='weak-binding' visibility='default-visibility' alias='_ZN9__gnu_cxx17__normal_iteratorIPKN10prometheus12ClientMetric6BucketESt6vectorIS3_SaIS3_EEEC1ERKS5_' is-defined='yes'/>
    <elf-symbol name='_ZN9__gnu_cxx17__normal_iteratorIPKN10prometheus12ClientMetric6BucketESt6vectorIS3_SaIS3_EEEppEv' type='func-type' binding='weak-binding' visibility='default-visibility' is-defined='yes'/>
    <elf-symbol name='_ZN9__gnu_cxx17__normal_iteratorIPKN10prometheus12ClientMetric8QuantileESt6vectorIS3_SaIS3_EEEC1ERKS5_' type='func-type' binding='weak-binding' visibility='default-visibility' is-defined='yes'/>
    <elf-symbol name='_ZN9__gnu_cxx17__normal_iteratorIPKN10prometheus12ClientMetric8QuantileESt6vectorIS3_SaIS3_EEEC2ERKS5_' type='func-type' binding='weak-binding' visibility='default-visibility' alias='_ZN9__gnu_cxx17__normal_iteratorIPKN10prometheus12ClientMetric8QuantileESt6vectorIS3_SaIS3_EEEC1ERKS5_' is-defined='yes'/>
    <elf-symbol name='_ZN9__gnu_cxx17__normal_iteratorIPKN10prometheus12ClientMetric8QuantileESt6vectorIS3_SaIS3_EEEppEv' type='func-type' binding='weak-binding' visibility='default-visibility' is-defined='yes'/>
    <elf-symbol name='_ZN9__gnu_cxx17__normal_iteratorIPKN10prometheus12ClientMetricESt6vectorIS2_SaIS2_EEEC1ERKS4_' type='func-type' binding='weak-binding' visibility='default-visibility' alias='_ZN9__gnu_cxx17__normal_iteratorIPKN10prometheus12ClientMetricESt6vectorIS2_SaIS2_EEEC2ERKS4_' is-defined='yes'/>
    <elf-symbol name='_ZN9__gnu_cxx17__normal_iteratorIPKN10prometheus12ClientMetricESt6vectorIS2_SaIS2_EEEC2ERKS4_' type='func-type' binding='weak-binding' visibility='default-visibility' is-defined='yes'/>
    <elf-symbol name='_ZN9__gnu_cxx17__normal_iteratorIPKN10prometheus12ClientMetricESt6vectorIS2_SaIS2_EEEppEv' type='func-type' binding='weak-binding' visibility='default-visibility' is-defined='yes'/>
    <elf-symbol name='_ZN9__gnu_cxx17__normal_iteratorIPKN10prometheus12MetricFamilyESt6vectorIS2_SaIS2_EEEppEv' type='func-type' binding='weak-binding' visibility='default-visibility' is-defined='yes'/>
    <elf-symbol name='_ZN9__gnu_cxx17__normal_iteratorIPKN10prometheus6detail13CKMSQuantiles4ItemESt6vectorIS4_SaIS4_EEEC1ERKS6_' type='func-type' binding='weak-binding' visibility='default-visibility' alias='_ZN9__gnu_cxx17__normal_iteratorIPKN10prometheus6detail13CKMSQuantiles4ItemESt6vectorIS4_SaIS4_EEEC2ERKS6_' is-defined='yes'/>
    <elf-symbol name='_ZN9__gnu_cxx17__normal_iteratorIPKN10prometheus6detail13CKMSQuantiles4ItemESt6vectorIS4_SaIS4_EEEC1IPS4_EERKNS0_IT_NS_11__enable_ifIXsrSt10__are_sameISD_SC_E7__valueES9_E6__typeEEE' type='func-type' binding='weak-binding' visibility='default-visibility' alias='_ZN9__gnu_cxx17__normal_iteratorIPKN10prometheus6detail13CKMSQuantiles4ItemESt6vectorIS4_SaIS4_EEEC2IPS4_EERKNS0_IT_NS_11__enable_ifIXsrSt10__are_sameISD_SC_E7__valueES9_E6__typeEEE' is-defined='yes'/>
    <elf-symbol name='_ZN9__gnu_cxx17__normal_iteratorIPKN10prometheus6detail13CKMSQuantiles4ItemESt6vectorIS4_SaIS4_EEEC2ERKS6_' type='func-type' binding='weak-binding' visibility='default-visibility' is-defined='yes'/>
    <elf-symbol name='_ZN9__gnu_cxx17__normal_iteratorIPKN10prometheus6detail13CKMSQuantiles4ItemESt6vectorIS4_SaIS4_EEEC2IPS4_EERKNS0_IT_NS_11__enable_ifIXsrSt10__are_sameISD_SC_E7__valueES9_E6__typeEEE' type='func-type' binding='weak-binding' visibility='default-visibility' is-defined='yes'/>
    <elf-symbol name='_ZN9__gnu_cxx17__normal_iteratorIPKN10prometheus6detail13CKMSQuantiles4ItemESt6vectorIS4_SaIS4_EEEppEv' type='func-type' binding='weak-binding' visibility='default-visibility' is-defined='yes'/>
    <elf-symbol name='_ZN9__gnu_cxx17__normal_iteratorIPKN10prometheus6detail13CKMSQuantiles8QuantileESt6vectorIS4_SaIS4_EEEC1ERKS6_' type='func-type' binding='weak-binding' visibility='default-visibility' is-defined='yes'/>
    <elf-symbol name='_ZN9__gnu_cxx17__normal_iteratorIPKN10prometheus6detail13CKMSQuantiles8QuantileESt6vectorIS4_SaIS4_EEEC2ERKS6_' type='func-type' binding='weak-binding' visibility='default-visibility' alias='_ZN9__gnu_cxx17__normal_iteratorIPKN10prometheus6detail13CKMSQuantiles8QuantileESt6vectorIS4_SaIS4_EEEC1ERKS6_' is-defined='yes'/>
    <elf-symbol name='_ZN9__gnu_cxx17__normal_iteratorIPKN10prometheus6detail13CKMSQuantiles8QuantileESt6vectorIS4_SaIS4_EEEppEv' type='func-type' binding='weak-binding' visibility='default-visibility' is-defined='yes'/>
    <elf-symbol name='_ZN9__gnu_cxx17__normal_iteratorIPKcNSt7__cxx1112basic_stringIcSt11char_traitsIcESaIcEEEEppEv' type='func-type' binding='weak-binding' visibility='default-visibility' is-defined='yes'/>
    <elf-symbol name='_ZN9__gnu_cxx17__normal_iteratorIPKdSt6vectorIdSaIdEEEC1ERKS2_' type='func-type' binding='weak-binding' visibility='default-visibility' alias='_ZN9__gnu_cxx17__normal_iteratorIPKdSt6vectorIdSaIdEEEC2ERKS2_' is-defined='yes'/>
    <elf-symbol name='_ZN9__gnu_cxx17__normal_iteratorIPKdSt6vectorIdSaIdEEEC2ERKS2_' type='func-type' binding='weak-binding' visibility='default-visibility' is-defined='yes'/>
    <elf-symbol name='_ZN9__gnu_cxx17__normal_iteratorIPKdSt6vectorIdSaIdEEEppEv' type='func-type' binding='weak-binding' visibility='default-visibility' is-defined='yes'/>
    <elf-symbol name='_ZN9__gnu_cxx17__normal_iteratorIPN10prometheus12ClientMetric5LabelESt6vectorIS3_SaIS3_EEEC1ERKS4_' type='func-type' binding='weak-binding' visibility='default-visibility' is-defined='yes'/>
    <elf-symbol name='_ZN9__gnu_cxx17__normal_iteratorIPN10prometheus12ClientMetric5LabelESt6vectorIS3_SaIS3_EEEC2ERKS4_' type='func-type' binding='weak-binding' visibility='default-visibility' alias='_ZN9__gnu_cxx17__normal_iteratorIPN10prometheus12ClientMetric5LabelESt6vectorIS3_SaIS3_EEEC1ERKS4_' is-defined='yes'/>
    <elf-symbol name='_ZN9__gnu_cxx17__normal_iteratorIPN10prometheus12ClientMetric6BucketESt6vectorIS3_SaIS3_EEEC1ERKS4_' type='func-type' binding='weak-binding' visibility='default-visibility' alias='_ZN9__gnu_cxx17__normal_iteratorIPN10prometheus12ClientMetric6BucketESt6vectorIS3_SaIS3_EEEC2ERKS4_' is-defined='yes'/>
    <elf-symbol name='_ZN9__gnu_cxx17__normal_iteratorIPN10prometheus12ClientMetric6BucketESt6vectorIS3_SaIS3_EEEC2ERKS4_' type='func-type' binding='weak-binding' visibility='default-visibility' is-defined='yes'/>
    <elf-symbol name='_ZN9__gnu_cxx17__normal_iteratorIPN10prometheus12ClientMetric8QuantileESt6vectorIS3_SaIS3_EEEC1ERKS4_' type='func-type' binding='weak-binding' visibility='default-visibility' is-defined='yes'/>
    <elf-symbol name='_ZN9__gnu_cxx17__normal_iteratorIPN10prometheus12ClientMetric8QuantileESt6vectorIS3_SaIS3_EEEC2ERKS4_' type='func-type' binding='weak-binding' visibility='default-visibility' alias='_ZN9__gnu_cxx17__normal_iteratorIPN10prometheus12ClientMetric8QuantileESt6vectorIS3_SaIS3_EEEC1ERKS4_' is-defined='yes'/>
    <elf-symbol name='_ZN9__gnu_cxx17__normal_iteratorIPN10prometheus12ClientMetricESt6vectorIS2_SaIS2_EEEC1ERKS3_' type='func-type' binding='weak-binding' visibility='default-visibility' is-defined='yes'/>
    <elf-symbol name='_ZN9__gnu_cxx17__normal_iteratorIPN10prometheus12ClientMetricESt6vectorIS2_SaIS2_EEEC2ERKS3_' type='func-type' binding='weak-binding' visibility='default-visibility' alias='_ZN9__gnu_cxx17__normal_iteratorIPN10prometheus12ClientMetricESt6vectorIS2_SaIS2_EEEC1ERKS3_' is-defined='yes'/>
    <elf-symbol name='_ZN9__gnu_cxx17__normal_iteratorIPN10prometheus6detail13CKMSQuantiles4ItemESt6vectorIS4_SaIS4_EEEC1ERKS5_' type='func-type' binding='weak-binding' visibility='default-visibility' alias='_ZN9__gnu_cxx17__normal_iteratorIPN10prometheus6detail13CKMSQuantiles4ItemESt6vectorIS4_SaIS4_EEEC2ERKS5_' is-defined='yes'/>
    <elf-symbol name='_ZN9__gnu_cxx17__normal_iteratorIPN10prometheus6detail13CKMSQuantiles4ItemESt6vectorIS4_SaIS4_EEEC2ERKS5_' type='func-type' binding='weak-binding' visibility='default-visibility' is-defined='yes'/>
    <elf-symbol name='_ZN9__gnu_cxx17__normal_iteratorIPN10prometheus6detail13CKMSQuantiles4ItemESt6vectorIS4_SaIS4_EEEppEi' type='func-type' binding='weak-binding' visibility='default-visibility' is-defined='yes'/>
    <elf-symbol name='_ZN9__gnu_cxx17__normal_iteratorIPN10prometheus6detail13CKMSQuantilesESt6vectorIS3_SaIS3_EEEC1ERKS4_' type='func-type' binding='weak-binding' visibility='default-visibility' alias='_ZN9__gnu_cxx17__normal_iteratorIPN10prometheus6detail13CKMSQuantilesESt6vectorIS3_SaIS3_EEEC2ERKS4_' is-defined='yes'/>
    <elf-symbol name='_ZN9__gnu_cxx17__normal_iteratorIPN10prometheus6detail13CKMSQuantilesESt6vectorIS3_SaIS3_EEEC2ERKS4_' type='func-type' binding='weak-binding' visibility='default-visibility' is-defined='yes'/>
    <elf-symbol name='_ZN9__gnu_cxx17__normal_iteratorIPN10prometheus6detail13CKMSQuantilesESt6vectorIS3_SaIS3_EEEppEv' type='func-type' binding='weak-binding' visibility='default-visibility' is-defined='yes'/>
    <elf-symbol name='_ZN9__gnu_cxxeqIPKN10prometheus12ClientMetric5LabelESt6vectorIS3_SaIS3_EEEEbRKNS_17__normal_iteratorIT_T0_EESE_' type='func-type' binding='weak-binding' visibility='default-visibility' is-defined='yes'/>
    <elf-symbol name='_ZN9__gnu_cxxeqIPKN10prometheus6detail13CKMSQuantiles4ItemESt6vectorIS4_SaIS4_EEEEbRKNS_17__normal_iteratorIT_T0_EESF_' type='func-type' binding='weak-binding' visibility='default-visibility' is-defined='yes'/>
    <elf-symbol name='_ZN9__gnu_cxxeqIPKcNSt7__cxx1112basic_stringIcSt11char_traitsIcESaIcEEEEEbRKNS_17__normal_iteratorIT_T0_EESE_' type='func-type' binding='weak-binding' visibility='default-visibility' is-defined='yes'/>
    <elf-symbol name='_ZN9__gnu_cxxeqIPKdSt6vectorIdSaIdEEEEbRKNS_17__normal_iteratorIT_T0_EESB_' type='func-type' binding='weak-binding' visibility='default-visibility' is-defined='yes'/>
    <elf-symbol name='_ZN9__gnu_cxxmiIPKN10prometheus6detail13CKMSQuantiles4ItemESt6vectorIS4_SaIS4_EEEENS_17__normal_iteratorIT_T0_E15difference_typeERKSD_SG_' type='func-type' binding='weak-binding' visibility='default-visibility' is-defined='yes'/>
    <elf-symbol name='_ZN9__gnu_cxxmiIPKcNSt7__cxx1112basic_stringIcSt11char_traitsIcESaIcEEEEENS_17__normal_iteratorIT_T0_E15difference_typeERKSC_SF_' type='func-type' binding='weak-binding' visibility='default-visibility' is-defined='yes'/>
    <elf-symbol name='_ZN9__gnu_cxxmiIPKdSt6vectorIdSaIdEEEENS_17__normal_iteratorIT_T0_E15difference_typeERKS9_SC_' type='func-type' binding='weak-binding' visibility='default-visibility' is-defined='yes'/>
    <elf-symbol name='_ZN9__gnu_cxxmiIPN10prometheus12ClientMetric5LabelESt6vectorIS3_SaIS3_EEEENS_17__normal_iteratorIT_T0_E15difference_typeERKSB_SE_' type='func-type' binding='weak-binding' visibility='default-visibility' is-defined='yes'/>
    <elf-symbol name='_ZN9__gnu_cxxmiIPN10prometheus12ClientMetric6BucketESt6vectorIS3_SaIS3_EEEENS_17__normal_iteratorIT_T0_E15difference_typeERKSB_SE_' type='func-type' binding='weak-binding' visibility='default-visibility' is-defined='yes'/>
    <elf-symbol name='_ZN9__gnu_cxxmiIPN10prometheus12ClientMetric8QuantileESt6vectorIS3_SaIS3_EEEENS_17__normal_iteratorIT_T0_E15difference_typeERKSB_SE_' type='func-type' binding='weak-binding' visibility='default-visibility' is-defined='yes'/>
    <elf-symbol name='_ZN9__gnu_cxxmiIPN10prometheus12ClientMetricESt6vectorIS2_SaIS2_EEEENS_17__normal_iteratorIT_T0_E15difference_typeERKSA_SD_' type='func-type' binding='weak-binding' visibility='default-visibility' is-defined='yes'/>
    <elf-symbol name='_ZN9__gnu_cxxmiIPN10prometheus6detail13CKMSQuantiles4ItemESt6vectorIS4_SaIS4_EEEENS_17__normal_iteratorIT_T0_E15difference_typeERKSC_SF_' type='func-type' binding='weak-binding' visibility='default-visibility' is-defined='yes'/>
    <elf-symbol name='_ZN9__gnu_cxxneIPKN10prometheus12ClientMetric5LabelESt6vectorIS3_SaIS3_EEEEbRKNS_17__normal_iteratorIT_T0_EESE_' type='func-type' binding='weak-binding' visibility='default-visibility' is-defined='yes'/>
    <elf-symbol name='_ZN9__gnu_cxxneIPKN10prometheus12ClientMetric6BucketESt6vectorIS3_SaIS3_EEEEbRKNS_17__normal_iteratorIT_T0_EESE_' type='func-type' binding='weak-binding' visibility='default-visibility' is-defined='yes'/>
    <elf-symbol name='_ZN9__gnu_cxxneIPKN10prometheus12ClientMetric8QuantileESt6vectorIS3_SaIS3_EEEEbRKNS_17__normal_iteratorIT_T0_EESE_' type='func-type' binding='weak-binding' visibility='default-visibility' is-defined='yes'/>
    <elf-symbol name='_ZN9__gnu_cxxneIPKN10prometheus12ClientMetricESt6vectorIS2_SaIS2_EEEEbRKNS_17__normal_iteratorIT_T0_EESD_' type='func-type' binding='weak-binding' visibility='default-visibility' is-defined='yes'/>
    <elf-symbol name='_ZN9__gnu_cxxneIPKN10prometheus12MetricFamilyESt6vectorIS2_SaIS2_EEEEbRKNS_17__normal_iteratorIT_T0_EESD_' type='func-type' binding='weak-binding' visibility='default-visibility' is-defined='yes'/>
    <elf-symbol name='_ZN9__gnu_cxxneIPKN10prometheus6detail13CKMSQuantiles4ItemESt6vectorIS4_SaIS4_EEEEbRKNS_17__normal_iteratorIT_T0_EESF_' type='func-type' binding='weak-binding' visibility='default-visibility' is-defined='yes'/>
    <elf-symbol name='_ZN9__gnu_cxxneIPKN10prometheus6detail13CKMSQuantiles8QuantileESt6vectorIS4_SaIS4_EEEEbRKNS_17__normal_iteratorIT_T0_EESF_' type='func-type' binding='weak-binding' visibility='default-visibility' is-defined='yes'/>
    <elf-symbol name='_ZN9__gnu_cxxneIPKcNSt7__cxx1112basic_stringIcSt11char_traitsIcESaIcEEEEEbRKNS_17__normal_iteratorIT_T0_EESE_' type='func-type' binding='weak-binding' visibility='default-visibility' is-defined='yes'/>
    <elf-symbol name='_ZN9__gnu_cxxneIPKdSt6vectorIdSaIdEEEEbRKNS_17__normal_iteratorIT_T0_EESB_' type='func-type' binding='weak-binding' visibility='default-visibility' is-defined='yes'/>
    <elf-symbol name='_ZN9__gnu_cxxneIPN10prometheus6detail13CKMSQuantiles4ItemESt6vectorIS4_SaIS4_EEEEbRKNS_17__normal_iteratorIT_T0_EESE_' type='func-type' binding='weak-binding' visibility='default-visibility' is-defined='yes'/>
    <elf-symbol name='_ZN9__gnu_cxxneIPN10prometheus6detail13CKMSQuantilesESt6vectorIS3_SaIS3_EEEEbRKNS_17__normal_iteratorIT_T0_EESD_' type='func-type' binding='weak-binding' visibility='default-visibility' is-defined='yes'/>
    <elf-symbol name='_ZNK10prometheus10Serializer9SerializeB5cxx11ERKSt6vectorINS_12MetricFamilyESaIS2_EE' type='func-type' binding='global-binding' visibility='default-visibility' is-defined='yes'/>
    <elf-symbol name='_ZNK10prometheus14TextSerializer9SerializeERSoRKSt6vectorINS_12MetricFamilyESaIS3_EE' type='func-type' binding='global-binding' visibility='default-visibility' is-defined='yes'/>
    <elf-symbol name='_ZNK10prometheus5Gauge5ValueEv' type='func-type' binding='global-binding' visibility='default-visibility' is-defined='yes'/>
    <elf-symbol name='_ZNK10prometheus5Gauge7CollectEv' type='func-type' binding='global-binding' visibility='default-visibility' is-defined='yes'/>
    <elf-symbol name='_ZNK10prometheus6FamilyINS_5GaugeEE13CollectMetricEmPS1_' type='func-type' binding='weak-binding' visibility='default-visibility' is-defined='yes'/>
    <elf-symbol name='_ZNK10prometheus6FamilyINS_5GaugeEE17GetConstantLabelsB5cxx11Ev' type='func-type' binding='weak-binding' visibility='default-visibility' is-defined='yes'/>
    <elf-symbol name='_ZNK10prometheus6FamilyINS_5GaugeEE7CollectEv' type='func-type' binding='weak-binding' visibility='default-visibility' is-defined='yes'/>
    <elf-symbol name='_ZNK10prometheus6FamilyINS_5GaugeEE7GetNameB5cxx11Ev' type='func-type' binding='weak-binding' visibility='default-visibility' is-defined='yes'/>
    <elf-symbol name='_ZNK10prometheus6FamilyINS_7CounterEE13CollectMetricEmPS1_' type='func-type' binding='weak-binding' visibility='default-visibility' is-defined='yes'/>
    <elf-symbol name='_ZNK10prometheus6FamilyINS_7CounterEE17GetConstantLabelsB5cxx11Ev' type='func-type' binding='weak-binding' visibility='default-visibility' is-defined='yes'/>
    <elf-symbol name='_ZNK10prometheus6FamilyINS_7CounterEE7CollectEv' type='func-type' binding='weak-binding' visibility='default-visibility' is-defined='yes'/>
    <elf-symbol name='_ZNK10prometheus6FamilyINS_7CounterEE7GetNameB5cxx11Ev' type='func-type' binding='weak-binding' visibility='default-visibility' is-defined='yes'/>
    <elf-symbol name='_ZNK10prometheus6FamilyINS_7SummaryEE13CollectMetricEmPS1_' type='func-type' binding='weak-binding' visibility='default-visibility' is-defined='yes'/>
    <elf-symbol name='_ZNK10prometheus6FamilyINS_7SummaryEE17GetConstantLabelsB5cxx11Ev' type='func-type' binding='weak-binding' visibility='default-visibility' is-defined='yes'/>
    <elf-symbol name='_ZNK10prometheus6FamilyINS_7SummaryEE7CollectEv' type='func-type' binding='weak-binding' visibility='default-visibility' is-defined='yes'/>
    <elf-symbol name='_ZNK10prometheus6FamilyINS_7SummaryEE7GetNameB5cxx11Ev' type='func-type' binding='weak-binding' visibility='default-visibility' is-defined='yes'/>
    <elf-symbol name='_ZNK10prometheus6FamilyINS_9HistogramEE13CollectMetricEmPS1_' type='func-type' binding='weak-binding' visibility='default-visibility' is-defined='yes'/>
    <elf-symbol name='_ZNK10prometheus6FamilyINS_9HistogramEE17GetConstantLabelsB5cxx11Ev' type='func-type' binding='weak-binding' visibility='default-visibility' is-defined='yes'/>
    <elf-symbol name='_ZNK10prometheus6FamilyINS_9HistogramEE7CollectEv' type='func-type' binding='weak-binding' visibility='default-visibility' is-defined='yes'/>
    <elf-symbol name='_ZNK10prometheus6FamilyINS_9HistogramEE7GetNameB5cxx11Ev' type='func-type' binding='weak-binding' visibility='default-visibility' is-defined='yes'/>
    <elf-symbol name='_ZNK10prometheus6detail19TimeWindowQuantiles3getEd' type='func-type' binding='global-binding' visibility='default-visibility' is-defined='yes'/>
    <elf-symbol name='_ZNK10prometheus6detail19TimeWindowQuantiles6rotateEv' type='func-type' binding='global-binding' visibility='default-visibility' is-defined='yes'/>
    <elf-symbol name='_ZNK10prometheus7Counter5ValueEv' type='func-type' binding='global-binding' visibility='default-visibility' is-defined='yes'/>
    <elf-symbol name='_ZNK10prometheus7Counter7CollectEv' type='func-type' binding='global-binding' visibility='default-visibility' is-defined='yes'/>
    <elf-symbol name='_ZNK10prometheus7Summary7CollectEv' type='func-type' binding='global-binding' visibility='default-visibility' is-defined='yes'/>
    <elf-symbol name='_ZNK10prometheus8Registry21NameExistsInOtherTypeINS_5GaugeEEEbRKNSt7__cxx1112basic_stringIcSt11char_traitsIcESaIcEEE' type='func-type' binding='global-binding' visibility='default-visibility' is-defined='yes'/>
    <elf-symbol name='_ZNK10prometheus8Registry21NameExistsInOtherTypeINS_7CounterEEEbRKNSt7__cxx1112basic_stringIcSt11char_traitsIcESaIcEEE' type='func-type' binding='global-binding' visibility='default-visibility' is-defined='yes'/>
    <elf-symbol name='_ZNK10prometheus8Registry21NameExistsInOtherTypeINS_7SummaryEEEbRKNSt7__cxx1112basic_stringIcSt11char_traitsIcESaIcEEE' type='func-type' binding='global-binding' visibility='default-visibility' is-defined='yes'/>
    <elf-symbol name='_ZNK10prometheus8Registry21NameExistsInOtherTypeINS_9HistogramEEEbRKNSt7__cxx1112basic_stringIcSt11char_traitsIcESaIcEEE' type='func-type' binding='global-binding' visibility='default-visibility' is-defined='yes'/>
    <elf-symbol name='_ZNK10prometheus8Registry7CollectEv' type='func-type' binding='global-binding' visibility='default-visibility' is-defined='yes'/>
    <elf-symbol name='_ZNK10prometheus9Histogram7CollectEv' type='func-type' binding='global-binding' visibility='default-visibility' is-defined='yes'/>
    <elf-symbol name='_ZNK9__gnu_cxx13new_allocatorIN10prometheus12ClientMetric5LabelEE8max_sizeEv' type='func-type' binding='weak-binding' visibility='default-visibility' is-defined='yes'/>
    <elf-symbol name='_ZNK9__gnu_cxx13new_allocatorIN10prometheus12ClientMetric6BucketEE8max_sizeEv' type='func-type' binding='weak-binding' visibility='default-visibility' is-defined='yes'/>
    <elf-symbol name='_ZNK9__gnu_cxx13new_allocatorIN10prometheus12ClientMetric8QuantileEE8max_sizeEv' type='func-type' binding='weak-binding' visibility='default-visibility' is-defined='yes'/>
    <elf-symbol name='_ZNK9__gnu_cxx13new_allocatorIN10prometheus12ClientMetricEE8max_sizeEv' type='func-type' binding='weak-binding' visibility='default-visibility' is-defined='yes'/>
    <elf-symbol name='_ZNK9__gnu_cxx13new_allocatorIN10prometheus12MetricFamilyEE8max_sizeEv' type='func-type' binding='weak-binding' visibility='default-visibility' is-defined='yes'/>
    <elf-symbol name='_ZNK9__gnu_cxx13new_allocatorIN10prometheus6detail13CKMSQuantiles4ItemEE8max_sizeEv' type='func-type' binding='weak-binding' visibility='default-visibility' is-defined='yes'/>
    <elf-symbol name='_ZNK9__gnu_cxx13new_allocatorIN10prometheus6detail13CKMSQuantiles8QuantileEE8max_sizeEv' type='func-type' binding='weak-binding' visibility='default-visibility' is-defined='yes'/>
    <elf-symbol name='_ZNK9__gnu_cxx13new_allocatorIN10prometheus6detail13CKMSQuantilesEE8max_sizeEv' type='func-type' binding='weak-binding' visibility='default-visibility' is-defined='yes'/>
    <elf-symbol name='_ZNK9__gnu_cxx13new_allocatorIN10prometheus7CounterEE8max_sizeEv' type='func-type' binding='weak-binding' visibility='default-visibility' is-defined='yes'/>
    <elf-symbol name='_ZNK9__gnu_cxx13new_allocatorINSt8__detail10_Hash_nodeISt4pairIKPN10prometheus5GaugeEmELb0EEEE8max_sizeEv' type='func-type' binding='weak-binding' visibility='default-visibility' is-defined='yes'/>
    <elf-symbol name='_ZNK9__gnu_cxx13new_allocatorINSt8__detail10_Hash_nodeISt4pairIKPN10prometheus7CounterEmELb0EEEE8max_sizeEv' type='func-type' binding='weak-binding' visibility='default-visibility' is-defined='yes'/>
    <elf-symbol name='_ZNK9__gnu_cxx13new_allocatorINSt8__detail10_Hash_nodeISt4pairIKPN10prometheus7SummaryEmELb0EEEE8max_sizeEv' type='func-type' binding='weak-binding' visibility='default-visibility' is-defined='yes'/>
    <elf-symbol name='_ZNK9__gnu_cxx13new_allocatorINSt8__detail10_Hash_nodeISt4pairIKPN10prometheus9HistogramEmELb0EEEE8max_sizeEv' type='func-type' binding='weak-binding' visibility='default-visibility' is-defined='yes'/>
    <elf-symbol name='_ZNK9__gnu_cxx13new_allocatorINSt8__detail10_Hash_nodeISt4pairIKmSt10unique_ptrIN10prometheus5GaugeESt14default_deleteIS7_EEELb0EEEE8max_sizeEv' type='func-type' binding='weak-binding' visibility='default-visibility' is-defined='yes'/>
    <elf-symbol name='_ZNK9__gnu_cxx13new_allocatorINSt8__detail10_Hash_nodeISt4pairIKmSt10unique_ptrIN10prometheus7CounterESt14default_deleteIS7_EEELb0EEEE8max_sizeEv' type='func-type' binding='weak-binding' visibility='default-visibility' is-defined='yes'/>
    <elf-symbol name='_ZNK9__gnu_cxx13new_allocatorINSt8__detail10_Hash_nodeISt4pairIKmSt10unique_ptrIN10prometheus7SummaryESt14default_deleteIS7_EEELb0EEEE8max_sizeEv' type='func-type' binding='weak-binding' visibility='default-visibility' is-defined='yes'/>
    <elf-symbol name='_ZNK9__gnu_cxx13new_allocatorINSt8__detail10_Hash_nodeISt4pairIKmSt10unique_ptrIN10prometheus9HistogramESt14default_deleteIS7_EEELb0EEEE8max_sizeEv' type='func-type' binding='weak-binding' visibility='default-visibility' is-defined='yes'/>
    <elf-symbol name='_ZNK9__gnu_cxx13new_allocatorINSt8__detail10_Hash_nodeISt4pairIKmSt3mapINSt7__cxx1112basic_stringIcSt11char_traitsIcESaIcEEESB_St4lessISB_ESaIS3_IKSB_SB_EEEELb0EEEE8max_sizeEv' type='func-type' binding='weak-binding' visibility='default-visibility' is-defined='yes'/>
    <elf-symbol name='_ZNK9__gnu_cxx13new_allocatorIPNSt8__detail15_Hash_node_baseEE8max_sizeEv' type='func-type' binding='weak-binding' visibility='default-visibility' is-defined='yes'/>
    <elf-symbol name='_ZNK9__gnu_cxx13new_allocatorISt13_Rb_tree_nodeISt4pairIKNSt7__cxx1112basic_stringIcSt11char_traitsIcESaIcEEES8_EEE8max_sizeEv' type='func-type' binding='weak-binding' visibility='default-visibility' is-defined='yes'/>
    <elf-symbol name='_ZNK9__gnu_cxx13new_allocatorIdE8max_sizeEv' type='func-type' binding='weak-binding' visibility='default-visibility' is-defined='yes'/>
    <elf-symbol name='_ZNK9__gnu_cxx17__normal_iteratorIPKN10prometheus12ClientMetric5LabelESt6vectorIS3_SaIS3_EEE4baseEv' type='func-type' binding='weak-binding' visibility='default-visibility' is-defined='yes'/>
    <elf-symbol name='_ZNK9__gnu_cxx17__normal_iteratorIPKN10prometheus12ClientMetric5LabelESt6vectorIS3_SaIS3_EEEdeEv' type='func-type' binding='weak-binding' visibility='default-visibility' is-defined='yes'/>
    <elf-symbol name='_ZNK9__gnu_cxx17__normal_iteratorIPKN10prometheus12ClientMetric6BucketESt6vectorIS3_SaIS3_EEE4baseEv' type='func-type' binding='weak-binding' visibility='default-visibility' is-defined='yes'/>
    <elf-symbol name='_ZNK9__gnu_cxx17__normal_iteratorIPKN10prometheus12ClientMetric6BucketESt6vectorIS3_SaIS3_EEEdeEv' type='func-type' binding='weak-binding' visibility='default-visibility' is-defined='yes'/>
    <elf-symbol name='_ZNK9__gnu_cxx17__normal_iteratorIPKN10prometheus12ClientMetric8QuantileESt6vectorIS3_SaIS3_EEE4baseEv' type='func-type' binding='weak-binding' visibility='default-visibility' is-defined='yes'/>
    <elf-symbol name='_ZNK9__gnu_cxx17__normal_iteratorIPKN10prometheus12ClientMetric8QuantileESt6vectorIS3_SaIS3_EEEdeEv' type='func-type' binding='weak-binding' visibility='default-visibility' is-defined='yes'/>
    <elf-symbol name='_ZNK9__gnu_cxx17__normal_iteratorIPKN10prometheus12ClientMetricESt6vectorIS2_SaIS2_EEE4baseEv' type='func-type' binding='weak-binding' visibility='default-visibility' is-defined='yes'/>
    <elf-symbol name='_ZNK9__gnu_cxx17__normal_iteratorIPKN10prometheus12ClientMetricESt6vectorIS2_SaIS2_EEEdeEv' type='func-type' binding='weak-binding' visibility='default-visibility' is-defined='yes'/>
    <elf-symbol name='_ZNK9__gnu_cxx17__normal_iteratorIPKN10prometheus12MetricFamilyESt6vectorIS2_SaIS2_EEEdeEv' type='func-type' binding='weak-binding' visibility='default-visibility' is-defined='yes'/>
    <elf-symbol name='_ZNK9__gnu_cxx17__normal_iteratorIPKN10prometheus6detail13CKMSQuantiles4ItemESt6vectorIS4_SaIS4_EEE4baseEv' type='func-type' binding='weak-binding' visibility='default-visibility' is-defined='yes'/>
    <elf-symbol name='_ZNK9__gnu_cxx17__normal_iteratorIPKN10prometheus6detail13CKMSQuantiles4ItemESt6vectorIS4_SaIS4_EEEdeEv' type='func-type' binding='weak-binding' visibility='default-visibility' is-defined='yes'/>
    <elf-symbol name='_ZNK9__gnu_cxx17__normal_iteratorIPKN10prometheus6detail13CKMSQuantiles8QuantileESt6vectorIS4_SaIS4_EEE4baseEv' type='func-type' binding='weak-binding' visibility='default-visibility' is-defined='yes'/>
    <elf-symbol name='_ZNK9__gnu_cxx17__normal_iteratorIPKN10prometheus6detail13CKMSQuantiles8QuantileESt6vectorIS4_SaIS4_EEEdeEv' type='func-type' binding='weak-binding' visibility='default-visibility' is-defined='yes'/>
    <elf-symbol name='_ZNK9__gnu_cxx17__normal_iteratorIPKcNSt7__cxx1112basic_stringIcSt11char_traitsIcESaIcEEEE4baseEv' type='func-type' binding='weak-binding' visibility='default-visibility' is-defined='yes'/>
    <elf-symbol name='_ZNK9__gnu_cxx17__normal_iteratorIPKcNSt7__cxx1112basic_stringIcSt11char_traitsIcESaIcEEEEdeEv' type='func-type' binding='weak-binding' visibility='default-visibility' is-defined='yes'/>
    <elf-symbol name='_ZNK9__gnu_cxx17__normal_iteratorIPKdSt6vectorIdSaIdEEE4baseEv' type='func-type' binding='weak-binding' visibility='default-visibility' is-defined='yes'/>
    <elf-symbol name='_ZNK9__gnu_cxx17__normal_iteratorIPKdSt6vectorIdSaIdEEEdeEv' type='func-type' binding='weak-binding' visibility='default-visibility' is-defined='yes'/>
    <elf-symbol name='_ZNK9__gnu_cxx17__normal_iteratorIPN10prometheus12ClientMetric5LabelESt6vectorIS3_SaIS3_EEE4baseEv' type='func-type' binding='weak-binding' visibility='default-visibility' is-defined='yes'/>
    <elf-symbol name='_ZNK9__gnu_cxx17__normal_iteratorIPN10prometheus12ClientMetric6BucketESt6vectorIS3_SaIS3_EEE4baseEv' type='func-type' binding='weak-binding' visibility='default-visibility' is-defined='yes'/>
    <elf-symbol name='_ZNK9__gnu_cxx17__normal_iteratorIPN10prometheus12ClientMetric8QuantileESt6vectorIS3_SaIS3_EEE4baseEv' type='func-type' binding='weak-binding' visibility='default-visibility' is-defined='yes'/>
    <elf-symbol name='_ZNK9__gnu_cxx17__normal_iteratorIPN10prometheus12ClientMetricESt6vectorIS2_SaIS2_EEE4baseEv' type='func-type' binding='weak-binding' visibility='default-visibility' is-defined='yes'/>
    <elf-symbol name='_ZNK9__gnu_cxx17__normal_iteratorIPN10prometheus6detail13CKMSQuantiles4ItemESt6vectorIS4_SaIS4_EEE4baseEv' type='func-type' binding='weak-binding' visibility='default-visibility' is-defined='yes'/>
    <elf-symbol name='_ZNK9__gnu_cxx17__normal_iteratorIPN10prometheus6detail13CKMSQuantiles4ItemESt6vectorIS4_SaIS4_EEEdeEv' type='func-type' binding='weak-binding' visibility='default-visibility' is-defined='yes'/>
    <elf-symbol name='_ZNK9__gnu_cxx17__normal_iteratorIPN10prometheus6detail13CKMSQuantiles4ItemESt6vectorIS4_SaIS4_EEEmiEl' type='func-type' binding='weak-binding' visibility='default-visibility' is-defined='yes'/>
    <elf-symbol name='_ZNK9__gnu_cxx17__normal_iteratorIPN10prometheus6detail13CKMSQuantiles4ItemESt6vectorIS4_SaIS4_EEEplEl' type='func-type' binding='weak-binding' visibility='default-visibility' is-defined='yes'/>
    <elf-symbol name='_ZNK9__gnu_cxx17__normal_iteratorIPN10prometheus6detail13CKMSQuantiles4ItemESt6vectorIS4_SaIS4_EEEptEv' type='func-type' binding='weak-binding' visibility='default-visibility' is-defined='yes'/>
    <elf-symbol name='_ZNK9__gnu_cxx17__normal_iteratorIPN10prometheus6detail13CKMSQuantilesESt6vectorIS3_SaIS3_EEE4baseEv' type='func-type' binding='weak-binding' visibility='default-visibility' is-defined='yes'/>
    <elf-symbol name='_ZNK9__gnu_cxx17__normal_iteratorIPN10prometheus6detail13CKMSQuantilesESt6vectorIS3_SaIS3_EEEdeEv' type='func-type' binding='weak-binding' visibility='default-visibility' is-defined='yes'/>
    <elf-symbol name='_ZNKSt10_HashtableIPN10prometheus5GaugeESt4pairIKS2_mESaIS5_ENSt8__detail10_Select1stESt8equal_toIS2_ESt4hashIS2_ENS7_18_Mod_range_hashingENS7_20_Default_ranged_hashENS7_20_Prime_rehash_policyENS7_17_Hashtable_traitsILb0ELb0ELb1EEEE12_M_find_nodeEmRS4_m' type='func-type' binding='weak-binding' visibility='default-visibility' is-defined='yes'/>
    <elf-symbol name='_ZNKSt10_HashtableIPN10prometheus5GaugeESt4pairIKS2_mESaIS5_ENSt8__detail10_Select1stESt8equal_toIS2_ESt4hashIS2_ENS7_18_Mod_range_hashingENS7_20_Default_ranged_hashENS7_20_Prime_rehash_policyENS7_17_Hashtable_traitsILb0ELb0ELb1EEEE15_M_bucket_beginEm' type='func-type' binding='weak-binding' visibility='default-visibility' is-defined='yes'/>
    <elf-symbol name='_ZNKSt10_HashtableIPN10prometheus5GaugeESt4pairIKS2_mESaIS5_ENSt8__detail10_Select1stESt8equal_toIS2_ESt4hashIS2_ENS7_18_Mod_range_hashingENS7_20_Default_ranged_hashENS7_20_Prime_rehash_policyENS7_17_Hashtable_traitsILb0ELb0ELb1EEEE15_M_bucket_indexEPNS7_10_Hash_nodeIS5_Lb0EEE' type='func-type' binding='weak-binding' visibility='default-visibility' is-defined='yes'/>
    <elf-symbol name='_ZNKSt10_HashtableIPN10prometheus5GaugeESt4pairIKS2_mESaIS5_ENSt8__detail10_Select1stESt8equal_toIS2_ESt4hashIS2_ENS7_18_Mod_range_hashingENS7_20_Default_ranged_hashENS7_20_Prime_rehash_policyENS7_17_Hashtable_traitsILb0ELb0ELb1EEEE15_M_bucket_indexERS4_m' type='func-type' binding='weak-binding' visibility='default-visibility' is-defined='yes'/>
    <elf-symbol name='_ZNKSt10_HashtableIPN10prometheus5GaugeESt4pairIKS2_mESaIS5_ENSt8__detail10_Select1stESt8equal_toIS2_ESt4hashIS2_ENS7_18_Mod_range_hashingENS7_20_Default_ranged_hashENS7_20_Prime_rehash_policyENS7_17_Hashtable_traitsILb0ELb0ELb1EEEE19_M_find_before_nodeEmRS4_m' type='func-type' binding='weak-binding' visibility='default-visibility' is-defined='yes'/>
    <elf-symbol name='_ZNKSt10_HashtableIPN10prometheus5GaugeESt4pairIKS2_mESaIS5_ENSt8__detail10_Select1stESt8equal_toIS2_ESt4hashIS2_ENS7_18_Mod_range_hashingENS7_20_Default_ranged_hashENS7_20_Prime_rehash_policyENS7_17_Hashtable_traitsILb0ELb0ELb1EEEE21_M_uses_single_bucketEPPNS7_15_Hash_node_baseE' type='func-type' binding='weak-binding' visibility='default-visibility' is-defined='yes'/>
    <elf-symbol name='_ZNKSt10_HashtableIPN10prometheus5GaugeESt4pairIKS2_mESaIS5_ENSt8__detail10_Select1stESt8equal_toIS2_ESt4hashIS2_ENS7_18_Mod_range_hashingENS7_20_Default_ranged_hashENS7_20_Prime_rehash_policyENS7_17_Hashtable_traitsILb0ELb0ELb1EEEE5countERS4_' type='func-type' binding='weak-binding' visibility='default-visibility' is-defined='yes'/>
    <elf-symbol name='_ZNKSt10_HashtableIPN10prometheus5GaugeESt4pairIKS2_mESaIS5_ENSt8__detail10_Select1stESt8equal_toIS2_ESt4hashIS2_ENS7_18_Mod_range_hashingENS7_20_Default_ranged_hashENS7_20_Prime_rehash_policyENS7_17_Hashtable_traitsILb0ELb0ELb1EEEE8_M_beginEv' type='func-type' binding='weak-binding' visibility='default-visibility' is-defined='yes'/>
    <elf-symbol name='_ZNKSt10_HashtableIPN10prometheus7CounterESt4pairIKS2_mESaIS5_ENSt8__detail10_Select1stESt8equal_toIS2_ESt4hashIS2_ENS7_18_Mod_range_hashingENS7_20_Default_ranged_hashENS7_20_Prime_rehash_policyENS7_17_Hashtable_traitsILb0ELb0ELb1EEEE12_M_find_nodeEmRS4_m' type='func-type' binding='weak-binding' visibility='default-visibility' is-defined='yes'/>
    <elf-symbol name='_ZNKSt10_HashtableIPN10prometheus7CounterESt4pairIKS2_mESaIS5_ENSt8__detail10_Select1stESt8equal_toIS2_ESt4hashIS2_ENS7_18_Mod_range_hashingENS7_20_Default_ranged_hashENS7_20_Prime_rehash_policyENS7_17_Hashtable_traitsILb0ELb0ELb1EEEE15_M_bucket_beginEm' type='func-type' binding='weak-binding' visibility='default-visibility' is-defined='yes'/>
    <elf-symbol name='_ZNKSt10_HashtableIPN10prometheus7CounterESt4pairIKS2_mESaIS5_ENSt8__detail10_Select1stESt8equal_toIS2_ESt4hashIS2_ENS7_18_Mod_range_hashingENS7_20_Default_ranged_hashENS7_20_Prime_rehash_policyENS7_17_Hashtable_traitsILb0ELb0ELb1EEEE15_M_bucket_indexEPNS7_10_Hash_nodeIS5_Lb0EEE' type='func-type' binding='weak-binding' visibility='default-visibility' is-defined='yes'/>
    <elf-symbol name='_ZNKSt10_HashtableIPN10prometheus7CounterESt4pairIKS2_mESaIS5_ENSt8__detail10_Select1stESt8equal_toIS2_ESt4hashIS2_ENS7_18_Mod_range_hashingENS7_20_Default_ranged_hashENS7_20_Prime_rehash_policyENS7_17_Hashtable_traitsILb0ELb0ELb1EEEE15_M_bucket_indexERS4_m' type='func-type' binding='weak-binding' visibility='default-visibility' is-defined='yes'/>
    <elf-symbol name='_ZNKSt10_HashtableIPN10prometheus7CounterESt4pairIKS2_mESaIS5_ENSt8__detail10_Select1stESt8equal_toIS2_ESt4hashIS2_ENS7_18_Mod_range_hashingENS7_20_Default_ranged_hashENS7_20_Prime_rehash_policyENS7_17_Hashtable_traitsILb0ELb0ELb1EEEE19_M_find_before_nodeEmRS4_m' type='func-type' binding='weak-binding' visibility='default-visibility' is-defined='yes'/>
    <elf-symbol name='_ZNKSt10_HashtableIPN10prometheus7CounterESt4pairIKS2_mESaIS5_ENSt8__detail10_Select1stESt8equal_toIS2_ESt4hashIS2_ENS7_18_Mod_range_hashingENS7_20_Default_ranged_hashENS7_20_Prime_rehash_policyENS7_17_Hashtable_traitsILb0ELb0ELb1EEEE21_M_uses_single_bucketEPPNS7_15_Hash_node_baseE' type='func-type' binding='weak-binding' visibility='default-visibility' is-defined='yes'/>
    <elf-symbol name='_ZNKSt10_HashtableIPN10prometheus7CounterESt4pairIKS2_mESaIS5_ENSt8__detail10_Select1stESt8equal_toIS2_ESt4hashIS2_ENS7_18_Mod_range_hashingENS7_20_Default_ranged_hashENS7_20_Prime_rehash_policyENS7_17_Hashtable_traitsILb0ELb0ELb1EEEE5countERS4_' type='func-type' binding='weak-binding' visibility='default-visibility' is-defined='yes'/>
    <elf-symbol name='_ZNKSt10_HashtableIPN10prometheus7CounterESt4pairIKS2_mESaIS5_ENSt8__detail10_Select1stESt8equal_toIS2_ESt4hashIS2_ENS7_18_Mod_range_hashingENS7_20_Default_ranged_hashENS7_20_Prime_rehash_policyENS7_17_Hashtable_traitsILb0ELb0ELb1EEEE8_M_beginEv' type='func-type' binding='weak-binding' visibility='default-visibility' is-defined='yes'/>
    <elf-symbol name='_ZNKSt10_HashtableIPN10prometheus7SummaryESt4pairIKS2_mESaIS5_ENSt8__detail10_Select1stESt8equal_toIS2_ESt4hashIS2_ENS7_18_Mod_range_hashingENS7_20_Default_ranged_hashENS7_20_Prime_rehash_policyENS7_17_Hashtable_traitsILb0ELb0ELb1EEEE12_M_find_nodeEmRS4_m' type='func-type' binding='weak-binding' visibility='default-visibility' is-defined='yes'/>
    <elf-symbol name='_ZNKSt10_HashtableIPN10prometheus7SummaryESt4pairIKS2_mESaIS5_ENSt8__detail10_Select1stESt8equal_toIS2_ESt4hashIS2_ENS7_18_Mod_range_hashingENS7_20_Default_ranged_hashENS7_20_Prime_rehash_policyENS7_17_Hashtable_traitsILb0ELb0ELb1EEEE15_M_bucket_beginEm' type='func-type' binding='weak-binding' visibility='default-visibility' is-defined='yes'/>
    <elf-symbol name='_ZNKSt10_HashtableIPN10prometheus7SummaryESt4pairIKS2_mESaIS5_ENSt8__detail10_Select1stESt8equal_toIS2_ESt4hashIS2_ENS7_18_Mod_range_hashingENS7_20_Default_ranged_hashENS7_20_Prime_rehash_policyENS7_17_Hashtable_traitsILb0ELb0ELb1EEEE15_M_bucket_indexEPNS7_10_Hash_nodeIS5_Lb0EEE' type='func-type' binding='weak-binding' visibility='default-visibility' is-defined='yes'/>
    <elf-symbol name='_ZNKSt10_HashtableIPN10prometheus7SummaryESt4pairIKS2_mESaIS5_ENSt8__detail10_Select1stESt8equal_toIS2_ESt4hashIS2_ENS7_18_Mod_range_hashingENS7_20_Default_ranged_hashENS7_20_Prime_rehash_policyENS7_17_Hashtable_traitsILb0ELb0ELb1EEEE15_M_bucket_indexERS4_m' type='func-type' binding='weak-binding' visibility='default-visibility' is-defined='yes'/>
    <elf-symbol name='_ZNKSt10_HashtableIPN10prometheus7SummaryESt4pairIKS2_mESaIS5_ENSt8__detail10_Select1stESt8equal_toIS2_ESt4hashIS2_ENS7_18_Mod_range_hashingENS7_20_Default_ranged_hashENS7_20_Prime_rehash_policyENS7_17_Hashtable_traitsILb0ELb0ELb1EEEE19_M_find_before_nodeEmRS4_m' type='func-type' binding='weak-binding' visibility='default-visibility' is-defined='yes'/>
    <elf-symbol name='_ZNKSt10_HashtableIPN10prometheus7SummaryESt4pairIKS2_mESaIS5_ENSt8__detail10_Select1stESt8equal_toIS2_ESt4hashIS2_ENS7_18_Mod_range_hashingENS7_20_Default_ranged_hashENS7_20_Prime_rehash_policyENS7_17_Hashtable_traitsILb0ELb0ELb1EEEE21_M_uses_single_bucketEPPNS7_15_Hash_node_baseE' type='func-type' binding='weak-binding' visibility='default-visibility' is-defined='yes'/>
    <elf-symbol name='_ZNKSt10_HashtableIPN10prometheus7SummaryESt4pairIKS2_mESaIS5_ENSt8__detail10_Select1stESt8equal_toIS2_ESt4hashIS2_ENS7_18_Mod_range_hashingENS7_20_Default_ranged_hashENS7_20_Prime_rehash_policyENS7_17_Hashtable_traitsILb0ELb0ELb1EEEE5countERS4_' type='func-type' binding='weak-binding' visibility='default-visibility' is-defined='yes'/>
    <elf-symbol name='_ZNKSt10_HashtableIPN10prometheus7SummaryESt4pairIKS2_mESaIS5_ENSt8__detail10_Select1stESt8equal_toIS2_ESt4hashIS2_ENS7_18_Mod_range_hashingENS7_20_Default_ranged_hashENS7_20_Prime_rehash_policyENS7_17_Hashtable_traitsILb0ELb0ELb1EEEE8_M_beginEv' type='func-type' binding='weak-binding' visibility='default-visibility' is-defined='yes'/>
    <elf-symbol name='_ZNKSt10_HashtableIPN10prometheus9HistogramESt4pairIKS2_mESaIS5_ENSt8__detail10_Select1stESt8equal_toIS2_ESt4hashIS2_ENS7_18_Mod_range_hashingENS7_20_Default_ranged_hashENS7_20_Prime_rehash_policyENS7_17_Hashtable_traitsILb0ELb0ELb1EEEE12_M_find_nodeEmRS4_m' type='func-type' binding='weak-binding' visibility='default-visibility' is-defined='yes'/>
    <elf-symbol name='_ZNKSt10_HashtableIPN10prometheus9HistogramESt4pairIKS2_mESaIS5_ENSt8__detail10_Select1stESt8equal_toIS2_ESt4hashIS2_ENS7_18_Mod_range_hashingENS7_20_Default_ranged_hashENS7_20_Prime_rehash_policyENS7_17_Hashtable_traitsILb0ELb0ELb1EEEE15_M_bucket_beginEm' type='func-type' binding='weak-binding' visibility='default-visibility' is-defined='yes'/>
    <elf-symbol name='_ZNKSt10_HashtableIPN10prometheus9HistogramESt4pairIKS2_mESaIS5_ENSt8__detail10_Select1stESt8equal_toIS2_ESt4hashIS2_ENS7_18_Mod_range_hashingENS7_20_Default_ranged_hashENS7_20_Prime_rehash_policyENS7_17_Hashtable_traitsILb0ELb0ELb1EEEE15_M_bucket_indexEPNS7_10_Hash_nodeIS5_Lb0EEE' type='func-type' binding='weak-binding' visibility='default-visibility' is-defined='yes'/>
    <elf-symbol name='_ZNKSt10_HashtableIPN10prometheus9HistogramESt4pairIKS2_mESaIS5_ENSt8__detail10_Select1stESt8equal_toIS2_ESt4hashIS2_ENS7_18_Mod_range_hashingENS7_20_Default_ranged_hashENS7_20_Prime_rehash_policyENS7_17_Hashtable_traitsILb0ELb0ELb1EEEE15_M_bucket_indexERS4_m' type='func-type' binding='weak-binding' visibility='default-visibility' is-defined='yes'/>
    <elf-symbol name='_ZNKSt10_HashtableIPN10prometheus9HistogramESt4pairIKS2_mESaIS5_ENSt8__detail10_Select1stESt8equal_toIS2_ESt4hashIS2_ENS7_18_Mod_range_hashingENS7_20_Default_ranged_hashENS7_20_Prime_rehash_policyENS7_17_Hashtable_traitsILb0ELb0ELb1EEEE19_M_find_before_nodeEmRS4_m' type='func-type' binding='weak-binding' visibility='default-visibility' is-defined='yes'/>
    <elf-symbol name='_ZNKSt10_HashtableIPN10prometheus9HistogramESt4pairIKS2_mESaIS5_ENSt8__detail10_Select1stESt8equal_toIS2_ESt4hashIS2_ENS7_18_Mod_range_hashingENS7_20_Default_ranged_hashENS7_20_Prime_rehash_policyENS7_17_Hashtable_traitsILb0ELb0ELb1EEEE21_M_uses_single_bucketEPPNS7_15_Hash_node_baseE' type='func-type' binding='weak-binding' visibility='default-visibility' is-defined='yes'/>
    <elf-symbol name='_ZNKSt10_HashtableIPN10prometheus9HistogramESt4pairIKS2_mESaIS5_ENSt8__detail10_Select1stESt8equal_toIS2_ESt4hashIS2_ENS7_18_Mod_range_hashingENS7_20_Default_ranged_hashENS7_20_Prime_rehash_policyENS7_17_Hashtable_traitsILb0ELb0ELb1EEEE5countERS4_' type='func-type' binding='weak-binding' visibility='default-visibility' is-defined='yes'/>
    <elf-symbol name='_ZNKSt10_HashtableIPN10prometheus9HistogramESt4pairIKS2_mESaIS5_ENSt8__detail10_Select1stESt8equal_toIS2_ESt4hashIS2_ENS7_18_Mod_range_hashingENS7_20_Default_ranged_hashENS7_20_Prime_rehash_policyENS7_17_Hashtable_traitsILb0ELb0ELb1EEEE8_M_beginEv' type='func-type' binding='weak-binding' visibility='default-visibility' is-defined='yes'/>
    <elf-symbol name='_ZNKSt10_HashtableImSt4pairIKmSt10unique_ptrIN10prometheus5GaugeESt14default_deleteIS4_EEESaIS8_ENSt8__detail10_Select1stESt8equal_toImESt4hashImENSA_18_Mod_range_hashingENSA_20_Default_ranged_hashENSA_20_Prime_rehash_policyENSA_17_Hashtable_traitsILb0ELb0ELb1EEEE12_M_find_nodeEmRS1_m' type='func-type' binding='weak-binding' visibility='default-visibility' is-defined='yes'/>
    <elf-symbol name='_ZNKSt10_HashtableImSt4pairIKmSt10unique_ptrIN10prometheus5GaugeESt14default_deleteIS4_EEESaIS8_ENSt8__detail10_Select1stESt8equal_toImESt4hashImENSA_18_Mod_range_hashingENSA_20_Default_ranged_hashENSA_20_Prime_rehash_policyENSA_17_Hashtable_traitsILb0ELb0ELb1EEEE15_M_bucket_indexEPNSA_10_Hash_nodeIS8_Lb0EEE' type='func-type' binding='weak-binding' visibility='default-visibility' is-defined='yes'/>
    <elf-symbol name='_ZNKSt10_HashtableImSt4pairIKmSt10unique_ptrIN10prometheus5GaugeESt14default_deleteIS4_EEESaIS8_ENSt8__detail10_Select1stESt8equal_toImESt4hashImENSA_18_Mod_range_hashingENSA_20_Default_ranged_hashENSA_20_Prime_rehash_policyENSA_17_Hashtable_traitsILb0ELb0ELb1EEEE15_M_bucket_indexERS1_m' type='func-type' binding='weak-binding' visibility='default-visibility' is-defined='yes'/>
    <elf-symbol name='_ZNKSt10_HashtableImSt4pairIKmSt10unique_ptrIN10prometheus5GaugeESt14default_deleteIS4_EEESaIS8_ENSt8__detail10_Select1stESt8equal_toImESt4hashImENSA_18_Mod_range_hashingENSA_20_Default_ranged_hashENSA_20_Prime_rehash_policyENSA_17_Hashtable_traitsILb0ELb0ELb1EEEE19_M_find_before_nodeEmRS1_m' type='func-type' binding='weak-binding' visibility='default-visibility' is-defined='yes'/>
    <elf-symbol name='_ZNKSt10_HashtableImSt4pairIKmSt10unique_ptrIN10prometheus5GaugeESt14default_deleteIS4_EEESaIS8_ENSt8__detail10_Select1stESt8equal_toImESt4hashImENSA_18_Mod_range_hashingENSA_20_Default_ranged_hashENSA_20_Prime_rehash_policyENSA_17_Hashtable_traitsILb0ELb0ELb1EEEE21_M_uses_single_bucketEPPNSA_15_Hash_node_baseE' type='func-type' binding='weak-binding' visibility='default-visibility' is-defined='yes'/>
    <elf-symbol name='_ZNKSt10_HashtableImSt4pairIKmSt10unique_ptrIN10prometheus5GaugeESt14default_deleteIS4_EEESaIS8_ENSt8__detail10_Select1stESt8equal_toImESt4hashImENSA_18_Mod_range_hashingENSA_20_Default_ranged_hashENSA_20_Prime_rehash_policyENSA_17_Hashtable_traitsILb0ELb0ELb1EEEE3endEv' type='func-type' binding='weak-binding' visibility='default-visibility' is-defined='yes'/>
    <elf-symbol name='_ZNKSt10_HashtableImSt4pairIKmSt10unique_ptrIN10prometheus5GaugeESt14default_deleteIS4_EEESaIS8_ENSt8__detail10_Select1stESt8equal_toImESt4hashImENSA_18_Mod_range_hashingENSA_20_Default_ranged_hashENSA_20_Prime_rehash_policyENSA_17_Hashtable_traitsILb0ELb0ELb1EEEE4sizeEv' type='func-type' binding='weak-binding' visibility='default-visibility' is-defined='yes'/>
    <elf-symbol name='_ZNKSt10_HashtableImSt4pairIKmSt10unique_ptrIN10prometheus5GaugeESt14default_deleteIS4_EEESaIS8_ENSt8__detail10_Select1stESt8equal_toImESt4hashImENSA_18_Mod_range_hashingENSA_20_Default_ranged_hashENSA_20_Prime_rehash_policyENSA_17_Hashtable_traitsILb0ELb0ELb1EEEE5beginEv' type='func-type' binding='weak-binding' visibility='default-visibility' is-defined='yes'/>
    <elf-symbol name='_ZNKSt10_HashtableImSt4pairIKmSt10unique_ptrIN10prometheus5GaugeESt14default_deleteIS4_EEESaIS8_ENSt8__detail10_Select1stESt8equal_toImESt4hashImENSA_18_Mod_range_hashingENSA_20_Default_ranged_hashENSA_20_Prime_rehash_policyENSA_17_Hashtable_traitsILb0ELb0ELb1EEEE5emptyEv' type='func-type' binding='weak-binding' visibility='default-visibility' is-defined='yes'/>
    <elf-symbol name='_ZNKSt10_HashtableImSt4pairIKmSt10unique_ptrIN10prometheus5GaugeESt14default_deleteIS4_EEESaIS8_ENSt8__detail10_Select1stESt8equal_toImESt4hashImENSA_18_Mod_range_hashingENSA_20_Default_ranged_hashENSA_20_Prime_rehash_policyENSA_17_Hashtable_traitsILb0ELb0ELb1EEEE8_M_beginEv' type='func-type' binding='weak-binding' visibility='default-visibility' is-defined='yes'/>
    <elf-symbol name='_ZNKSt10_HashtableImSt4pairIKmSt10unique_ptrIN10prometheus7CounterESt14default_deleteIS4_EEESaIS8_ENSt8__detail10_Select1stESt8equal_toImESt4hashImENSA_18_Mod_range_hashingENSA_20_Default_ranged_hashENSA_20_Prime_rehash_policyENSA_17_Hashtable_traitsILb0ELb0ELb1EEEE12_M_find_nodeEmRS1_m' type='func-type' binding='weak-binding' visibility='default-visibility' is-defined='yes'/>
    <elf-symbol name='_ZNKSt10_HashtableImSt4pairIKmSt10unique_ptrIN10prometheus7CounterESt14default_deleteIS4_EEESaIS8_ENSt8__detail10_Select1stESt8equal_toImESt4hashImENSA_18_Mod_range_hashingENSA_20_Default_ranged_hashENSA_20_Prime_rehash_policyENSA_17_Hashtable_traitsILb0ELb0ELb1EEEE15_M_bucket_indexEPNSA_10_Hash_nodeIS8_Lb0EEE' type='func-type' binding='weak-binding' visibility='default-visibility' is-defined='yes'/>
    <elf-symbol name='_ZNKSt10_HashtableImSt4pairIKmSt10unique_ptrIN10prometheus7CounterESt14default_deleteIS4_EEESaIS8_ENSt8__detail10_Select1stESt8equal_toImESt4hashImENSA_18_Mod_range_hashingENSA_20_Default_ranged_hashENSA_20_Prime_rehash_policyENSA_17_Hashtable_traitsILb0ELb0ELb1EEEE15_M_bucket_indexERS1_m' type='func-type' binding='weak-binding' visibility='default-visibility' is-defined='yes'/>
    <elf-symbol name='_ZNKSt10_HashtableImSt4pairIKmSt10unique_ptrIN10prometheus7CounterESt14default_deleteIS4_EEESaIS8_ENSt8__detail10_Select1stESt8equal_toImESt4hashImENSA_18_Mod_range_hashingENSA_20_Default_ranged_hashENSA_20_Prime_rehash_policyENSA_17_Hashtable_traitsILb0ELb0ELb1EEEE19_M_find_before_nodeEmRS1_m' type='func-type' binding='weak-binding' visibility='default-visibility' is-defined='yes'/>
    <elf-symbol name='_ZNKSt10_HashtableImSt4pairIKmSt10unique_ptrIN10prometheus7CounterESt14default_deleteIS4_EEESaIS8_ENSt8__detail10_Select1stESt8equal_toImESt4hashImENSA_18_Mod_range_hashingENSA_20_Default_ranged_hashENSA_20_Prime_rehash_policyENSA_17_Hashtable_traitsILb0ELb0ELb1EEEE21_M_uses_single_bucketEPPNSA_15_Hash_node_baseE' type='func-type' binding='weak-binding' visibility='default-visibility' is-defined='yes'/>
    <elf-symbol name='_ZNKSt10_HashtableImSt4pairIKmSt10unique_ptrIN10prometheus7CounterESt14default_deleteIS4_EEESaIS8_ENSt8__detail10_Select1stESt8equal_toImESt4hashImENSA_18_Mod_range_hashingENSA_20_Default_ranged_hashENSA_20_Prime_rehash_policyENSA_17_Hashtable_traitsILb0ELb0ELb1EEEE3endEv' type='func-type' binding='weak-binding' visibility='default-visibility' is-defined='yes'/>
    <elf-symbol name='_ZNKSt10_HashtableImSt4pairIKmSt10unique_ptrIN10prometheus7CounterESt14default_deleteIS4_EEESaIS8_ENSt8__detail10_Select1stESt8equal_toImESt4hashImENSA_18_Mod_range_hashingENSA_20_Default_ranged_hashENSA_20_Prime_rehash_policyENSA_17_Hashtable_traitsILb0ELb0ELb1EEEE4sizeEv' type='func-type' binding='weak-binding' visibility='default-visibility' is-defined='yes'/>
    <elf-symbol name='_ZNKSt10_HashtableImSt4pairIKmSt10unique_ptrIN10prometheus7CounterESt14default_deleteIS4_EEESaIS8_ENSt8__detail10_Select1stESt8equal_toImESt4hashImENSA_18_Mod_range_hashingENSA_20_Default_ranged_hashENSA_20_Prime_rehash_policyENSA_17_Hashtable_traitsILb0ELb0ELb1EEEE5beginEv' type='func-type' binding='weak-binding' visibility='default-visibility' is-defined='yes'/>
    <elf-symbol name='_ZNKSt10_HashtableImSt4pairIKmSt10unique_ptrIN10prometheus7CounterESt14default_deleteIS4_EEESaIS8_ENSt8__detail10_Select1stESt8equal_toImESt4hashImENSA_18_Mod_range_hashingENSA_20_Default_ranged_hashENSA_20_Prime_rehash_policyENSA_17_Hashtable_traitsILb0ELb0ELb1EEEE5emptyEv' type='func-type' binding='weak-binding' visibility='default-visibility' is-defined='yes'/>
    <elf-symbol name='_ZNKSt10_HashtableImSt4pairIKmSt10unique_ptrIN10prometheus7CounterESt14default_deleteIS4_EEESaIS8_ENSt8__detail10_Select1stESt8equal_toImESt4hashImENSA_18_Mod_range_hashingENSA_20_Default_ranged_hashENSA_20_Prime_rehash_policyENSA_17_Hashtable_traitsILb0ELb0ELb1EEEE8_M_beginEv' type='func-type' binding='weak-binding' visibility='default-visibility' is-defined='yes'/>
    <elf-symbol name='_ZNKSt10_HashtableImSt4pairIKmSt10unique_ptrIN10prometheus7SummaryESt14default_deleteIS4_EEESaIS8_ENSt8__detail10_Select1stESt8equal_toImESt4hashImENSA_18_Mod_range_hashingENSA_20_Default_ranged_hashENSA_20_Prime_rehash_policyENSA_17_Hashtable_traitsILb0ELb0ELb1EEEE12_M_find_nodeEmRS1_m' type='func-type' binding='weak-binding' visibility='default-visibility' is-defined='yes'/>
    <elf-symbol name='_ZNKSt10_HashtableImSt4pairIKmSt10unique_ptrIN10prometheus7SummaryESt14default_deleteIS4_EEESaIS8_ENSt8__detail10_Select1stESt8equal_toImESt4hashImENSA_18_Mod_range_hashingENSA_20_Default_ranged_hashENSA_20_Prime_rehash_policyENSA_17_Hashtable_traitsILb0ELb0ELb1EEEE15_M_bucket_indexEPNSA_10_Hash_nodeIS8_Lb0EEE' type='func-type' binding='weak-binding' visibility='default-visibility' is-defined='yes'/>
    <elf-symbol name='_ZNKSt10_HashtableImSt4pairIKmSt10unique_ptrIN10prometheus7SummaryESt14default_deleteIS4_EEESaIS8_ENSt8__detail10_Select1stESt8equal_toImESt4hashImENSA_18_Mod_range_hashingENSA_20_Default_ranged_hashENSA_20_Prime_rehash_policyENSA_17_Hashtable_traitsILb0ELb0ELb1EEEE15_M_bucket_indexERS1_m' type='func-type' binding='weak-binding' visibility='default-visibility' is-defined='yes'/>
    <elf-symbol name='_ZNKSt10_HashtableImSt4pairIKmSt10unique_ptrIN10prometheus7SummaryESt14default_deleteIS4_EEESaIS8_ENSt8__detail10_Select1stESt8equal_toImESt4hashImENSA_18_Mod_range_hashingENSA_20_Default_ranged_hashENSA_20_Prime_rehash_policyENSA_17_Hashtable_traitsILb0ELb0ELb1EEEE19_M_find_before_nodeEmRS1_m' type='func-type' binding='weak-binding' visibility='default-visibility' is-defined='yes'/>
    <elf-symbol name='_ZNKSt10_HashtableImSt4pairIKmSt10unique_ptrIN10prometheus7SummaryESt14default_deleteIS4_EEESaIS8_ENSt8__detail10_Select1stESt8equal_toImESt4hashImENSA_18_Mod_range_hashingENSA_20_Default_ranged_hashENSA_20_Prime_rehash_policyENSA_17_Hashtable_traitsILb0ELb0ELb1EEEE21_M_uses_single_bucketEPPNSA_15_Hash_node_baseE' type='func-type' binding='weak-binding' visibility='default-visibility' is-defined='yes'/>
    <elf-symbol name='_ZNKSt10_HashtableImSt4pairIKmSt10unique_ptrIN10prometheus7SummaryESt14default_deleteIS4_EEESaIS8_ENSt8__detail10_Select1stESt8equal_toImESt4hashImENSA_18_Mod_range_hashingENSA_20_Default_ranged_hashENSA_20_Prime_rehash_policyENSA_17_Hashtable_traitsILb0ELb0ELb1EEEE3endEv' type='func-type' binding='weak-binding' visibility='default-visibility' is-defined='yes'/>
    <elf-symbol name='_ZNKSt10_HashtableImSt4pairIKmSt10unique_ptrIN10prometheus7SummaryESt14default_deleteIS4_EEESaIS8_ENSt8__detail10_Select1stESt8equal_toImESt4hashImENSA_18_Mod_range_hashingENSA_20_Default_ranged_hashENSA_20_Prime_rehash_policyENSA_17_Hashtable_traitsILb0ELb0ELb1EEEE4sizeEv' type='func-type' binding='weak-binding' visibility='default-visibility' is-defined='yes'/>
    <elf-symbol name='_ZNKSt10_HashtableImSt4pairIKmSt10unique_ptrIN10prometheus7SummaryESt14default_deleteIS4_EEESaIS8_ENSt8__detail10_Select1stESt8equal_toImESt4hashImENSA_18_Mod_range_hashingENSA_20_Default_ranged_hashENSA_20_Prime_rehash_policyENSA_17_Hashtable_traitsILb0ELb0ELb1EEEE5beginEv' type='func-type' binding='weak-binding' visibility='default-visibility' is-defined='yes'/>
    <elf-symbol name='_ZNKSt10_HashtableImSt4pairIKmSt10unique_ptrIN10prometheus7SummaryESt14default_deleteIS4_EEESaIS8_ENSt8__detail10_Select1stESt8equal_toImESt4hashImENSA_18_Mod_range_hashingENSA_20_Default_ranged_hashENSA_20_Prime_rehash_policyENSA_17_Hashtable_traitsILb0ELb0ELb1EEEE5emptyEv' type='func-type' binding='weak-binding' visibility='default-visibility' is-defined='yes'/>
    <elf-symbol name='_ZNKSt10_HashtableImSt4pairIKmSt10unique_ptrIN10prometheus7SummaryESt14default_deleteIS4_EEESaIS8_ENSt8__detail10_Select1stESt8equal_toImESt4hashImENSA_18_Mod_range_hashingENSA_20_Default_ranged_hashENSA_20_Prime_rehash_policyENSA_17_Hashtable_traitsILb0ELb0ELb1EEEE8_M_beginEv' type='func-type' binding='weak-binding' visibility='default-visibility' is-defined='yes'/>
    <elf-symbol name='_ZNKSt10_HashtableImSt4pairIKmSt10unique_ptrIN10prometheus9HistogramESt14default_deleteIS4_EEESaIS8_ENSt8__detail10_Select1stESt8equal_toImESt4hashImENSA_18_Mod_range_hashingENSA_20_Default_ranged_hashENSA_20_Prime_rehash_policyENSA_17_Hashtable_traitsILb0ELb0ELb1EEEE12_M_find_nodeEmRS1_m' type='func-type' binding='weak-binding' visibility='default-visibility' is-defined='yes'/>
    <elf-symbol name='_ZNKSt10_HashtableImSt4pairIKmSt10unique_ptrIN10prometheus9HistogramESt14default_deleteIS4_EEESaIS8_ENSt8__detail10_Select1stESt8equal_toImESt4hashImENSA_18_Mod_range_hashingENSA_20_Default_ranged_hashENSA_20_Prime_rehash_policyENSA_17_Hashtable_traitsILb0ELb0ELb1EEEE15_M_bucket_indexEPNSA_10_Hash_nodeIS8_Lb0EEE' type='func-type' binding='weak-binding' visibility='default-visibility' is-defined='yes'/>
    <elf-symbol name='_ZNKSt10_HashtableImSt4pairIKmSt10unique_ptrIN10prometheus9HistogramESt14default_deleteIS4_EEESaIS8_ENSt8__detail10_Select1stESt8equal_toImESt4hashImENSA_18_Mod_range_hashingENSA_20_Default_ranged_hashENSA_20_Prime_rehash_policyENSA_17_Hashtable_traitsILb0ELb0ELb1EEEE15_M_bucket_indexERS1_m' type='func-type' binding='weak-binding' visibility='default-visibility' is-defined='yes'/>
    <elf-symbol name='_ZNKSt10_HashtableImSt4pairIKmSt10unique_ptrIN10prometheus9HistogramESt14default_deleteIS4_EEESaIS8_ENSt8__detail10_Select1stESt8equal_toImESt4hashImENSA_18_Mod_range_hashingENSA_20_Default_ranged_hashENSA_20_Prime_rehash_policyENSA_17_Hashtable_traitsILb0ELb0ELb1EEEE19_M_find_before_nodeEmRS1_m' type='func-type' binding='weak-binding' visibility='default-visibility' is-defined='yes'/>
    <elf-symbol name='_ZNKSt10_HashtableImSt4pairIKmSt10unique_ptrIN10prometheus9HistogramESt14default_deleteIS4_EEESaIS8_ENSt8__detail10_Select1stESt8equal_toImESt4hashImENSA_18_Mod_range_hashingENSA_20_Default_ranged_hashENSA_20_Prime_rehash_policyENSA_17_Hashtable_traitsILb0ELb0ELb1EEEE21_M_uses_single_bucketEPPNSA_15_Hash_node_baseE' type='func-type' binding='weak-binding' visibility='default-visibility' is-defined='yes'/>
    <elf-symbol name='_ZNKSt10_HashtableImSt4pairIKmSt10unique_ptrIN10prometheus9HistogramESt14default_deleteIS4_EEESaIS8_ENSt8__detail10_Select1stESt8equal_toImESt4hashImENSA_18_Mod_range_hashingENSA_20_Default_ranged_hashENSA_20_Prime_rehash_policyENSA_17_Hashtable_traitsILb0ELb0ELb1EEEE3endEv' type='func-type' binding='weak-binding' visibility='default-visibility' is-defined='yes'/>
    <elf-symbol name='_ZNKSt10_HashtableImSt4pairIKmSt10unique_ptrIN10prometheus9HistogramESt14default_deleteIS4_EEESaIS8_ENSt8__detail10_Select1stESt8equal_toImESt4hashImENSA_18_Mod_range_hashingENSA_20_Default_ranged_hashENSA_20_Prime_rehash_policyENSA_17_Hashtable_traitsILb0ELb0ELb1EEEE4sizeEv' type='func-type' binding='weak-binding' visibility='default-visibility' is-defined='yes'/>
    <elf-symbol name='_ZNKSt10_HashtableImSt4pairIKmSt10unique_ptrIN10prometheus9HistogramESt14default_deleteIS4_EEESaIS8_ENSt8__detail10_Select1stESt8equal_toImESt4hashImENSA_18_Mod_range_hashingENSA_20_Default_ranged_hashENSA_20_Prime_rehash_policyENSA_17_Hashtable_traitsILb0ELb0ELb1EEEE5beginEv' type='func-type' binding='weak-binding' visibility='default-visibility' is-defined='yes'/>
    <elf-symbol name='_ZNKSt10_HashtableImSt4pairIKmSt10unique_ptrIN10prometheus9HistogramESt14default_deleteIS4_EEESaIS8_ENSt8__detail10_Select1stESt8equal_toImESt4hashImENSA_18_Mod_range_hashingENSA_20_Default_ranged_hashENSA_20_Prime_rehash_policyENSA_17_Hashtable_traitsILb0ELb0ELb1EEEE5emptyEv' type='func-type' binding='weak-binding' visibility='default-visibility' is-defined='yes'/>
    <elf-symbol name='_ZNKSt10_HashtableImSt4pairIKmSt10unique_ptrIN10prometheus9HistogramESt14default_deleteIS4_EEESaIS8_ENSt8__detail10_Select1stESt8equal_toImESt4hashImENSA_18_Mod_range_hashingENSA_20_Default_ranged_hashENSA_20_Prime_rehash_policyENSA_17_Hashtable_traitsILb0ELb0ELb1EEEE8_M_beginEv' type='func-type' binding='weak-binding' visibility='default-visibility' is-defined='yes'/>
    <elf-symbol name='_ZNKSt10_HashtableImSt4pairIKmSt3mapINSt7__cxx1112basic_stringIcSt11char_traitsIcESaIcEEES8_St4lessIS8_ESaIS0_IKS8_S8_EEEESaISF_ENSt8__detail10_Select1stESt8equal_toImESt4hashImENSH_18_Mod_range_hashingENSH_20_Default_ranged_hashENSH_20_Prime_rehash_policyENSH_17_Hashtable_traitsILb0ELb0ELb1EEEE12_M_find_nodeEmRS1_m' type='func-type' binding='weak-binding' visibility='default-visibility' is-defined='yes'/>
    <elf-symbol name='_ZNKSt10_HashtableImSt4pairIKmSt3mapINSt7__cxx1112basic_stringIcSt11char_traitsIcESaIcEEES8_St4lessIS8_ESaIS0_IKS8_S8_EEEESaISF_ENSt8__detail10_Select1stESt8equal_toImESt4hashImENSH_18_Mod_range_hashingENSH_20_Default_ranged_hashENSH_20_Prime_rehash_policyENSH_17_Hashtable_traitsILb0ELb0ELb1EEEE15_M_bucket_indexEPNSH_10_Hash_nodeISF_Lb0EEE' type='func-type' binding='weak-binding' visibility='default-visibility' is-defined='yes'/>
    <elf-symbol name='_ZNKSt10_HashtableImSt4pairIKmSt3mapINSt7__cxx1112basic_stringIcSt11char_traitsIcESaIcEEES8_St4lessIS8_ESaIS0_IKS8_S8_EEEESaISF_ENSt8__detail10_Select1stESt8equal_toImESt4hashImENSH_18_Mod_range_hashingENSH_20_Default_ranged_hashENSH_20_Prime_rehash_policyENSH_17_Hashtable_traitsILb0ELb0ELb1EEEE15_M_bucket_indexERS1_m' type='func-type' binding='weak-binding' visibility='default-visibility' is-defined='yes'/>
    <elf-symbol name='_ZNKSt10_HashtableImSt4pairIKmSt3mapINSt7__cxx1112basic_stringIcSt11char_traitsIcESaIcEEES8_St4lessIS8_ESaIS0_IKS8_S8_EEEESaISF_ENSt8__detail10_Select1stESt8equal_toImESt4hashImENSH_18_Mod_range_hashingENSH_20_Default_ranged_hashENSH_20_Prime_rehash_policyENSH_17_Hashtable_traitsILb0ELb0ELb1EEEE19_M_find_before_nodeEmRS1_m' type='func-type' binding='weak-binding' visibility='default-visibility' is-defined='yes'/>
    <elf-symbol name='_ZNKSt10_HashtableImSt4pairIKmSt3mapINSt7__cxx1112basic_stringIcSt11char_traitsIcESaIcEEES8_St4lessIS8_ESaIS0_IKS8_S8_EEEESaISF_ENSt8__detail10_Select1stESt8equal_toImESt4hashImENSH_18_Mod_range_hashingENSH_20_Default_ranged_hashENSH_20_Prime_rehash_policyENSH_17_Hashtable_traitsILb0ELb0ELb1EEEE21_M_uses_single_bucketEPPNSH_15_Hash_node_baseE' type='func-type' binding='weak-binding' visibility='default-visibility' is-defined='yes'/>
    <elf-symbol name='_ZNKSt10_HashtableImSt4pairIKmSt3mapINSt7__cxx1112basic_stringIcSt11char_traitsIcESaIcEEES8_St4lessIS8_ESaIS0_IKS8_S8_EEEESaISF_ENSt8__detail10_Select1stESt8equal_toImESt4hashImENSH_18_Mod_range_hashingENSH_20_Default_ranged_hashENSH_20_Prime_rehash_policyENSH_17_Hashtable_traitsILb0ELb0ELb1EEEE8_M_beginEv' type='func-type' binding='weak-binding' visibility='default-visibility' is-defined='yes'/>
    <elf-symbol name='_ZNKSt10_Select1stISt4pairIKNSt7__cxx1112basic_stringIcSt11char_traitsIcESaIcEEES6_EEclERKS8_' type='func-type' binding='weak-binding' visibility='default-visibility' is-defined='yes'/>
    <elf-symbol name='_ZNKSt10unique_ptrIN10prometheus5GaugeESt14default_deleteIS1_EE3getEv' type='func-type' binding='weak-binding' visibility='default-visibility' is-defined='yes'/>
    <elf-symbol name='_ZNKSt10unique_ptrIN10prometheus5GaugeESt14default_deleteIS1_EEdeEv' type='func-type' binding='weak-binding' visibility='default-visibility' is-defined='yes'/>
    <elf-symbol name='_ZNKSt10unique_ptrIN10prometheus7CounterESt14default_deleteIS1_EE3getEv' type='func-type' binding='weak-binding' visibility='default-visibility' is-defined='yes'/>
    <elf-symbol name='_ZNKSt10unique_ptrIN10prometheus7CounterESt14default_deleteIS1_EEdeEv' type='func-type' binding='weak-binding' visibility='default-visibility' is-defined='yes'/>
    <elf-symbol name='_ZNKSt10unique_ptrIN10prometheus7SummaryESt14default_deleteIS1_EE3getEv' type='func-type' binding='weak-binding' visibility='default-visibility' is-defined='yes'/>
    <elf-symbol name='_ZNKSt10unique_ptrIN10prometheus7SummaryESt14default_deleteIS1_EEdeEv' type='func-type' binding='weak-binding' visibility='default-visibility' is-defined='yes'/>
    <elf-symbol name='_ZNKSt10unique_ptrIN10prometheus9HistogramESt14default_deleteIS1_EE3getEv' type='func-type' binding='weak-binding' visibility='default-visibility' is-defined='yes'/>
    <elf-symbol name='_ZNKSt10unique_ptrIN10prometheus9HistogramESt14default_deleteIS1_EEdeEv' type='func-type' binding='weak-binding' visibility='default-visibility' is-defined='yes'/>
    <elf-symbol name='_ZNKSt12_Vector_baseIN10prometheus12ClientMetric5LabelESaIS2_EE19_M_get_Tp_allocatorEv' type='func-type' binding='weak-binding' visibility='default-visibility' is-defined='yes'/>
    <elf-symbol name='_ZNKSt12_Vector_baseIN10prometheus12ClientMetric6BucketESaIS2_EE19_M_get_Tp_allocatorEv' type='func-type' binding='weak-binding' visibility='default-visibility' is-defined='yes'/>
    <elf-symbol name='_ZNKSt12_Vector_baseIN10prometheus12ClientMetric8QuantileESaIS2_EE19_M_get_Tp_allocatorEv' type='func-type' binding='weak-binding' visibility='default-visibility' is-defined='yes'/>
    <elf-symbol name='_ZNKSt12_Vector_baseIN10prometheus12ClientMetricESaIS1_EE13get_allocatorEv' type='func-type' binding='weak-binding' visibility='default-visibility' is-defined='yes'/>
    <elf-symbol name='_ZNKSt12_Vector_baseIN10prometheus12ClientMetricESaIS1_EE19_M_get_Tp_allocatorEv' type='func-type' binding='weak-binding' visibility='default-visibility' is-defined='yes'/>
    <elf-symbol name='_ZNKSt12_Vector_baseIN10prometheus12MetricFamilyESaIS1_EE19_M_get_Tp_allocatorEv' type='func-type' binding='weak-binding' visibility='default-visibility' is-defined='yes'/>
    <elf-symbol name='_ZNKSt12_Vector_baseIN10prometheus6detail13CKMSQuantiles4ItemESaIS3_EE19_M_get_Tp_allocatorEv' type='func-type' binding='weak-binding' visibility='default-visibility' is-defined='yes'/>
    <elf-symbol name='_ZNKSt12_Vector_baseIN10prometheus6detail13CKMSQuantiles8QuantileESaIS3_EE19_M_get_Tp_allocatorEv' type='func-type' binding='weak-binding' visibility='default-visibility' is-defined='yes'/>
    <elf-symbol name='_ZNKSt12_Vector_baseIdSaIdEE19_M_get_Tp_allocatorEv' type='func-type' binding='weak-binding' visibility='default-visibility' is-defined='yes'/>
    <elf-symbol name='_ZNKSt13_Rb_tree_nodeISt4pairIKNSt7__cxx1112basic_stringIcSt11char_traitsIcESaIcEEES6_EE9_M_valptrEv' type='func-type' binding='weak-binding' visibility='default-visibility' is-defined='yes'/>
    <elf-symbol name='_ZNKSt13move_iteratorIPN10prometheus12ClientMetric5LabelEE4baseEv' type='func-type' binding='weak-binding' visibility='default-visibility' is-defined='yes'/>
    <elf-symbol name='_ZNKSt13move_iteratorIPN10prometheus12ClientMetric5LabelEEdeEv' type='func-type' binding='weak-binding' visibility='default-visibility' is-defined='yes'/>
    <elf-symbol name='_ZNKSt13move_iteratorIPN10prometheus12ClientMetric6BucketEE4baseEv' type='func-type' binding='weak-binding' visibility='default-visibility' is-defined='yes'/>
    <elf-symbol name='_ZNKSt13move_iteratorIPN10prometheus12ClientMetric6BucketEEdeEv' type='func-type' binding='weak-binding' visibility='default-visibility' is-defined='yes'/>
    <elf-symbol name='_ZNKSt13move_iteratorIPN10prometheus12ClientMetric8QuantileEE4baseEv' type='func-type' binding='weak-binding' visibility='default-visibility' is-defined='yes'/>
    <elf-symbol name='_ZNKSt13move_iteratorIPN10prometheus12ClientMetric8QuantileEEdeEv' type='func-type' binding='weak-binding' visibility='default-visibility' is-defined='yes'/>
    <elf-symbol name='_ZNKSt13move_iteratorIPN10prometheus12ClientMetricEE4baseEv' type='func-type' binding='weak-binding' visibility='default-visibility' is-defined='yes'/>
    <elf-symbol name='_ZNKSt13move_iteratorIPN10prometheus12ClientMetricEEdeEv' type='func-type' binding='weak-binding' visibility='default-visibility' is-defined='yes'/>
    <elf-symbol name='_ZNKSt13move_iteratorIPN10prometheus12MetricFamilyEE4baseEv' type='func-type' binding='weak-binding' visibility='default-visibility' is-defined='yes'/>
    <elf-symbol name='_ZNKSt13move_iteratorIPN10prometheus12MetricFamilyEEdeEv' type='func-type' binding='weak-binding' visibility='default-visibility' is-defined='yes'/>
    <elf-symbol name='_ZNKSt13move_iteratorIPN10prometheus6detail13CKMSQuantiles4ItemEE4baseEv' type='func-type' binding='weak-binding' visibility='default-visibility' is-defined='yes'/>
    <elf-symbol name='_ZNKSt13move_iteratorIPN10prometheus6detail13CKMSQuantiles4ItemEEdeEv' type='func-type' binding='weak-binding' visibility='default-visibility' is-defined='yes'/>
    <elf-symbol name='_ZNKSt13unordered_mapIPN10prometheus5GaugeEmSt4hashIS2_ESt8equal_toIS2_ESaISt4pairIKS2_mEEE5countERS8_' type='func-type' binding='weak-binding' visibility='default-visibility' is-defined='yes'/>
    <elf-symbol name='_ZNKSt13unordered_mapIPN10prometheus7CounterEmSt4hashIS2_ESt8equal_toIS2_ESaISt4pairIKS2_mEEE5countERS8_' type='func-type' binding='weak-binding' visibility='default-visibility' is-defined='yes'/>
    <elf-symbol name='_ZNKSt13unordered_mapIPN10prometheus7SummaryEmSt4hashIS2_ESt8equal_toIS2_ESaISt4pairIKS2_mEEE5countERS8_' type='func-type' binding='weak-binding' visibility='default-visibility' is-defined='yes'/>
    <elf-symbol name='_ZNKSt13unordered_mapIPN10prometheus9HistogramEmSt4hashIS2_ESt8equal_toIS2_ESaISt4pairIKS2_mEEE5countERS8_' type='func-type' binding='weak-binding' visibility='default-visibility' is-defined='yes'/>
    <elf-symbol name='_ZNKSt13unordered_mapImSt10unique_ptrIN10prometheus5GaugeESt14default_deleteIS2_EESt4hashImESt8equal_toImESaISt4pairIKmS5_EEE3endEv' type='func-type' binding='weak-binding' visibility='default-visibility' is-defined='yes'/>
    <elf-symbol name='_ZNKSt13unordered_mapImSt10unique_ptrIN10prometheus5GaugeESt14default_deleteIS2_EESt4hashImESt8equal_toImESaISt4pairIKmS5_EEE5beginEv' type='func-type' binding='weak-binding' visibility='default-visibility' is-defined='yes'/>
    <elf-symbol name='_ZNKSt13unordered_mapImSt10unique_ptrIN10prometheus5GaugeESt14default_deleteIS2_EESt4hashImESt8equal_toImESaISt4pairIKmS5_EEE5emptyEv' type='func-type' binding='weak-binding' visibility='default-visibility' is-defined='yes'/>
    <elf-symbol name='_ZNKSt13unordered_mapImSt10unique_ptrIN10prometheus7CounterESt14default_deleteIS2_EESt4hashImESt8equal_toImESaISt4pairIKmS5_EEE3endEv' type='func-type' binding='weak-binding' visibility='default-visibility' is-defined='yes'/>
    <elf-symbol name='_ZNKSt13unordered_mapImSt10unique_ptrIN10prometheus7CounterESt14default_deleteIS2_EESt4hashImESt8equal_toImESaISt4pairIKmS5_EEE5beginEv' type='func-type' binding='weak-binding' visibility='default-visibility' is-defined='yes'/>
    <elf-symbol name='_ZNKSt13unordered_mapImSt10unique_ptrIN10prometheus7CounterESt14default_deleteIS2_EESt4hashImESt8equal_toImESaISt4pairIKmS5_EEE5emptyEv' type='func-type' binding='weak-binding' visibility='default-visibility' is-defined='yes'/>
    <elf-symbol name='_ZNKSt13unordered_mapImSt10unique_ptrIN10prometheus7SummaryESt14default_deleteIS2_EESt4hashImESt8equal_toImESaISt4pairIKmS5_EEE3endEv' type='func-type' binding='weak-binding' visibility='default-visibility' is-defined='yes'/>
    <elf-symbol name='_ZNKSt13unordered_mapImSt10unique_ptrIN10prometheus7SummaryESt14default_deleteIS2_EESt4hashImESt8equal_toImESaISt4pairIKmS5_EEE5beginEv' type='func-type' binding='weak-binding' visibility='default-visibility' is-defined='yes'/>
    <elf-symbol name='_ZNKSt13unordered_mapImSt10unique_ptrIN10prometheus7SummaryESt14default_deleteIS2_EESt4hashImESt8equal_toImESaISt4pairIKmS5_EEE5emptyEv' type='func-type' binding='weak-binding' visibility='default-visibility' is-defined='yes'/>
    <elf-symbol name='_ZNKSt13unordered_mapImSt10unique_ptrIN10prometheus9HistogramESt14default_deleteIS2_EESt4hashImESt8equal_toImESaISt4pairIKmS5_EEE3endEv' type='func-type' binding='weak-binding' visibility='default-visibility' is-defined='yes'/>
    <elf-symbol name='_ZNKSt13unordered_mapImSt10unique_ptrIN10prometheus9HistogramESt14default_deleteIS2_EESt4hashImESt8equal_toImESaISt4pairIKmS5_EEE5beginEv' type='func-type' binding='weak-binding' visibility='default-visibility' is-defined='yes'/>
    <elf-symbol name='_ZNKSt13unordered_mapImSt10unique_ptrIN10prometheus9HistogramESt14default_deleteIS2_EESt4hashImESt8equal_toImESaISt4pairIKmS5_EEE5emptyEv' type='func-type' binding='weak-binding' visibility='default-visibility' is-defined='yes'/>
    <elf-symbol name='_ZNKSt13unordered_mapImSt3mapINSt7__cxx1112basic_stringIcSt11char_traitsIcESaIcEEES6_St4lessIS6_ESaISt4pairIKS6_S6_EEESt4hashImESt8equal_toImESaIS9_IKmSD_EEE2atERSI_' type='func-type' binding='weak-binding' visibility='default-visibility' is-defined='yes'/>
    <elf-symbol name='_ZNKSt14default_deleteIN10prometheus5GaugeEEclEPS1_' type='func-type' binding='weak-binding' visibility='default-visibility' is-defined='yes'/>
    <elf-symbol name='_ZNKSt14default_deleteIN10prometheus6FamilyINS0_5GaugeEEEEclEPS3_' type='func-type' binding='weak-binding' visibility='default-visibility' is-defined='yes'/>
    <elf-symbol name='_ZNKSt14default_deleteIN10prometheus6FamilyINS0_7CounterEEEEclEPS3_' type='func-type' binding='weak-binding' visibility='default-visibility' is-defined='yes'/>
    <elf-symbol name='_ZNKSt14default_deleteIN10prometheus6FamilyINS0_7SummaryEEEEclEPS3_' type='func-type' binding='weak-binding' visibility='default-visibility' is-defined='yes'/>
    <elf-symbol name='_ZNKSt14default_deleteIN10prometheus6FamilyINS0_9HistogramEEEEclEPS3_' type='func-type' binding='weak-binding' visibility='default-visibility' is-defined='yes'/>
    <elf-symbol name='_ZNKSt14default_deleteIN10prometheus7CounterEEclEPS1_' type='func-type' binding='weak-binding' visibility='default-visibility' is-defined='yes'/>
    <elf-symbol name='_ZNKSt14default_deleteIN10prometheus7SummaryEEclEPS1_' type='func-type' binding='weak-binding' visibility='default-visibility' is-defined='yes'/>
    <elf-symbol name='_ZNKSt14default_deleteIN10prometheus9HistogramEEclEPS1_' type='func-type' binding='weak-binding' visibility='default-visibility' is-defined='yes'/>
    <elf-symbol name='_ZNKSt15__uniq_ptr_implIN10prometheus5GaugeESt14default_deleteIS1_EE6_M_ptrEv' type='func-type' binding='weak-binding' visibility='default-visibility' is-defined='yes'/>
    <elf-symbol name='_ZNKSt15__uniq_ptr_implIN10prometheus7CounterESt14default_deleteIS1_EE6_M_ptrEv' type='func-type' binding='weak-binding' visibility='default-visibility' is-defined='yes'/>
    <elf-symbol name='_ZNKSt15__uniq_ptr_implIN10prometheus7SummaryESt14default_deleteIS1_EE6_M_ptrEv' type='func-type' binding='weak-binding' visibility='default-visibility' is-defined='yes'/>
    <elf-symbol name='_ZNKSt15__uniq_ptr_implIN10prometheus9HistogramESt14default_deleteIS1_EE6_M_ptrEv' type='func-type' binding='weak-binding' visibility='default-visibility' is-defined='yes'/>
    <elf-symbol name='_ZNKSt16initializer_listIN10prometheus12MetricFamilyEE3endEv' type='func-type' binding='weak-binding' visibility='default-visibility' is-defined='yes'/>
    <elf-symbol name='_ZNKSt16initializer_listIN10prometheus12MetricFamilyEE4sizeEv' type='func-type' binding='weak-binding' visibility='default-visibility' is-defined='yes'/>
    <elf-symbol name='_ZNKSt16initializer_listIN10prometheus12MetricFamilyEE5beginEv' type='func-type' binding='weak-binding' visibility='default-visibility' is-defined='yes'/>
    <elf-symbol name='_ZNKSt17reference_wrapperIKSt6vectorIN10prometheus6detail13CKMSQuantiles8QuantileESaIS4_EEE3getEv' type='func-type' binding='weak-binding' visibility='default-visibility' is-defined='yes'/>
    <elf-symbol name='_ZNKSt23_Rb_tree_const_iteratorISt4pairIKNSt7__cxx1112basic_stringIcSt11char_traitsIcESaIcEEES6_EEdeEv' type='func-type' binding='weak-binding' visibility='default-visibility' is-defined='yes'/>
    <elf-symbol name='_ZNKSt3mapINSt7__cxx1112basic_stringIcSt11char_traitsIcESaIcEEES5_St4lessIS5_ESaISt4pairIKS5_S5_EEE3endEv' type='func-type' binding='weak-binding' visibility='default-visibility' is-defined='yes'/>
    <elf-symbol name='_ZNKSt3mapINSt7__cxx1112basic_stringIcSt11char_traitsIcESaIcEEES5_St4lessIS5_ESaISt4pairIKS5_S5_EEE4cendEv' type='func-type' binding='weak-binding' visibility='default-visibility' is-defined='yes'/>
    <elf-symbol name='_ZNKSt3mapINSt7__cxx1112basic_stringIcSt11char_traitsIcESaIcEEES5_St4lessIS5_ESaISt4pairIKS5_S5_EEE5beginEv' type='func-type' binding='weak-binding' visibility='default-visibility' is-defined='yes'/>
    <elf-symbol name='_ZNKSt3mapINSt7__cxx1112basic_stringIcSt11char_traitsIcESaIcEEES5_St4lessIS5_ESaISt4pairIKS5_S5_EEE5countERS9_' type='func-type' binding='weak-binding' visibility='default-visibility' is-defined='yes'/>
    <elf-symbol name='_ZNKSt3mapINSt7__cxx1112basic_stringIcSt11char_traitsIcESaIcEEES5_St4lessIS5_ESaISt4pairIKS5_S5_EEE6cbeginEv' type='func-type' binding='weak-binding' visibility='default-visibility' is-defined='yes'/>
    <elf-symbol name='_ZNKSt4hashIPN10prometheus5GaugeEEclES2_' type='func-type' binding='weak-binding' visibility='default-visibility' is-defined='yes'/>
    <elf-symbol name='_ZNKSt4hashIPN10prometheus7CounterEEclES2_' type='func-type' binding='weak-binding' visibility='default-visibility' is-defined='yes'/>
    <elf-symbol name='_ZNKSt4hashIPN10prometheus7SummaryEEclES2_' type='func-type' binding='weak-binding' visibility='default-visibility' is-defined='yes'/>
    <elf-symbol name='_ZNKSt4hashIPN10prometheus9HistogramEEclES2_' type='func-type' binding='weak-binding' visibility='default-visibility' is-defined='yes'/>
    <elf-symbol name='_ZNKSt4lessINSt7__cxx1112basic_stringIcSt11char_traitsIcESaIcEEEEclERKS5_S8_' type='func-type' binding='weak-binding' visibility='default-visibility' is-defined='yes'/>
    <elf-symbol name='_ZNKSt5arrayIcLm128EE4sizeEv' type='func-type' binding='weak-binding' visibility='default-visibility' is-defined='yes'/>
    <elf-symbol name='_ZNKSt5arrayIdLm500EE4sizeEv' type='func-type' binding='weak-binding' visibility='default-visibility' is-defined='yes'/>
    <elf-symbol name='_ZNKSt6atomicIdE4loadESt12memory_order' type='func-type' binding='weak-binding' visibility='default-visibility' is-defined='yes'/>
    <elf-symbol name='_ZNKSt6atomicIdEcvdEv' type='func-type' binding='weak-binding' visibility='default-visibility' is-defined='yes'/>
    <elf-symbol name='_ZNKSt6chrono10time_pointINS_3_V212steady_clockENS_8durationIlSt5ratioILl1ELl1000000000EEEEE16time_since_epochEv' type='func-type' binding='weak-binding' visibility='default-visibility' is-defined='yes'/>
    <elf-symbol name='_ZNKSt6chrono8durationIlSt5ratioILl1ELl1000000000EEE5countEv' type='func-type' binding='weak-binding' visibility='default-visibility' is-defined='yes'/>
    <elf-symbol name='_ZNKSt6chrono8durationIlSt5ratioILl1ELl1000EEE5countEv' type='func-type' binding='weak-binding' visibility='default-visibility' is-defined='yes'/>
    <elf-symbol name='_ZNKSt6vectorIN10prometheus12ClientMetric5LabelESaIS2_EE12_M_check_lenEmPKc' type='func-type' binding='weak-binding' visibility='default-visibility' is-defined='yes'/>
    <elf-symbol name='_ZNKSt6vectorIN10prometheus12ClientMetric5LabelESaIS2_EE3endEv' type='func-type' binding='weak-binding' visibility='default-visibility' is-defined='yes'/>
    <elf-symbol name='_ZNKSt6vectorIN10prometheus12ClientMetric5LabelESaIS2_EE4sizeEv' type='func-type' binding='weak-binding' visibility='default-visibility' is-defined='yes'/>
    <elf-symbol name='_ZNKSt6vectorIN10prometheus12ClientMetric5LabelESaIS2_EE5beginEv' type='func-type' binding='weak-binding' visibility='default-visibility' is-defined='yes'/>
    <elf-symbol name='_ZNKSt6vectorIN10prometheus12ClientMetric5LabelESaIS2_EE5emptyEv' type='func-type' binding='weak-binding' visibility='default-visibility' is-defined='yes'/>
    <elf-symbol name='_ZNKSt6vectorIN10prometheus12ClientMetric5LabelESaIS2_EE8max_sizeEv' type='func-type' binding='weak-binding' visibility='default-visibility' is-defined='yes'/>
    <elf-symbol name='_ZNKSt6vectorIN10prometheus12ClientMetric6BucketESaIS2_EE12_M_check_lenEmPKc' type='func-type' binding='weak-binding' visibility='default-visibility' is-defined='yes'/>
    <elf-symbol name='_ZNKSt6vectorIN10prometheus12ClientMetric6BucketESaIS2_EE3endEv' type='func-type' binding='weak-binding' visibility='default-visibility' is-defined='yes'/>
    <elf-symbol name='_ZNKSt6vectorIN10prometheus12ClientMetric6BucketESaIS2_EE4sizeEv' type='func-type' binding='weak-binding' visibility='default-visibility' is-defined='yes'/>
    <elf-symbol name='_ZNKSt6vectorIN10prometheus12ClientMetric6BucketESaIS2_EE5beginEv' type='func-type' binding='weak-binding' visibility='default-visibility' is-defined='yes'/>
    <elf-symbol name='_ZNKSt6vectorIN10prometheus12ClientMetric6BucketESaIS2_EE8max_sizeEv' type='func-type' binding='weak-binding' visibility='default-visibility' is-defined='yes'/>
    <elf-symbol name='_ZNKSt6vectorIN10prometheus12ClientMetric8QuantileESaIS2_EE12_M_check_lenEmPKc' type='func-type' binding='weak-binding' visibility='default-visibility' is-defined='yes'/>
    <elf-symbol name='_ZNKSt6vectorIN10prometheus12ClientMetric8QuantileESaIS2_EE3endEv' type='func-type' binding='weak-binding' visibility='default-visibility' is-defined='yes'/>
    <elf-symbol name='_ZNKSt6vectorIN10prometheus12ClientMetric8QuantileESaIS2_EE4sizeEv' type='func-type' binding='weak-binding' visibility='default-visibility' is-defined='yes'/>
    <elf-symbol name='_ZNKSt6vectorIN10prometheus12ClientMetric8QuantileESaIS2_EE5beginEv' type='func-type' binding='weak-binding' visibility='default-visibility' is-defined='yes'/>
    <elf-symbol name='_ZNKSt6vectorIN10prometheus12ClientMetric8QuantileESaIS2_EE8max_sizeEv' type='func-type' binding='weak-binding' visibility='default-visibility' is-defined='yes'/>
    <elf-symbol name='_ZNKSt6vectorIN10prometheus12ClientMetricESaIS1_EE12_M_check_lenEmPKc' type='func-type' binding='weak-binding' visibility='default-visibility' is-defined='yes'/>
    <elf-symbol name='_ZNKSt6vectorIN10prometheus12ClientMetricESaIS1_EE3endEv' type='func-type' binding='weak-binding' visibility='default-visibility' is-defined='yes'/>
    <elf-symbol name='_ZNKSt6vectorIN10prometheus12ClientMetricESaIS1_EE4sizeEv' type='func-type' binding='weak-binding' visibility='default-visibility' is-defined='yes'/>
    <elf-symbol name='_ZNKSt6vectorIN10prometheus12ClientMetricESaIS1_EE5beginEv' type='func-type' binding='weak-binding' visibility='default-visibility' is-defined='yes'/>
    <elf-symbol name='_ZNKSt6vectorIN10prometheus12ClientMetricESaIS1_EE8max_sizeEv' type='func-type' binding='weak-binding' visibility='default-visibility' is-defined='yes'/>
    <elf-symbol name='_ZNKSt6vectorIN10prometheus12MetricFamilyESaIS1_EE12_M_check_lenEmPKc' type='func-type' binding='weak-binding' visibility='default-visibility' is-defined='yes'/>
    <elf-symbol name='_ZNKSt6vectorIN10prometheus12MetricFamilyESaIS1_EE3endEv' type='func-type' binding='weak-binding' visibility='default-visibility' is-defined='yes'/>
    <elf-symbol name='_ZNKSt6vectorIN10prometheus12MetricFamilyESaIS1_EE4sizeEv' type='func-type' binding='weak-binding' visibility='default-visibility' is-defined='yes'/>
    <elf-symbol name='_ZNKSt6vectorIN10prometheus12MetricFamilyESaIS1_EE5beginEv' type='func-type' binding='weak-binding' visibility='default-visibility' is-defined='yes'/>
    <elf-symbol name='_ZNKSt6vectorIN10prometheus12MetricFamilyESaIS1_EE6cbeginEv' type='func-type' binding='weak-binding' visibility='default-visibility' is-defined='yes'/>
    <elf-symbol name='_ZNKSt6vectorIN10prometheus12MetricFamilyESaIS1_EE8max_sizeEv' type='func-type' binding='weak-binding' visibility='default-visibility' is-defined='yes'/>
    <elf-symbol name='_ZNKSt6vectorIN10prometheus6detail13CKMSQuantiles4ItemESaIS3_EE12_M_check_lenEmPKc' type='func-type' binding='weak-binding' visibility='default-visibility' is-defined='yes'/>
    <elf-symbol name='_ZNKSt6vectorIN10prometheus6detail13CKMSQuantiles4ItemESaIS3_EE3endEv' type='func-type' binding='weak-binding' visibility='default-visibility' is-defined='yes'/>
    <elf-symbol name='_ZNKSt6vectorIN10prometheus6detail13CKMSQuantiles4ItemESaIS3_EE4cendEv' type='func-type' binding='weak-binding' visibility='default-visibility' is-defined='yes'/>
    <elf-symbol name='_ZNKSt6vectorIN10prometheus6detail13CKMSQuantiles4ItemESaIS3_EE4sizeEv' type='func-type' binding='weak-binding' visibility='default-visibility' is-defined='yes'/>
    <elf-symbol name='_ZNKSt6vectorIN10prometheus6detail13CKMSQuantiles4ItemESaIS3_EE5beginEv' type='func-type' binding='weak-binding' visibility='default-visibility' is-defined='yes'/>
    <elf-symbol name='_ZNKSt6vectorIN10prometheus6detail13CKMSQuantiles4ItemESaIS3_EE5emptyEv' type='func-type' binding='weak-binding' visibility='default-visibility' is-defined='yes'/>
    <elf-symbol name='_ZNKSt6vectorIN10prometheus6detail13CKMSQuantiles4ItemESaIS3_EE6cbeginEv' type='func-type' binding='weak-binding' visibility='default-visibility' is-defined='yes'/>
    <elf-symbol name='_ZNKSt6vectorIN10prometheus6detail13CKMSQuantiles4ItemESaIS3_EE8max_sizeEv' type='func-type' binding='weak-binding' visibility='default-visibility' is-defined='yes'/>
    <elf-symbol name='_ZNKSt6vectorIN10prometheus6detail13CKMSQuantiles8QuantileESaIS3_EE3endEv' type='func-type' binding='weak-binding' visibility='default-visibility' is-defined='yes'/>
    <elf-symbol name='_ZNKSt6vectorIN10prometheus6detail13CKMSQuantiles8QuantileESaIS3_EE4sizeEv' type='func-type' binding='weak-binding' visibility='default-visibility' is-defined='yes'/>
    <elf-symbol name='_ZNKSt6vectorIN10prometheus6detail13CKMSQuantiles8QuantileESaIS3_EE5beginEv' type='func-type' binding='weak-binding' visibility='default-visibility' is-defined='yes'/>
    <elf-symbol name='_ZNKSt6vectorIN10prometheus6detail13CKMSQuantilesESaIS2_EE4sizeEv' type='func-type' binding='weak-binding' visibility='default-visibility' is-defined='yes'/>
    <elf-symbol name='_ZNKSt6vectorIN10prometheus7CounterESaIS1_EE4sizeEv' type='func-type' binding='weak-binding' visibility='default-visibility' is-defined='yes'/>
    <elf-symbol name='_ZNKSt6vectorIN10prometheus7CounterESaIS1_EEixEm' type='func-type' binding='weak-binding' visibility='default-visibility' is-defined='yes'/>
    <elf-symbol name='_ZNKSt6vectorIdSaIdEE3endEv' type='func-type' binding='weak-binding' visibility='default-visibility' is-defined='yes'/>
    <elf-symbol name='_ZNKSt6vectorIdSaIdEE4sizeEv' type='func-type' binding='weak-binding' visibility='default-visibility' is-defined='yes'/>
    <elf-symbol name='_ZNKSt6vectorIdSaIdEE5beginEv' type='func-type' binding='weak-binding' visibility='default-visibility' is-defined='yes'/>
    <elf-symbol name='_ZNKSt6vectorIdSaIdEEixEm' type='func-type' binding='weak-binding' visibility='default-visibility' is-defined='yes'/>
    <elf-symbol name='_ZNKSt8_Rb_treeINSt7__cxx1112basic_stringIcSt11char_traitsIcESaIcEEESt4pairIKS5_S5_ESt10_Select1stIS8_ESt4lessIS5_ESaIS8_EE11_Alloc_nodeclIRKS8_EEPSt13_Rb_tree_nodeIS8_EOT_' type='func-type' binding='weak-binding' visibility='default-visibility' is-defined='yes'/>
    <elf-symbol name='_ZNKSt8_Rb_treeINSt7__cxx1112basic_stringIcSt11char_traitsIcESaIcEEESt4pairIKS5_S5_ESt10_Select1stIS8_ESt4lessIS5_ESaIS8_EE14_M_lower_boundEPKSt13_Rb_tree_nodeIS8_EPKSt18_Rb_tree_node_baseRS7_' type='func-type' binding='weak-binding' visibility='default-visibility' is-defined='yes'/>
    <elf-symbol name='_ZNKSt8_Rb_treeINSt7__cxx1112basic_stringIcSt11char_traitsIcESaIcEEESt4pairIKS5_S5_ESt10_Select1stIS8_ESt4lessIS5_ESaIS8_EE21_M_get_Node_allocatorEv' type='func-type' binding='weak-binding' visibility='default-visibility' is-defined='yes'/>
    <elf-symbol name='_ZNKSt8_Rb_treeINSt7__cxx1112basic_stringIcSt11char_traitsIcESaIcEEESt4pairIKS5_S5_ESt10_Select1stIS8_ESt4lessIS5_ESaIS8_EE3endEv' type='func-type' binding='weak-binding' visibility='default-visibility' is-defined='yes'/>
    <elf-symbol name='_ZNKSt8_Rb_treeINSt7__cxx1112basic_stringIcSt11char_traitsIcESaIcEEESt4pairIKS5_S5_ESt10_Select1stIS8_ESt4lessIS5_ESaIS8_EE4findERS7_' type='func-type' binding='weak-binding' visibility='default-visibility' is-defined='yes'/>
    <elf-symbol name='_ZNKSt8_Rb_treeINSt7__cxx1112basic_stringIcSt11char_traitsIcESaIcEEESt4pairIKS5_S5_ESt10_Select1stIS8_ESt4lessIS5_ESaIS8_EE4sizeEv' type='func-type' binding='weak-binding' visibility='default-visibility' is-defined='yes'/>
    <elf-symbol name='_ZNKSt8_Rb_treeINSt7__cxx1112basic_stringIcSt11char_traitsIcESaIcEEESt4pairIKS5_S5_ESt10_Select1stIS8_ESt4lessIS5_ESaIS8_EE5beginEv' type='func-type' binding='weak-binding' visibility='default-visibility' is-defined='yes'/>
    <elf-symbol name='_ZNKSt8_Rb_treeINSt7__cxx1112basic_stringIcSt11char_traitsIcESaIcEEESt4pairIKS5_S5_ESt10_Select1stIS8_ESt4lessIS5_ESaIS8_EE6_M_endEv' type='func-type' binding='weak-binding' visibility='default-visibility' is-defined='yes'/>
    <elf-symbol name='_ZNKSt8_Rb_treeINSt7__cxx1112basic_stringIcSt11char_traitsIcESaIcEEESt4pairIKS5_S5_ESt10_Select1stIS8_ESt4lessIS5_ESaIS8_EE7_M_rootEv' type='func-type' binding='weak-binding' visibility='default-visibility' is-defined='yes'/>
    <elf-symbol name='_ZNKSt8_Rb_treeINSt7__cxx1112basic_stringIcSt11char_traitsIcESaIcEEESt4pairIKS5_S5_ESt10_Select1stIS8_ESt4lessIS5_ESaIS8_EE8_M_beginEv' type='func-type' binding='weak-binding' visibility='default-visibility' is-defined='yes'/>
    <elf-symbol name='_ZNKSt8__detail10_Hash_nodeISt4pairIKPN10prometheus5GaugeEmELb0EE7_M_nextEv' type='func-type' binding='weak-binding' visibility='default-visibility' is-defined='yes'/>
    <elf-symbol name='_ZNKSt8__detail10_Hash_nodeISt4pairIKPN10prometheus7CounterEmELb0EE7_M_nextEv' type='func-type' binding='weak-binding' visibility='default-visibility' is-defined='yes'/>
    <elf-symbol name='_ZNKSt8__detail10_Hash_nodeISt4pairIKPN10prometheus7SummaryEmELb0EE7_M_nextEv' type='func-type' binding='weak-binding' visibility='default-visibility' is-defined='yes'/>
    <elf-symbol name='_ZNKSt8__detail10_Hash_nodeISt4pairIKPN10prometheus9HistogramEmELb0EE7_M_nextEv' type='func-type' binding='weak-binding' visibility='default-visibility' is-defined='yes'/>
    <elf-symbol name='_ZNKSt8__detail10_Hash_nodeISt4pairIKmSt10unique_ptrIN10prometheus5GaugeESt14default_deleteIS5_EEELb0EE7_M_nextEv' type='func-type' binding='weak-binding' visibility='default-visibility' is-defined='yes'/>
    <elf-symbol name='_ZNKSt8__detail10_Hash_nodeISt4pairIKmSt10unique_ptrIN10prometheus7CounterESt14default_deleteIS5_EEELb0EE7_M_nextEv' type='func-type' binding='weak-binding' visibility='default-visibility' is-defined='yes'/>
    <elf-symbol name='_ZNKSt8__detail10_Hash_nodeISt4pairIKmSt10unique_ptrIN10prometheus7SummaryESt14default_deleteIS5_EEELb0EE7_M_nextEv' type='func-type' binding='weak-binding' visibility='default-visibility' is-defined='yes'/>
    <elf-symbol name='_ZNKSt8__detail10_Hash_nodeISt4pairIKmSt10unique_ptrIN10prometheus9HistogramESt14default_deleteIS5_EEELb0EE7_M_nextEv' type='func-type' binding='weak-binding' visibility='default-visibility' is-defined='yes'/>
    <elf-symbol name='_ZNKSt8__detail10_Hash_nodeISt4pairIKmSt3mapINSt7__cxx1112basic_stringIcSt11char_traitsIcESaIcEEES9_St4lessIS9_ESaIS1_IKS9_S9_EEEELb0EE7_M_nextEv' type='func-type' binding='weak-binding' visibility='default-visibility' is-defined='yes'/>
    <elf-symbol name='_ZNKSt8__detail10_Select1stclIRKSt4pairIKPN10prometheus5GaugeEmEEEDTcl3getILi0EEcl7forwardIT_Efp_EEEOSA_' type='func-type' binding='weak-binding' visibility='default-visibility' is-defined='yes'/>
    <elf-symbol name='_ZNKSt8__detail10_Select1stclIRKSt4pairIKPN10prometheus7CounterEmEEEDTcl3getILi0EEcl7forwardIT_Efp_EEEOSA_' type='func-type' binding='weak-binding' visibility='default-visibility' is-defined='yes'/>
    <elf-symbol name='_ZNKSt8__detail10_Select1stclIRKSt4pairIKPN10prometheus7SummaryEmEEEDTcl3getILi0EEcl7forwardIT_Efp_EEEOSA_' type='func-type' binding='weak-binding' visibility='default-visibility' is-defined='yes'/>
    <elf-symbol name='_ZNKSt8__detail10_Select1stclIRKSt4pairIKPN10prometheus9HistogramEmEEEDTcl3getILi0EEcl7forwardIT_Efp_EEEOSA_' type='func-type' binding='weak-binding' visibility='default-visibility' is-defined='yes'/>
    <elf-symbol name='_ZNKSt8__detail10_Select1stclIRKSt4pairIKmSt10unique_ptrIN10prometheus5GaugeESt14default_deleteIS6_EEEEEDTcl3getILi0EEcl7forwardIT_Efp_EEEOSD_' type='func-type' binding='weak-binding' visibility='default-visibility' is-defined='yes'/>
    <elf-symbol name='_ZNKSt8__detail10_Select1stclIRKSt4pairIKmSt10unique_ptrIN10prometheus7CounterESt14default_deleteIS6_EEEEEDTcl3getILi0EEcl7forwardIT_Efp_EEEOSD_' type='func-type' binding='weak-binding' visibility='default-visibility' is-defined='yes'/>
    <elf-symbol name='_ZNKSt8__detail10_Select1stclIRKSt4pairIKmSt10unique_ptrIN10prometheus7SummaryESt14default_deleteIS6_EEEEEDTcl3getILi0EEcl7forwardIT_Efp_EEEOSD_' type='func-type' binding='weak-binding' visibility='default-visibility' is-defined='yes'/>
    <elf-symbol name='_ZNKSt8__detail10_Select1stclIRKSt4pairIKmSt10unique_ptrIN10prometheus9HistogramESt14default_deleteIS6_EEEEEDTcl3getILi0EEcl7forwardIT_Efp_EEEOSD_' type='func-type' binding='weak-binding' visibility='default-visibility' is-defined='yes'/>
    <elf-symbol name='_ZNKSt8__detail10_Select1stclIRKSt4pairIKmSt3mapINSt7__cxx1112basic_stringIcSt11char_traitsIcESaIcEEESA_St4lessISA_ESaIS2_IKSA_SA_EEEEEEDTcl3getILi0EEcl7forwardIT_Efp_EEEOSK_' type='func-type' binding='weak-binding' visibility='default-visibility' is-defined='yes'/>
    <elf-symbol name='_ZNKSt8__detail10_Select1stclIRSt4pairIKPN10prometheus5GaugeEmEEEDTcl3getILi0EEcl7forwardIT_Efp_EEEOS9_' type='func-type' binding='weak-binding' visibility='default-visibility' is-defined='yes'/>
    <elf-symbol name='_ZNKSt8__detail10_Select1stclIRSt4pairIKPN10prometheus7CounterEmEEEDTcl3getILi0EEcl7forwardIT_Efp_EEEOS9_' type='func-type' binding='weak-binding' visibility='default-visibility' is-defined='yes'/>
    <elf-symbol name='_ZNKSt8__detail10_Select1stclIRSt4pairIKPN10prometheus7SummaryEmEEEDTcl3getILi0EEcl7forwardIT_Efp_EEEOS9_' type='func-type' binding='weak-binding' visibility='default-visibility' is-defined='yes'/>
    <elf-symbol name='_ZNKSt8__detail10_Select1stclIRSt4pairIKPN10prometheus9HistogramEmEEEDTcl3getILi0EEcl7forwardIT_Efp_EEEOS9_' type='func-type' binding='weak-binding' visibility='default-visibility' is-defined='yes'/>
    <elf-symbol name='_ZNKSt8__detail10_Select1stclIRSt4pairIKmSt10unique_ptrIN10prometheus5GaugeESt14default_deleteIS6_EEEEEDTcl3getILi0EEcl7forwardIT_Efp_EEEOSC_' type='func-type' binding='weak-binding' visibility='default-visibility' is-defined='yes'/>
    <elf-symbol name='_ZNKSt8__detail10_Select1stclIRSt4pairIKmSt10unique_ptrIN10prometheus7CounterESt14default_deleteIS6_EEEEEDTcl3getILi0EEcl7forwardIT_Efp_EEEOSC_' type='func-type' binding='weak-binding' visibility='default-visibility' is-defined='yes'/>
    <elf-symbol name='_ZNKSt8__detail10_Select1stclIRSt4pairIKmSt10unique_ptrIN10prometheus7SummaryESt14default_deleteIS6_EEEEEDTcl3getILi0EEcl7forwardIT_Efp_EEEOSC_' type='func-type' binding='weak-binding' visibility='default-visibility' is-defined='yes'/>
    <elf-symbol name='_ZNKSt8__detail10_Select1stclIRSt4pairIKmSt10unique_ptrIN10prometheus9HistogramESt14default_deleteIS6_EEEEEDTcl3getILi0EEcl7forwardIT_Efp_EEEOSC_' type='func-type' binding='weak-binding' visibility='default-visibility' is-defined='yes'/>
    <elf-symbol name='_ZNKSt8__detail10_Select1stclIRSt4pairIKmSt3mapINSt7__cxx1112basic_stringIcSt11char_traitsIcESaIcEEESA_St4lessISA_ESaIS2_IKSA_SA_EEEEEEDTcl3getILi0EEcl7forwardIT_Efp_EEEOSJ_' type='func-type' binding='weak-binding' visibility='default-visibility' is-defined='yes'/>
    <elf-symbol name='_ZNKSt8__detail14_Node_iteratorISt4pairIKmSt10unique_ptrIN10prometheus5GaugeESt14default_deleteIS5_EEELb0ELb0EEptEv' type='func-type' binding='weak-binding' visibility='default-visibility' is-defined='yes'/>
    <elf-symbol name='_ZNKSt8__detail14_Node_iteratorISt4pairIKmSt10unique_ptrIN10prometheus7CounterESt14default_deleteIS5_EEELb0ELb0EEptEv' type='func-type' binding='weak-binding' visibility='default-visibility' is-defined='yes'/>
    <elf-symbol name='_ZNKSt8__detail14_Node_iteratorISt4pairIKmSt10unique_ptrIN10prometheus7SummaryESt14default_deleteIS5_EEELb0ELb0EEptEv' type='func-type' binding='weak-binding' visibility='default-visibility' is-defined='yes'/>
    <elf-symbol name='_ZNKSt8__detail14_Node_iteratorISt4pairIKmSt10unique_ptrIN10prometheus9HistogramESt14default_deleteIS5_EEELb0ELb0EEptEv' type='func-type' binding='weak-binding' visibility='default-visibility' is-defined='yes'/>
    <elf-symbol name='_ZNKSt8__detail14_Node_iteratorISt4pairIKmSt3mapINSt7__cxx1112basic_stringIcSt11char_traitsIcESaIcEEES9_St4lessIS9_ESaIS1_IKS9_S9_EEEELb0ELb0EEptEv' type='func-type' binding='weak-binding' visibility='default-visibility' is-defined='yes'/>
    <elf-symbol name='_ZNKSt8__detail15_Hash_code_baseIPN10prometheus5GaugeESt4pairIKS3_mENS_10_Select1stESt4hashIS3_ENS_18_Mod_range_hashingENS_20_Default_ranged_hashELb0EE10_M_extractEv' type='func-type' binding='weak-binding' visibility='default-visibility' is-defined='yes'/>
    <elf-symbol name='_ZNKSt8__detail15_Hash_code_baseIPN10prometheus5GaugeESt4pairIKS3_mENS_10_Select1stESt4hashIS3_ENS_18_Mod_range_hashingENS_20_Default_ranged_hashELb0EE12_M_hash_codeERS5_' type='func-type' binding='weak-binding' visibility='default-visibility' is-defined='yes'/>
    <elf-symbol name='_ZNKSt8__detail15_Hash_code_baseIPN10prometheus5GaugeESt4pairIKS3_mENS_10_Select1stESt4hashIS3_ENS_18_Mod_range_hashingENS_20_Default_ranged_hashELb0EE13_M_store_codeEPNS_10_Hash_nodeIS6_Lb0EEEm' type='func-type' binding='weak-binding' visibility='default-visibility' is-defined='yes'/>
    <elf-symbol name='_ZNKSt8__detail15_Hash_code_baseIPN10prometheus5GaugeESt4pairIKS3_mENS_10_Select1stESt4hashIS3_ENS_18_Mod_range_hashingENS_20_Default_ranged_hashELb0EE15_M_bucket_indexEPKNS_10_Hash_nodeIS6_Lb0EEEm' type='func-type' binding='weak-binding' visibility='default-visibility' is-defined='yes'/>
    <elf-symbol name='_ZNKSt8__detail15_Hash_code_baseIPN10prometheus5GaugeESt4pairIKS3_mENS_10_Select1stESt4hashIS3_ENS_18_Mod_range_hashingENS_20_Default_ranged_hashELb0EE15_M_bucket_indexERS5_mm' type='func-type' binding='weak-binding' visibility='default-visibility' is-defined='yes'/>
    <elf-symbol name='_ZNKSt8__detail15_Hash_code_baseIPN10prometheus5GaugeESt4pairIKS3_mENS_10_Select1stESt4hashIS3_ENS_18_Mod_range_hashingENS_20_Default_ranged_hashELb0EE5_M_h1Ev' type='func-type' binding='weak-binding' visibility='default-visibility' is-defined='yes'/>
    <elf-symbol name='_ZNKSt8__detail15_Hash_code_baseIPN10prometheus5GaugeESt4pairIKS3_mENS_10_Select1stESt4hashIS3_ENS_18_Mod_range_hashingENS_20_Default_ranged_hashELb0EE5_M_h2Ev' type='func-type' binding='weak-binding' visibility='default-visibility' is-defined='yes'/>
    <elf-symbol name='_ZNKSt8__detail15_Hash_code_baseIPN10prometheus7CounterESt4pairIKS3_mENS_10_Select1stESt4hashIS3_ENS_18_Mod_range_hashingENS_20_Default_ranged_hashELb0EE10_M_extractEv' type='func-type' binding='weak-binding' visibility='default-visibility' is-defined='yes'/>
    <elf-symbol name='_ZNKSt8__detail15_Hash_code_baseIPN10prometheus7CounterESt4pairIKS3_mENS_10_Select1stESt4hashIS3_ENS_18_Mod_range_hashingENS_20_Default_ranged_hashELb0EE12_M_hash_codeERS5_' type='func-type' binding='weak-binding' visibility='default-visibility' is-defined='yes'/>
    <elf-symbol name='_ZNKSt8__detail15_Hash_code_baseIPN10prometheus7CounterESt4pairIKS3_mENS_10_Select1stESt4hashIS3_ENS_18_Mod_range_hashingENS_20_Default_ranged_hashELb0EE13_M_store_codeEPNS_10_Hash_nodeIS6_Lb0EEEm' type='func-type' binding='weak-binding' visibility='default-visibility' is-defined='yes'/>
    <elf-symbol name='_ZNKSt8__detail15_Hash_code_baseIPN10prometheus7CounterESt4pairIKS3_mENS_10_Select1stESt4hashIS3_ENS_18_Mod_range_hashingENS_20_Default_ranged_hashELb0EE15_M_bucket_indexEPKNS_10_Hash_nodeIS6_Lb0EEEm' type='func-type' binding='weak-binding' visibility='default-visibility' is-defined='yes'/>
    <elf-symbol name='_ZNKSt8__detail15_Hash_code_baseIPN10prometheus7CounterESt4pairIKS3_mENS_10_Select1stESt4hashIS3_ENS_18_Mod_range_hashingENS_20_Default_ranged_hashELb0EE15_M_bucket_indexERS5_mm' type='func-type' binding='weak-binding' visibility='default-visibility' is-defined='yes'/>
    <elf-symbol name='_ZNKSt8__detail15_Hash_code_baseIPN10prometheus7CounterESt4pairIKS3_mENS_10_Select1stESt4hashIS3_ENS_18_Mod_range_hashingENS_20_Default_ranged_hashELb0EE5_M_h1Ev' type='func-type' binding='weak-binding' visibility='default-visibility' is-defined='yes'/>
    <elf-symbol name='_ZNKSt8__detail15_Hash_code_baseIPN10prometheus7CounterESt4pairIKS3_mENS_10_Select1stESt4hashIS3_ENS_18_Mod_range_hashingENS_20_Default_ranged_hashELb0EE5_M_h2Ev' type='func-type' binding='weak-binding' visibility='default-visibility' is-defined='yes'/>
    <elf-symbol name='_ZNKSt8__detail15_Hash_code_baseIPN10prometheus7SummaryESt4pairIKS3_mENS_10_Select1stESt4hashIS3_ENS_18_Mod_range_hashingENS_20_Default_ranged_hashELb0EE10_M_extractEv' type='func-type' binding='weak-binding' visibility='default-visibility' is-defined='yes'/>
    <elf-symbol name='_ZNKSt8__detail15_Hash_code_baseIPN10prometheus7SummaryESt4pairIKS3_mENS_10_Select1stESt4hashIS3_ENS_18_Mod_range_hashingENS_20_Default_ranged_hashELb0EE12_M_hash_codeERS5_' type='func-type' binding='weak-binding' visibility='default-visibility' is-defined='yes'/>
    <elf-symbol name='_ZNKSt8__detail15_Hash_code_baseIPN10prometheus7SummaryESt4pairIKS3_mENS_10_Select1stESt4hashIS3_ENS_18_Mod_range_hashingENS_20_Default_ranged_hashELb0EE13_M_store_codeEPNS_10_Hash_nodeIS6_Lb0EEEm' type='func-type' binding='weak-binding' visibility='default-visibility' is-defined='yes'/>
    <elf-symbol name='_ZNKSt8__detail15_Hash_code_baseIPN10prometheus7SummaryESt4pairIKS3_mENS_10_Select1stESt4hashIS3_ENS_18_Mod_range_hashingENS_20_Default_ranged_hashELb0EE15_M_bucket_indexEPKNS_10_Hash_nodeIS6_Lb0EEEm' type='func-type' binding='weak-binding' visibility='default-visibility' is-defined='yes'/>
    <elf-symbol name='_ZNKSt8__detail15_Hash_code_baseIPN10prometheus7SummaryESt4pairIKS3_mENS_10_Select1stESt4hashIS3_ENS_18_Mod_range_hashingENS_20_Default_ranged_hashELb0EE15_M_bucket_indexERS5_mm' type='func-type' binding='weak-binding' visibility='default-visibility' is-defined='yes'/>
    <elf-symbol name='_ZNKSt8__detail15_Hash_code_baseIPN10prometheus7SummaryESt4pairIKS3_mENS_10_Select1stESt4hashIS3_ENS_18_Mod_range_hashingENS_20_Default_ranged_hashELb0EE5_M_h1Ev' type='func-type' binding='weak-binding' visibility='default-visibility' is-defined='yes'/>
    <elf-symbol name='_ZNKSt8__detail15_Hash_code_baseIPN10prometheus7SummaryESt4pairIKS3_mENS_10_Select1stESt4hashIS3_ENS_18_Mod_range_hashingENS_20_Default_ranged_hashELb0EE5_M_h2Ev' type='func-type' binding='weak-binding' visibility='default-visibility' is-defined='yes'/>
    <elf-symbol name='_ZNKSt8__detail15_Hash_code_baseIPN10prometheus9HistogramESt4pairIKS3_mENS_10_Select1stESt4hashIS3_ENS_18_Mod_range_hashingENS_20_Default_ranged_hashELb0EE10_M_extractEv' type='func-type' binding='weak-binding' visibility='default-visibility' is-defined='yes'/>
    <elf-symbol name='_ZNKSt8__detail15_Hash_code_baseIPN10prometheus9HistogramESt4pairIKS3_mENS_10_Select1stESt4hashIS3_ENS_18_Mod_range_hashingENS_20_Default_ranged_hashELb0EE12_M_hash_codeERS5_' type='func-type' binding='weak-binding' visibility='default-visibility' is-defined='yes'/>
    <elf-symbol name='_ZNKSt8__detail15_Hash_code_baseIPN10prometheus9HistogramESt4pairIKS3_mENS_10_Select1stESt4hashIS3_ENS_18_Mod_range_hashingENS_20_Default_ranged_hashELb0EE13_M_store_codeEPNS_10_Hash_nodeIS6_Lb0EEEm' type='func-type' binding='weak-binding' visibility='default-visibility' is-defined='yes'/>
    <elf-symbol name='_ZNKSt8__detail15_Hash_code_baseIPN10prometheus9HistogramESt4pairIKS3_mENS_10_Select1stESt4hashIS3_ENS_18_Mod_range_hashingENS_20_Default_ranged_hashELb0EE15_M_bucket_indexEPKNS_10_Hash_nodeIS6_Lb0EEEm' type='func-type' binding='weak-binding' visibility='default-visibility' is-defined='yes'/>
    <elf-symbol name='_ZNKSt8__detail15_Hash_code_baseIPN10prometheus9HistogramESt4pairIKS3_mENS_10_Select1stESt4hashIS3_ENS_18_Mod_range_hashingENS_20_Default_ranged_hashELb0EE15_M_bucket_indexERS5_mm' type='func-type' binding='weak-binding' visibility='default-visibility' is-defined='yes'/>
    <elf-symbol name='_ZNKSt8__detail15_Hash_code_baseIPN10prometheus9HistogramESt4pairIKS3_mENS_10_Select1stESt4hashIS3_ENS_18_Mod_range_hashingENS_20_Default_ranged_hashELb0EE5_M_h1Ev' type='func-type' binding='weak-binding' visibility='default-visibility' is-defined='yes'/>
    <elf-symbol name='_ZNKSt8__detail15_Hash_code_baseIPN10prometheus9HistogramESt4pairIKS3_mENS_10_Select1stESt4hashIS3_ENS_18_Mod_range_hashingENS_20_Default_ranged_hashELb0EE5_M_h2Ev' type='func-type' binding='weak-binding' visibility='default-visibility' is-defined='yes'/>
    <elf-symbol name='_ZNKSt8__detail15_Hash_code_baseImSt4pairIKmSt10unique_ptrIN10prometheus5GaugeESt14default_deleteIS5_EEENS_10_Select1stESt4hashImENS_18_Mod_range_hashingENS_20_Default_ranged_hashELb0EE10_M_extractEv' type='func-type' binding='weak-binding' visibility='default-visibility' is-defined='yes'/>
    <elf-symbol name='_ZNKSt8__detail15_Hash_code_baseImSt4pairIKmSt10unique_ptrIN10prometheus5GaugeESt14default_deleteIS5_EEENS_10_Select1stESt4hashImENS_18_Mod_range_hashingENS_20_Default_ranged_hashELb0EE12_M_hash_codeERS2_' type='func-type' binding='weak-binding' visibility='default-visibility' is-defined='yes'/>
    <elf-symbol name='_ZNKSt8__detail15_Hash_code_baseImSt4pairIKmSt10unique_ptrIN10prometheus5GaugeESt14default_deleteIS5_EEENS_10_Select1stESt4hashImENS_18_Mod_range_hashingENS_20_Default_ranged_hashELb0EE13_M_store_codeEPNS_10_Hash_nodeIS9_Lb0EEEm' type='func-type' binding='weak-binding' visibility='default-visibility' is-defined='yes'/>
    <elf-symbol name='_ZNKSt8__detail15_Hash_code_baseImSt4pairIKmSt10unique_ptrIN10prometheus5GaugeESt14default_deleteIS5_EEENS_10_Select1stESt4hashImENS_18_Mod_range_hashingENS_20_Default_ranged_hashELb0EE15_M_bucket_indexEPKNS_10_Hash_nodeIS9_Lb0EEEm' type='func-type' binding='weak-binding' visibility='default-visibility' is-defined='yes'/>
    <elf-symbol name='_ZNKSt8__detail15_Hash_code_baseImSt4pairIKmSt10unique_ptrIN10prometheus5GaugeESt14default_deleteIS5_EEENS_10_Select1stESt4hashImENS_18_Mod_range_hashingENS_20_Default_ranged_hashELb0EE15_M_bucket_indexERS2_mm' type='func-type' binding='weak-binding' visibility='default-visibility' is-defined='yes'/>
    <elf-symbol name='_ZNKSt8__detail15_Hash_code_baseImSt4pairIKmSt10unique_ptrIN10prometheus5GaugeESt14default_deleteIS5_EEENS_10_Select1stESt4hashImENS_18_Mod_range_hashingENS_20_Default_ranged_hashELb0EE5_M_h1Ev' type='func-type' binding='weak-binding' visibility='default-visibility' is-defined='yes'/>
    <elf-symbol name='_ZNKSt8__detail15_Hash_code_baseImSt4pairIKmSt10unique_ptrIN10prometheus5GaugeESt14default_deleteIS5_EEENS_10_Select1stESt4hashImENS_18_Mod_range_hashingENS_20_Default_ranged_hashELb0EE5_M_h2Ev' type='func-type' binding='weak-binding' visibility='default-visibility' is-defined='yes'/>
    <elf-symbol name='_ZNKSt8__detail15_Hash_code_baseImSt4pairIKmSt10unique_ptrIN10prometheus7CounterESt14default_deleteIS5_EEENS_10_Select1stESt4hashImENS_18_Mod_range_hashingENS_20_Default_ranged_hashELb0EE10_M_extractEv' type='func-type' binding='weak-binding' visibility='default-visibility' is-defined='yes'/>
    <elf-symbol name='_ZNKSt8__detail15_Hash_code_baseImSt4pairIKmSt10unique_ptrIN10prometheus7CounterESt14default_deleteIS5_EEENS_10_Select1stESt4hashImENS_18_Mod_range_hashingENS_20_Default_ranged_hashELb0EE12_M_hash_codeERS2_' type='func-type' binding='weak-binding' visibility='default-visibility' is-defined='yes'/>
    <elf-symbol name='_ZNKSt8__detail15_Hash_code_baseImSt4pairIKmSt10unique_ptrIN10prometheus7CounterESt14default_deleteIS5_EEENS_10_Select1stESt4hashImENS_18_Mod_range_hashingENS_20_Default_ranged_hashELb0EE13_M_store_codeEPNS_10_Hash_nodeIS9_Lb0EEEm' type='func-type' binding='weak-binding' visibility='default-visibility' is-defined='yes'/>
    <elf-symbol name='_ZNKSt8__detail15_Hash_code_baseImSt4pairIKmSt10unique_ptrIN10prometheus7CounterESt14default_deleteIS5_EEENS_10_Select1stESt4hashImENS_18_Mod_range_hashingENS_20_Default_ranged_hashELb0EE15_M_bucket_indexEPKNS_10_Hash_nodeIS9_Lb0EEEm' type='func-type' binding='weak-binding' visibility='default-visibility' is-defined='yes'/>
    <elf-symbol name='_ZNKSt8__detail15_Hash_code_baseImSt4pairIKmSt10unique_ptrIN10prometheus7CounterESt14default_deleteIS5_EEENS_10_Select1stESt4hashImENS_18_Mod_range_hashingENS_20_Default_ranged_hashELb0EE15_M_bucket_indexERS2_mm' type='func-type' binding='weak-binding' visibility='default-visibility' is-defined='yes'/>
    <elf-symbol name='_ZNKSt8__detail15_Hash_code_baseImSt4pairIKmSt10unique_ptrIN10prometheus7CounterESt14default_deleteIS5_EEENS_10_Select1stESt4hashImENS_18_Mod_range_hashingENS_20_Default_ranged_hashELb0EE5_M_h1Ev' type='func-type' binding='weak-binding' visibility='default-visibility' is-defined='yes'/>
    <elf-symbol name='_ZNKSt8__detail15_Hash_code_baseImSt4pairIKmSt10unique_ptrIN10prometheus7CounterESt14default_deleteIS5_EEENS_10_Select1stESt4hashImENS_18_Mod_range_hashingENS_20_Default_ranged_hashELb0EE5_M_h2Ev' type='func-type' binding='weak-binding' visibility='default-visibility' is-defined='yes'/>
    <elf-symbol name='_ZNKSt8__detail15_Hash_code_baseImSt4pairIKmSt10unique_ptrIN10prometheus7SummaryESt14default_deleteIS5_EEENS_10_Select1stESt4hashImENS_18_Mod_range_hashingENS_20_Default_ranged_hashELb0EE10_M_extractEv' type='func-type' binding='weak-binding' visibility='default-visibility' is-defined='yes'/>
    <elf-symbol name='_ZNKSt8__detail15_Hash_code_baseImSt4pairIKmSt10unique_ptrIN10prometheus7SummaryESt14default_deleteIS5_EEENS_10_Select1stESt4hashImENS_18_Mod_range_hashingENS_20_Default_ranged_hashELb0EE12_M_hash_codeERS2_' type='func-type' binding='weak-binding' visibility='default-visibility' is-defined='yes'/>
    <elf-symbol name='_ZNKSt8__detail15_Hash_code_baseImSt4pairIKmSt10unique_ptrIN10prometheus7SummaryESt14default_deleteIS5_EEENS_10_Select1stESt4hashImENS_18_Mod_range_hashingENS_20_Default_ranged_hashELb0EE13_M_store_codeEPNS_10_Hash_nodeIS9_Lb0EEEm' type='func-type' binding='weak-binding' visibility='default-visibility' is-defined='yes'/>
    <elf-symbol name='_ZNKSt8__detail15_Hash_code_baseImSt4pairIKmSt10unique_ptrIN10prometheus7SummaryESt14default_deleteIS5_EEENS_10_Select1stESt4hashImENS_18_Mod_range_hashingENS_20_Default_ranged_hashELb0EE15_M_bucket_indexEPKNS_10_Hash_nodeIS9_Lb0EEEm' type='func-type' binding='weak-binding' visibility='default-visibility' is-defined='yes'/>
    <elf-symbol name='_ZNKSt8__detail15_Hash_code_baseImSt4pairIKmSt10unique_ptrIN10prometheus7SummaryESt14default_deleteIS5_EEENS_10_Select1stESt4hashImENS_18_Mod_range_hashingENS_20_Default_ranged_hashELb0EE15_M_bucket_indexERS2_mm' type='func-type' binding='weak-binding' visibility='default-visibility' is-defined='yes'/>
    <elf-symbol name='_ZNKSt8__detail15_Hash_code_baseImSt4pairIKmSt10unique_ptrIN10prometheus7SummaryESt14default_deleteIS5_EEENS_10_Select1stESt4hashImENS_18_Mod_range_hashingENS_20_Default_ranged_hashELb0EE5_M_h1Ev' type='func-type' binding='weak-binding' visibility='default-visibility' is-defined='yes'/>
    <elf-symbol name='_ZNKSt8__detail15_Hash_code_baseImSt4pairIKmSt10unique_ptrIN10prometheus7SummaryESt14default_deleteIS5_EEENS_10_Select1stESt4hashImENS_18_Mod_range_hashingENS_20_Default_ranged_hashELb0EE5_M_h2Ev' type='func-type' binding='weak-binding' visibility='default-visibility' is-defined='yes'/>
    <elf-symbol name='_ZNKSt8__detail15_Hash_code_baseImSt4pairIKmSt10unique_ptrIN10prometheus9HistogramESt14default_deleteIS5_EEENS_10_Select1stESt4hashImENS_18_Mod_range_hashingENS_20_Default_ranged_hashELb0EE10_M_extractEv' type='func-type' binding='weak-binding' visibility='default-visibility' is-defined='yes'/>
    <elf-symbol name='_ZNKSt8__detail15_Hash_code_baseImSt4pairIKmSt10unique_ptrIN10prometheus9HistogramESt14default_deleteIS5_EEENS_10_Select1stESt4hashImENS_18_Mod_range_hashingENS_20_Default_ranged_hashELb0EE12_M_hash_codeERS2_' type='func-type' binding='weak-binding' visibility='default-visibility' is-defined='yes'/>
    <elf-symbol name='_ZNKSt8__detail15_Hash_code_baseImSt4pairIKmSt10unique_ptrIN10prometheus9HistogramESt14default_deleteIS5_EEENS_10_Select1stESt4hashImENS_18_Mod_range_hashingENS_20_Default_ranged_hashELb0EE13_M_store_codeEPNS_10_Hash_nodeIS9_Lb0EEEm' type='func-type' binding='weak-binding' visibility='default-visibility' is-defined='yes'/>
    <elf-symbol name='_ZNKSt8__detail15_Hash_code_baseImSt4pairIKmSt10unique_ptrIN10prometheus9HistogramESt14default_deleteIS5_EEENS_10_Select1stESt4hashImENS_18_Mod_range_hashingENS_20_Default_ranged_hashELb0EE15_M_bucket_indexEPKNS_10_Hash_nodeIS9_Lb0EEEm' type='func-type' binding='weak-binding' visibility='default-visibility' is-defined='yes'/>
    <elf-symbol name='_ZNKSt8__detail15_Hash_code_baseImSt4pairIKmSt10unique_ptrIN10prometheus9HistogramESt14default_deleteIS5_EEENS_10_Select1stESt4hashImENS_18_Mod_range_hashingENS_20_Default_ranged_hashELb0EE15_M_bucket_indexERS2_mm' type='func-type' binding='weak-binding' visibility='default-visibility' is-defined='yes'/>
    <elf-symbol name='_ZNKSt8__detail15_Hash_code_baseImSt4pairIKmSt10unique_ptrIN10prometheus9HistogramESt14default_deleteIS5_EEENS_10_Select1stESt4hashImENS_18_Mod_range_hashingENS_20_Default_ranged_hashELb0EE5_M_h1Ev' type='func-type' binding='weak-binding' visibility='default-visibility' is-defined='yes'/>
    <elf-symbol name='_ZNKSt8__detail15_Hash_code_baseImSt4pairIKmSt10unique_ptrIN10prometheus9HistogramESt14default_deleteIS5_EEENS_10_Select1stESt4hashImENS_18_Mod_range_hashingENS_20_Default_ranged_hashELb0EE5_M_h2Ev' type='func-type' binding='weak-binding' visibility='default-visibility' is-defined='yes'/>
    <elf-symbol name='_ZNKSt8__detail15_Hash_code_baseImSt4pairIKmSt3mapINSt7__cxx1112basic_stringIcSt11char_traitsIcESaIcEEES9_St4lessIS9_ESaIS1_IKS9_S9_EEEENS_10_Select1stESt4hashImENS_18_Mod_range_hashingENS_20_Default_ranged_hashELb0EE10_M_extractEv' type='func-type' binding='weak-binding' visibility='default-visibility' is-defined='yes'/>
    <elf-symbol name='_ZNKSt8__detail15_Hash_code_baseImSt4pairIKmSt3mapINSt7__cxx1112basic_stringIcSt11char_traitsIcESaIcEEES9_St4lessIS9_ESaIS1_IKS9_S9_EEEENS_10_Select1stESt4hashImENS_18_Mod_range_hashingENS_20_Default_ranged_hashELb0EE12_M_hash_codeERS2_' type='func-type' binding='weak-binding' visibility='default-visibility' is-defined='yes'/>
    <elf-symbol name='_ZNKSt8__detail15_Hash_code_baseImSt4pairIKmSt3mapINSt7__cxx1112basic_stringIcSt11char_traitsIcESaIcEEES9_St4lessIS9_ESaIS1_IKS9_S9_EEEENS_10_Select1stESt4hashImENS_18_Mod_range_hashingENS_20_Default_ranged_hashELb0EE13_M_store_codeEPNS_10_Hash_nodeISG_Lb0EEEm' type='func-type' binding='weak-binding' visibility='default-visibility' is-defined='yes'/>
    <elf-symbol name='_ZNKSt8__detail15_Hash_code_baseImSt4pairIKmSt3mapINSt7__cxx1112basic_stringIcSt11char_traitsIcESaIcEEES9_St4lessIS9_ESaIS1_IKS9_S9_EEEENS_10_Select1stESt4hashImENS_18_Mod_range_hashingENS_20_Default_ranged_hashELb0EE15_M_bucket_indexEPKNS_10_Hash_nodeISG_Lb0EEEm' type='func-type' binding='weak-binding' visibility='default-visibility' is-defined='yes'/>
    <elf-symbol name='_ZNKSt8__detail15_Hash_code_baseImSt4pairIKmSt3mapINSt7__cxx1112basic_stringIcSt11char_traitsIcESaIcEEES9_St4lessIS9_ESaIS1_IKS9_S9_EEEENS_10_Select1stESt4hashImENS_18_Mod_range_hashingENS_20_Default_ranged_hashELb0EE15_M_bucket_indexERS2_mm' type='func-type' binding='weak-binding' visibility='default-visibility' is-defined='yes'/>
    <elf-symbol name='_ZNKSt8__detail15_Hash_code_baseImSt4pairIKmSt3mapINSt7__cxx1112basic_stringIcSt11char_traitsIcESaIcEEES9_St4lessIS9_ESaIS1_IKS9_S9_EEEENS_10_Select1stESt4hashImENS_18_Mod_range_hashingENS_20_Default_ranged_hashELb0EE5_M_h1Ev' type='func-type' binding='weak-binding' visibility='default-visibility' is-defined='yes'/>
    <elf-symbol name='_ZNKSt8__detail15_Hash_code_baseImSt4pairIKmSt3mapINSt7__cxx1112basic_stringIcSt11char_traitsIcESaIcEEES9_St4lessIS9_ESaIS1_IKS9_S9_EEEENS_10_Select1stESt4hashImENS_18_Mod_range_hashingENS_20_Default_ranged_hashELb0EE5_M_h2Ev' type='func-type' binding='weak-binding' visibility='default-visibility' is-defined='yes'/>
    <elf-symbol name='_ZNKSt8__detail15_Hashtable_baseIPN10prometheus5GaugeESt4pairIKS3_mENS_10_Select1stESt8equal_toIS3_ESt4hashIS3_ENS_18_Mod_range_hashingENS_20_Default_ranged_hashENS_17_Hashtable_traitsILb0ELb0ELb1EEEE5_M_eqEv' type='func-type' binding='weak-binding' visibility='default-visibility' is-defined='yes'/>
    <elf-symbol name='_ZNKSt8__detail15_Hashtable_baseIPN10prometheus5GaugeESt4pairIKS3_mENS_10_Select1stESt8equal_toIS3_ESt4hashIS3_ENS_18_Mod_range_hashingENS_20_Default_ranged_hashENS_17_Hashtable_traitsILb0ELb0ELb1EEEE9_M_equalsERS5_mPNS_10_Hash_nodeIS6_Lb0EEE' type='func-type' binding='weak-binding' visibility='default-visibility' is-defined='yes'/>
    <elf-symbol name='_ZNKSt8__detail15_Hashtable_baseIPN10prometheus7CounterESt4pairIKS3_mENS_10_Select1stESt8equal_toIS3_ESt4hashIS3_ENS_18_Mod_range_hashingENS_20_Default_ranged_hashENS_17_Hashtable_traitsILb0ELb0ELb1EEEE5_M_eqEv' type='func-type' binding='weak-binding' visibility='default-visibility' is-defined='yes'/>
    <elf-symbol name='_ZNKSt8__detail15_Hashtable_baseIPN10prometheus7CounterESt4pairIKS3_mENS_10_Select1stESt8equal_toIS3_ESt4hashIS3_ENS_18_Mod_range_hashingENS_20_Default_ranged_hashENS_17_Hashtable_traitsILb0ELb0ELb1EEEE9_M_equalsERS5_mPNS_10_Hash_nodeIS6_Lb0EEE' type='func-type' binding='weak-binding' visibility='default-visibility' is-defined='yes'/>
    <elf-symbol name='_ZNKSt8__detail15_Hashtable_baseIPN10prometheus7SummaryESt4pairIKS3_mENS_10_Select1stESt8equal_toIS3_ESt4hashIS3_ENS_18_Mod_range_hashingENS_20_Default_ranged_hashENS_17_Hashtable_traitsILb0ELb0ELb1EEEE5_M_eqEv' type='func-type' binding='weak-binding' visibility='default-visibility' is-defined='yes'/>
    <elf-symbol name='_ZNKSt8__detail15_Hashtable_baseIPN10prometheus7SummaryESt4pairIKS3_mENS_10_Select1stESt8equal_toIS3_ESt4hashIS3_ENS_18_Mod_range_hashingENS_20_Default_ranged_hashENS_17_Hashtable_traitsILb0ELb0ELb1EEEE9_M_equalsERS5_mPNS_10_Hash_nodeIS6_Lb0EEE' type='func-type' binding='weak-binding' visibility='default-visibility' is-defined='yes'/>
    <elf-symbol name='_ZNKSt8__detail15_Hashtable_baseIPN10prometheus9HistogramESt4pairIKS3_mENS_10_Select1stESt8equal_toIS3_ESt4hashIS3_ENS_18_Mod_range_hashingENS_20_Default_ranged_hashENS_17_Hashtable_traitsILb0ELb0ELb1EEEE5_M_eqEv' type='func-type' binding='weak-binding' visibility='default-visibility' is-defined='yes'/>
    <elf-symbol name='_ZNKSt8__detail15_Hashtable_baseIPN10prometheus9HistogramESt4pairIKS3_mENS_10_Select1stESt8equal_toIS3_ESt4hashIS3_ENS_18_Mod_range_hashingENS_20_Default_ranged_hashENS_17_Hashtable_traitsILb0ELb0ELb1EEEE9_M_equalsERS5_mPNS_10_Hash_nodeIS6_Lb0EEE' type='func-type' binding='weak-binding' visibility='default-visibility' is-defined='yes'/>
    <elf-symbol name='_ZNKSt8__detail15_Hashtable_baseImSt4pairIKmSt10unique_ptrIN10prometheus5GaugeESt14default_deleteIS5_EEENS_10_Select1stESt8equal_toImESt4hashImENS_18_Mod_range_hashingENS_20_Default_ranged_hashENS_17_Hashtable_traitsILb0ELb0ELb1EEEE5_M_eqEv' type='func-type' binding='weak-binding' visibility='default-visibility' is-defined='yes'/>
    <elf-symbol name='_ZNKSt8__detail15_Hashtable_baseImSt4pairIKmSt10unique_ptrIN10prometheus5GaugeESt14default_deleteIS5_EEENS_10_Select1stESt8equal_toImESt4hashImENS_18_Mod_range_hashingENS_20_Default_ranged_hashENS_17_Hashtable_traitsILb0ELb0ELb1EEEE9_M_equalsERS2_mPNS_10_Hash_nodeIS9_Lb0EEE' type='func-type' binding='weak-binding' visibility='default-visibility' is-defined='yes'/>
    <elf-symbol name='_ZNKSt8__detail15_Hashtable_baseImSt4pairIKmSt10unique_ptrIN10prometheus7CounterESt14default_deleteIS5_EEENS_10_Select1stESt8equal_toImESt4hashImENS_18_Mod_range_hashingENS_20_Default_ranged_hashENS_17_Hashtable_traitsILb0ELb0ELb1EEEE5_M_eqEv' type='func-type' binding='weak-binding' visibility='default-visibility' is-defined='yes'/>
    <elf-symbol name='_ZNKSt8__detail15_Hashtable_baseImSt4pairIKmSt10unique_ptrIN10prometheus7CounterESt14default_deleteIS5_EEENS_10_Select1stESt8equal_toImESt4hashImENS_18_Mod_range_hashingENS_20_Default_ranged_hashENS_17_Hashtable_traitsILb0ELb0ELb1EEEE9_M_equalsERS2_mPNS_10_Hash_nodeIS9_Lb0EEE' type='func-type' binding='weak-binding' visibility='default-visibility' is-defined='yes'/>
    <elf-symbol name='_ZNKSt8__detail15_Hashtable_baseImSt4pairIKmSt10unique_ptrIN10prometheus7SummaryESt14default_deleteIS5_EEENS_10_Select1stESt8equal_toImESt4hashImENS_18_Mod_range_hashingENS_20_Default_ranged_hashENS_17_Hashtable_traitsILb0ELb0ELb1EEEE5_M_eqEv' type='func-type' binding='weak-binding' visibility='default-visibility' is-defined='yes'/>
    <elf-symbol name='_ZNKSt8__detail15_Hashtable_baseImSt4pairIKmSt10unique_ptrIN10prometheus7SummaryESt14default_deleteIS5_EEENS_10_Select1stESt8equal_toImESt4hashImENS_18_Mod_range_hashingENS_20_Default_ranged_hashENS_17_Hashtable_traitsILb0ELb0ELb1EEEE9_M_equalsERS2_mPNS_10_Hash_nodeIS9_Lb0EEE' type='func-type' binding='weak-binding' visibility='default-visibility' is-defined='yes'/>
    <elf-symbol name='_ZNKSt8__detail15_Hashtable_baseImSt4pairIKmSt10unique_ptrIN10prometheus9HistogramESt14default_deleteIS5_EEENS_10_Select1stESt8equal_toImESt4hashImENS_18_Mod_range_hashingENS_20_Default_ranged_hashENS_17_Hashtable_traitsILb0ELb0ELb1EEEE5_M_eqEv' type='func-type' binding='weak-binding' visibility='default-visibility' is-defined='yes'/>
    <elf-symbol name='_ZNKSt8__detail15_Hashtable_baseImSt4pairIKmSt10unique_ptrIN10prometheus9HistogramESt14default_deleteIS5_EEENS_10_Select1stESt8equal_toImESt4hashImENS_18_Mod_range_hashingENS_20_Default_ranged_hashENS_17_Hashtable_traitsILb0ELb0ELb1EEEE9_M_equalsERS2_mPNS_10_Hash_nodeIS9_Lb0EEE' type='func-type' binding='weak-binding' visibility='default-visibility' is-defined='yes'/>
    <elf-symbol name='_ZNKSt8__detail15_Hashtable_baseImSt4pairIKmSt3mapINSt7__cxx1112basic_stringIcSt11char_traitsIcESaIcEEES9_St4lessIS9_ESaIS1_IKS9_S9_EEEENS_10_Select1stESt8equal_toImESt4hashImENS_18_Mod_range_hashingENS_20_Default_ranged_hashENS_17_Hashtable_traitsILb0ELb0ELb1EEEE5_M_eqEv' type='func-type' binding='weak-binding' visibility='default-visibility' is-defined='yes'/>
    <elf-symbol name='_ZNKSt8__detail15_Hashtable_baseImSt4pairIKmSt3mapINSt7__cxx1112basic_stringIcSt11char_traitsIcESaIcEEES9_St4lessIS9_ESaIS1_IKS9_S9_EEEENS_10_Select1stESt8equal_toImESt4hashImENS_18_Mod_range_hashingENS_20_Default_ranged_hashENS_17_Hashtable_traitsILb0ELb0ELb1EEEE9_M_equalsERS2_mPNS_10_Hash_nodeISG_Lb0EEE' type='func-type' binding='weak-binding' visibility='default-visibility' is-defined='yes'/>
    <elf-symbol name='_ZNKSt8__detail20_Node_const_iteratorISt4pairIKmSt10unique_ptrIN10prometheus5GaugeESt14default_deleteIS5_EEELb0ELb0EEdeEv' type='func-type' binding='weak-binding' visibility='default-visibility' is-defined='yes'/>
    <elf-symbol name='_ZNKSt8__detail20_Node_const_iteratorISt4pairIKmSt10unique_ptrIN10prometheus7CounterESt14default_deleteIS5_EEELb0ELb0EEdeEv' type='func-type' binding='weak-binding' visibility='default-visibility' is-defined='yes'/>
    <elf-symbol name='_ZNKSt8__detail20_Node_const_iteratorISt4pairIKmSt10unique_ptrIN10prometheus7SummaryESt14default_deleteIS5_EEELb0ELb0EEdeEv' type='func-type' binding='weak-binding' visibility='default-visibility' is-defined='yes'/>
    <elf-symbol name='_ZNKSt8__detail20_Node_const_iteratorISt4pairIKmSt10unique_ptrIN10prometheus9HistogramESt14default_deleteIS5_EEELb0ELb0EEdeEv' type='func-type' binding='weak-binding' visibility='default-visibility' is-defined='yes'/>
    <elf-symbol name='_ZNKSt8__detail21_Hash_node_value_baseISt4pairIKPN10prometheus5GaugeEmEE4_M_vEv' type='func-type' binding='weak-binding' visibility='default-visibility' is-defined='yes'/>
    <elf-symbol name='_ZNKSt8__detail21_Hash_node_value_baseISt4pairIKPN10prometheus5GaugeEmEE9_M_valptrEv' type='func-type' binding='weak-binding' visibility='default-visibility' is-defined='yes'/>
    <elf-symbol name='_ZNKSt8__detail21_Hash_node_value_baseISt4pairIKPN10prometheus7CounterEmEE4_M_vEv' type='func-type' binding='weak-binding' visibility='default-visibility' is-defined='yes'/>
    <elf-symbol name='_ZNKSt8__detail21_Hash_node_value_baseISt4pairIKPN10prometheus7CounterEmEE9_M_valptrEv' type='func-type' binding='weak-binding' visibility='default-visibility' is-defined='yes'/>
    <elf-symbol name='_ZNKSt8__detail21_Hash_node_value_baseISt4pairIKPN10prometheus7SummaryEmEE4_M_vEv' type='func-type' binding='weak-binding' visibility='default-visibility' is-defined='yes'/>
    <elf-symbol name='_ZNKSt8__detail21_Hash_node_value_baseISt4pairIKPN10prometheus7SummaryEmEE9_M_valptrEv' type='func-type' binding='weak-binding' visibility='default-visibility' is-defined='yes'/>
    <elf-symbol name='_ZNKSt8__detail21_Hash_node_value_baseISt4pairIKPN10prometheus9HistogramEmEE4_M_vEv' type='func-type' binding='weak-binding' visibility='default-visibility' is-defined='yes'/>
    <elf-symbol name='_ZNKSt8__detail21_Hash_node_value_baseISt4pairIKPN10prometheus9HistogramEmEE9_M_valptrEv' type='func-type' binding='weak-binding' visibility='default-visibility' is-defined='yes'/>
    <elf-symbol name='_ZNKSt8__detail21_Hash_node_value_baseISt4pairIKmSt10unique_ptrIN10prometheus5GaugeESt14default_deleteIS5_EEEE4_M_vEv' type='func-type' binding='weak-binding' visibility='default-visibility' is-defined='yes'/>
    <elf-symbol name='_ZNKSt8__detail21_Hash_node_value_baseISt4pairIKmSt10unique_ptrIN10prometheus5GaugeESt14default_deleteIS5_EEEE9_M_valptrEv' type='func-type' binding='weak-binding' visibility='default-visibility' is-defined='yes'/>
    <elf-symbol name='_ZNKSt8__detail21_Hash_node_value_baseISt4pairIKmSt10unique_ptrIN10prometheus7CounterESt14default_deleteIS5_EEEE4_M_vEv' type='func-type' binding='weak-binding' visibility='default-visibility' is-defined='yes'/>
    <elf-symbol name='_ZNKSt8__detail21_Hash_node_value_baseISt4pairIKmSt10unique_ptrIN10prometheus7CounterESt14default_deleteIS5_EEEE9_M_valptrEv' type='func-type' binding='weak-binding' visibility='default-visibility' is-defined='yes'/>
    <elf-symbol name='_ZNKSt8__detail21_Hash_node_value_baseISt4pairIKmSt10unique_ptrIN10prometheus7SummaryESt14default_deleteIS5_EEEE4_M_vEv' type='func-type' binding='weak-binding' visibility='default-visibility' is-defined='yes'/>
    <elf-symbol name='_ZNKSt8__detail21_Hash_node_value_baseISt4pairIKmSt10unique_ptrIN10prometheus7SummaryESt14default_deleteIS5_EEEE9_M_valptrEv' type='func-type' binding='weak-binding' visibility='default-visibility' is-defined='yes'/>
    <elf-symbol name='_ZNKSt8__detail21_Hash_node_value_baseISt4pairIKmSt10unique_ptrIN10prometheus9HistogramESt14default_deleteIS5_EEEE4_M_vEv' type='func-type' binding='weak-binding' visibility='default-visibility' is-defined='yes'/>
    <elf-symbol name='_ZNKSt8__detail21_Hash_node_value_baseISt4pairIKmSt10unique_ptrIN10prometheus9HistogramESt14default_deleteIS5_EEEE9_M_valptrEv' type='func-type' binding='weak-binding' visibility='default-visibility' is-defined='yes'/>
    <elf-symbol name='_ZNKSt8__detail21_Hash_node_value_baseISt4pairIKmSt3mapINSt7__cxx1112basic_stringIcSt11char_traitsIcESaIcEEES9_St4lessIS9_ESaIS1_IKS9_S9_EEEEE4_M_vEv' type='func-type' binding='weak-binding' visibility='default-visibility' is-defined='yes'/>
    <elf-symbol name='_ZNKSt8__detail21_Hash_node_value_baseISt4pairIKmSt3mapINSt7__cxx1112basic_stringIcSt11char_traitsIcESaIcEEES9_St4lessIS9_ESaIS1_IKS9_S9_EEEEE9_M_valptrEv' type='func-type' binding='weak-binding' visibility='default-visibility' is-defined='yes'/>
    <elf-symbol name='_ZNKSt8__detail9_Map_baseImSt4pairIKmSt3mapINSt7__cxx1112basic_stringIcSt11char_traitsIcESaIcEEES9_St4lessIS9_ESaIS1_IKS9_S9_EEEESaISG_ENS_10_Select1stESt8equal_toImESt4hashImENS_18_Mod_range_hashingENS_20_Default_ranged_hashENS_20_Prime_rehash_policyENS_17_Hashtable_traitsILb0ELb0ELb1EEELb1EE2atERS2_' type='func-type' binding='weak-binding' visibility='default-visibility' is-defined='yes'/>
    <elf-symbol name='_ZNKSt8equal_toIPN10prometheus5GaugeEEclERKS2_S5_' type='func-type' binding='weak-binding' visibility='default-visibility' is-defined='yes'/>
    <elf-symbol name='_ZNKSt8equal_toIPN10prometheus7CounterEEclERKS2_S5_' type='func-type' binding='weak-binding' visibility='default-visibility' is-defined='yes'/>
    <elf-symbol name='_ZNKSt8equal_toIPN10prometheus7SummaryEEclERKS2_S5_' type='func-type' binding='weak-binding' visibility='default-visibility' is-defined='yes'/>
    <elf-symbol name='_ZNKSt8equal_toIPN10prometheus9HistogramEEclERKS2_S5_' type='func-type' binding='weak-binding' visibility='default-visibility' is-defined='yes'/>
    <elf-symbol name='_ZNKSt8equal_toImEclERKmS2_' type='func-type' binding='weak-binding' visibility='default-visibility' is-defined='yes'/>
    <elf-symbol name='_ZNSaIN10prometheus12ClientMetric5LabelEEC1ERKS2_' type='func-type' binding='weak-binding' visibility='default-visibility' alias='_ZNSaIN10prometheus12ClientMetric5LabelEEC2ERKS2_' is-defined='yes'/>
    <elf-symbol name='_ZNSaIN10prometheus12ClientMetric5LabelEEC1Ev' type='func-type' binding='weak-binding' visibility='default-visibility' alias='_ZNSaIN10prometheus12ClientMetric5LabelEEC2Ev' is-defined='yes'/>
    <elf-symbol name='_ZNSaIN10prometheus12ClientMetric5LabelEEC2ERKS2_' type='func-type' binding='weak-binding' visibility='default-visibility' is-defined='yes'/>
    <elf-symbol name='_ZNSaIN10prometheus12ClientMetric5LabelEEC2Ev' type='func-type' binding='weak-binding' visibility='default-visibility' is-defined='yes'/>
    <elf-symbol name='_ZNSaIN10prometheus12ClientMetric5LabelEED1Ev' type='func-type' binding='weak-binding' visibility='default-visibility' is-defined='yes'/>
    <elf-symbol name='_ZNSaIN10prometheus12ClientMetric5LabelEED2Ev' type='func-type' binding='weak-binding' visibility='default-visibility' alias='_ZNSaIN10prometheus12ClientMetric5LabelEED1Ev' is-defined='yes'/>
    <elf-symbol name='_ZNSaIN10prometheus12ClientMetric6BucketEEC1ERKS2_' type='func-type' binding='weak-binding' visibility='default-visibility' is-defined='yes'/>
    <elf-symbol name='_ZNSaIN10prometheus12ClientMetric6BucketEEC1Ev' type='func-type' binding='weak-binding' visibility='default-visibility' alias='_ZNSaIN10prometheus12ClientMetric6BucketEEC2Ev' is-defined='yes'/>
    <elf-symbol name='_ZNSaIN10prometheus12ClientMetric6BucketEEC2ERKS2_' type='func-type' binding='weak-binding' visibility='default-visibility' alias='_ZNSaIN10prometheus12ClientMetric6BucketEEC1ERKS2_' is-defined='yes'/>
    <elf-symbol name='_ZNSaIN10prometheus12ClientMetric6BucketEEC2Ev' type='func-type' binding='weak-binding' visibility='default-visibility' is-defined='yes'/>
    <elf-symbol name='_ZNSaIN10prometheus12ClientMetric6BucketEED1Ev' type='func-type' binding='weak-binding' visibility='default-visibility' is-defined='yes'/>
    <elf-symbol name='_ZNSaIN10prometheus12ClientMetric6BucketEED2Ev' type='func-type' binding='weak-binding' visibility='default-visibility' alias='_ZNSaIN10prometheus12ClientMetric6BucketEED1Ev' is-defined='yes'/>
    <elf-symbol name='_ZNSaIN10prometheus12ClientMetric8QuantileEEC1ERKS2_' type='func-type' binding='weak-binding' visibility='default-visibility' is-defined='yes'/>
    <elf-symbol name='_ZNSaIN10prometheus12ClientMetric8QuantileEEC1Ev' type='func-type' binding='weak-binding' visibility='default-visibility' alias='_ZNSaIN10prometheus12ClientMetric8QuantileEEC2Ev' is-defined='yes'/>
    <elf-symbol name='_ZNSaIN10prometheus12ClientMetric8QuantileEEC2ERKS2_' type='func-type' binding='weak-binding' visibility='default-visibility' alias='_ZNSaIN10prometheus12ClientMetric8QuantileEEC1ERKS2_' is-defined='yes'/>
    <elf-symbol name='_ZNSaIN10prometheus12ClientMetric8QuantileEEC2Ev' type='func-type' binding='weak-binding' visibility='default-visibility' is-defined='yes'/>
    <elf-symbol name='_ZNSaIN10prometheus12ClientMetric8QuantileEED1Ev' type='func-type' binding='weak-binding' visibility='default-visibility' is-defined='yes'/>
    <elf-symbol name='_ZNSaIN10prometheus12ClientMetric8QuantileEED2Ev' type='func-type' binding='weak-binding' visibility='default-visibility' alias='_ZNSaIN10prometheus12ClientMetric8QuantileEED1Ev' is-defined='yes'/>
    <elf-symbol name='_ZNSaIN10prometheus12ClientMetricEEC1ERKS1_' type='func-type' binding='weak-binding' visibility='default-visibility' is-defined='yes'/>
    <elf-symbol name='_ZNSaIN10prometheus12ClientMetricEEC1Ev' type='func-type' binding='weak-binding' visibility='default-visibility' alias='_ZNSaIN10prometheus12ClientMetricEEC2Ev' is-defined='yes'/>
    <elf-symbol name='_ZNSaIN10prometheus12ClientMetricEEC2ERKS1_' type='func-type' binding='weak-binding' visibility='default-visibility' alias='_ZNSaIN10prometheus12ClientMetricEEC1ERKS1_' is-defined='yes'/>
    <elf-symbol name='_ZNSaIN10prometheus12ClientMetricEEC2Ev' type='func-type' binding='weak-binding' visibility='default-visibility' is-defined='yes'/>
    <elf-symbol name='_ZNSaIN10prometheus12ClientMetricEED1Ev' type='func-type' binding='weak-binding' visibility='default-visibility' is-defined='yes'/>
    <elf-symbol name='_ZNSaIN10prometheus12ClientMetricEED2Ev' type='func-type' binding='weak-binding' visibility='default-visibility' alias='_ZNSaIN10prometheus12ClientMetricEED1Ev' is-defined='yes'/>
    <elf-symbol name='_ZNSaIN10prometheus12MetricFamilyEEC1ERKS1_' type='func-type' binding='weak-binding' visibility='default-visibility' is-defined='yes'/>
    <elf-symbol name='_ZNSaIN10prometheus12MetricFamilyEEC1Ev' type='func-type' binding='weak-binding' visibility='default-visibility' alias='_ZNSaIN10prometheus12MetricFamilyEEC2Ev' is-defined='yes'/>
    <elf-symbol name='_ZNSaIN10prometheus12MetricFamilyEEC2ERKS1_' type='func-type' binding='weak-binding' visibility='default-visibility' alias='_ZNSaIN10prometheus12MetricFamilyEEC1ERKS1_' is-defined='yes'/>
    <elf-symbol name='_ZNSaIN10prometheus12MetricFamilyEEC2Ev' type='func-type' binding='weak-binding' visibility='default-visibility' is-defined='yes'/>
    <elf-symbol name='_ZNSaIN10prometheus12MetricFamilyEED1Ev' type='func-type' binding='weak-binding' visibility='default-visibility' is-defined='yes'/>
    <elf-symbol name='_ZNSaIN10prometheus12MetricFamilyEED2Ev' type='func-type' binding='weak-binding' visibility='default-visibility' alias='_ZNSaIN10prometheus12MetricFamilyEED1Ev' is-defined='yes'/>
    <elf-symbol name='_ZNSaIN10prometheus6detail13CKMSQuantiles4ItemEEC1ERKS3_' type='func-type' binding='weak-binding' visibility='default-visibility' is-defined='yes'/>
    <elf-symbol name='_ZNSaIN10prometheus6detail13CKMSQuantiles4ItemEEC1Ev' type='func-type' binding='weak-binding' visibility='default-visibility' is-defined='yes'/>
    <elf-symbol name='_ZNSaIN10prometheus6detail13CKMSQuantiles4ItemEEC2ERKS3_' type='func-type' binding='weak-binding' visibility='default-visibility' alias='_ZNSaIN10prometheus6detail13CKMSQuantiles4ItemEEC1ERKS3_' is-defined='yes'/>
    <elf-symbol name='_ZNSaIN10prometheus6detail13CKMSQuantiles4ItemEEC2Ev' type='func-type' binding='weak-binding' visibility='default-visibility' alias='_ZNSaIN10prometheus6detail13CKMSQuantiles4ItemEEC1Ev' is-defined='yes'/>
    <elf-symbol name='_ZNSaIN10prometheus6detail13CKMSQuantiles4ItemEED1Ev' type='func-type' binding='weak-binding' visibility='default-visibility' alias='_ZNSaIN10prometheus6detail13CKMSQuantiles4ItemEED2Ev' is-defined='yes'/>
    <elf-symbol name='_ZNSaIN10prometheus6detail13CKMSQuantiles4ItemEED2Ev' type='func-type' binding='weak-binding' visibility='default-visibility' is-defined='yes'/>
    <elf-symbol name='_ZNSaIN10prometheus6detail13CKMSQuantiles8QuantileEEC1ERKS3_' type='func-type' binding='weak-binding' visibility='default-visibility' alias='_ZNSaIN10prometheus6detail13CKMSQuantiles8QuantileEEC2ERKS3_' is-defined='yes'/>
    <elf-symbol name='_ZNSaIN10prometheus6detail13CKMSQuantiles8QuantileEEC2ERKS3_' type='func-type' binding='weak-binding' visibility='default-visibility' is-defined='yes'/>
    <elf-symbol name='_ZNSaIN10prometheus6detail13CKMSQuantiles8QuantileEED1Ev' type='func-type' binding='weak-binding' visibility='default-visibility' alias='_ZNSaIN10prometheus6detail13CKMSQuantiles8QuantileEED2Ev' is-defined='yes'/>
    <elf-symbol name='_ZNSaIN10prometheus6detail13CKMSQuantiles8QuantileEED2Ev' type='func-type' binding='weak-binding' visibility='default-visibility' is-defined='yes'/>
    <elf-symbol name='_ZNSaIN10prometheus6detail13CKMSQuantilesEEC1ERKS2_' type='func-type' binding='weak-binding' visibility='default-visibility' is-defined='yes'/>
    <elf-symbol name='_ZNSaIN10prometheus6detail13CKMSQuantilesEEC1Ev' type='func-type' binding='weak-binding' visibility='default-visibility' alias='_ZNSaIN10prometheus6detail13CKMSQuantilesEEC2Ev' is-defined='yes'/>
    <elf-symbol name='_ZNSaIN10prometheus6detail13CKMSQuantilesEEC2ERKS2_' type='func-type' binding='weak-binding' visibility='default-visibility' alias='_ZNSaIN10prometheus6detail13CKMSQuantilesEEC1ERKS2_' is-defined='yes'/>
    <elf-symbol name='_ZNSaIN10prometheus6detail13CKMSQuantilesEEC2Ev' type='func-type' binding='weak-binding' visibility='default-visibility' is-defined='yes'/>
    <elf-symbol name='_ZNSaIN10prometheus6detail13CKMSQuantilesEED1Ev' type='func-type' binding='weak-binding' visibility='default-visibility' is-defined='yes'/>
    <elf-symbol name='_ZNSaIN10prometheus6detail13CKMSQuantilesEED2Ev' type='func-type' binding='weak-binding' visibility='default-visibility' alias='_ZNSaIN10prometheus6detail13CKMSQuantilesEED1Ev' is-defined='yes'/>
    <elf-symbol name='_ZNSaIN10prometheus7CounterEEC1ERKS1_' type='func-type' binding='weak-binding' visibility='default-visibility' alias='_ZNSaIN10prometheus7CounterEEC2ERKS1_' is-defined='yes'/>
    <elf-symbol name='_ZNSaIN10prometheus7CounterEEC1Ev' type='func-type' binding='weak-binding' visibility='default-visibility' alias='_ZNSaIN10prometheus7CounterEEC2Ev' is-defined='yes'/>
    <elf-symbol name='_ZNSaIN10prometheus7CounterEEC2ERKS1_' type='func-type' binding='weak-binding' visibility='default-visibility' is-defined='yes'/>
    <elf-symbol name='_ZNSaIN10prometheus7CounterEEC2Ev' type='func-type' binding='weak-binding' visibility='default-visibility' is-defined='yes'/>
    <elf-symbol name='_ZNSaIN10prometheus7CounterEED1Ev' type='func-type' binding='weak-binding' visibility='default-visibility' is-defined='yes'/>
    <elf-symbol name='_ZNSaIN10prometheus7CounterEED2Ev' type='func-type' binding='weak-binding' visibility='default-visibility' alias='_ZNSaIN10prometheus7CounterEED1Ev' is-defined='yes'/>
    <elf-symbol name='_ZNSaINSt8__detail10_Hash_nodeISt4pairIKPN10prometheus5GaugeEmELb0EEEEC1Ev' type='func-type' binding='weak-binding' visibility='default-visibility' alias='_ZNSaINSt8__detail10_Hash_nodeISt4pairIKPN10prometheus5GaugeEmELb0EEEEC2Ev' is-defined='yes'/>
    <elf-symbol name='_ZNSaINSt8__detail10_Hash_nodeISt4pairIKPN10prometheus5GaugeEmELb0EEEEC2Ev' type='func-type' binding='weak-binding' visibility='default-visibility' is-defined='yes'/>
    <elf-symbol name='_ZNSaINSt8__detail10_Hash_nodeISt4pairIKPN10prometheus5GaugeEmELb0EEEED1Ev' type='func-type' binding='weak-binding' visibility='default-visibility' is-defined='yes'/>
    <elf-symbol name='_ZNSaINSt8__detail10_Hash_nodeISt4pairIKPN10prometheus5GaugeEmELb0EEEED2Ev' type='func-type' binding='weak-binding' visibility='default-visibility' alias='_ZNSaINSt8__detail10_Hash_nodeISt4pairIKPN10prometheus5GaugeEmELb0EEEED1Ev' is-defined='yes'/>
    <elf-symbol name='_ZNSaINSt8__detail10_Hash_nodeISt4pairIKPN10prometheus7CounterEmELb0EEEEC1Ev' type='func-type' binding='weak-binding' visibility='default-visibility' alias='_ZNSaINSt8__detail10_Hash_nodeISt4pairIKPN10prometheus7CounterEmELb0EEEEC2Ev' is-defined='yes'/>
    <elf-symbol name='_ZNSaINSt8__detail10_Hash_nodeISt4pairIKPN10prometheus7CounterEmELb0EEEEC2Ev' type='func-type' binding='weak-binding' visibility='default-visibility' is-defined='yes'/>
    <elf-symbol name='_ZNSaINSt8__detail10_Hash_nodeISt4pairIKPN10prometheus7CounterEmELb0EEEED1Ev' type='func-type' binding='weak-binding' visibility='default-visibility' is-defined='yes'/>
    <elf-symbol name='_ZNSaINSt8__detail10_Hash_nodeISt4pairIKPN10prometheus7CounterEmELb0EEEED2Ev' type='func-type' binding='weak-binding' visibility='default-visibility' alias='_ZNSaINSt8__detail10_Hash_nodeISt4pairIKPN10prometheus7CounterEmELb0EEEED1Ev' is-defined='yes'/>
    <elf-symbol name='_ZNSaINSt8__detail10_Hash_nodeISt4pairIKPN10prometheus7SummaryEmELb0EEEEC1Ev' type='func-type' binding='weak-binding' visibility='default-visibility' alias='_ZNSaINSt8__detail10_Hash_nodeISt4pairIKPN10prometheus7SummaryEmELb0EEEEC2Ev' is-defined='yes'/>
    <elf-symbol name='_ZNSaINSt8__detail10_Hash_nodeISt4pairIKPN10prometheus7SummaryEmELb0EEEEC2Ev' type='func-type' binding='weak-binding' visibility='default-visibility' is-defined='yes'/>
    <elf-symbol name='_ZNSaINSt8__detail10_Hash_nodeISt4pairIKPN10prometheus7SummaryEmELb0EEEED1Ev' type='func-type' binding='weak-binding' visibility='default-visibility' is-defined='yes'/>
    <elf-symbol name='_ZNSaINSt8__detail10_Hash_nodeISt4pairIKPN10prometheus7SummaryEmELb0EEEED2Ev' type='func-type' binding='weak-binding' visibility='default-visibility' alias='_ZNSaINSt8__detail10_Hash_nodeISt4pairIKPN10prometheus7SummaryEmELb0EEEED1Ev' is-defined='yes'/>
    <elf-symbol name='_ZNSaINSt8__detail10_Hash_nodeISt4pairIKPN10prometheus9HistogramEmELb0EEEEC1Ev' type='func-type' binding='weak-binding' visibility='default-visibility' is-defined='yes'/>
    <elf-symbol name='_ZNSaINSt8__detail10_Hash_nodeISt4pairIKPN10prometheus9HistogramEmELb0EEEEC2Ev' type='func-type' binding='weak-binding' visibility='default-visibility' alias='_ZNSaINSt8__detail10_Hash_nodeISt4pairIKPN10prometheus9HistogramEmELb0EEEEC1Ev' is-defined='yes'/>
    <elf-symbol name='_ZNSaINSt8__detail10_Hash_nodeISt4pairIKPN10prometheus9HistogramEmELb0EEEED1Ev' type='func-type' binding='weak-binding' visibility='default-visibility' alias='_ZNSaINSt8__detail10_Hash_nodeISt4pairIKPN10prometheus9HistogramEmELb0EEEED2Ev' is-defined='yes'/>
    <elf-symbol name='_ZNSaINSt8__detail10_Hash_nodeISt4pairIKPN10prometheus9HistogramEmELb0EEEED2Ev' type='func-type' binding='weak-binding' visibility='default-visibility' is-defined='yes'/>
    <elf-symbol name='_ZNSaINSt8__detail10_Hash_nodeISt4pairIKmSt10unique_ptrIN10prometheus5GaugeESt14default_deleteIS5_EEELb0EEEEC1Ev' type='func-type' binding='weak-binding' visibility='default-visibility' is-defined='yes'/>
    <elf-symbol name='_ZNSaINSt8__detail10_Hash_nodeISt4pairIKmSt10unique_ptrIN10prometheus5GaugeESt14default_deleteIS5_EEELb0EEEEC2Ev' type='func-type' binding='weak-binding' visibility='default-visibility' alias='_ZNSaINSt8__detail10_Hash_nodeISt4pairIKmSt10unique_ptrIN10prometheus5GaugeESt14default_deleteIS5_EEELb0EEEEC1Ev' is-defined='yes'/>
    <elf-symbol name='_ZNSaINSt8__detail10_Hash_nodeISt4pairIKmSt10unique_ptrIN10prometheus5GaugeESt14default_deleteIS5_EEELb0EEEED1Ev' type='func-type' binding='weak-binding' visibility='default-visibility' alias='_ZNSaINSt8__detail10_Hash_nodeISt4pairIKmSt10unique_ptrIN10prometheus5GaugeESt14default_deleteIS5_EEELb0EEEED2Ev' is-defined='yes'/>
    <elf-symbol name='_ZNSaINSt8__detail10_Hash_nodeISt4pairIKmSt10unique_ptrIN10prometheus5GaugeESt14default_deleteIS5_EEELb0EEEED2Ev' type='func-type' binding='weak-binding' visibility='default-visibility' is-defined='yes'/>
    <elf-symbol name='_ZNSaINSt8__detail10_Hash_nodeISt4pairIKmSt10unique_ptrIN10prometheus7CounterESt14default_deleteIS5_EEELb0EEEEC1Ev' type='func-type' binding='weak-binding' visibility='default-visibility' is-defined='yes'/>
    <elf-symbol name='_ZNSaINSt8__detail10_Hash_nodeISt4pairIKmSt10unique_ptrIN10prometheus7CounterESt14default_deleteIS5_EEELb0EEEEC2Ev' type='func-type' binding='weak-binding' visibility='default-visibility' alias='_ZNSaINSt8__detail10_Hash_nodeISt4pairIKmSt10unique_ptrIN10prometheus7CounterESt14default_deleteIS5_EEELb0EEEEC1Ev' is-defined='yes'/>
    <elf-symbol name='_ZNSaINSt8__detail10_Hash_nodeISt4pairIKmSt10unique_ptrIN10prometheus7CounterESt14default_deleteIS5_EEELb0EEEED1Ev' type='func-type' binding='weak-binding' visibility='default-visibility' alias='_ZNSaINSt8__detail10_Hash_nodeISt4pairIKmSt10unique_ptrIN10prometheus7CounterESt14default_deleteIS5_EEELb0EEEED2Ev' is-defined='yes'/>
    <elf-symbol name='_ZNSaINSt8__detail10_Hash_nodeISt4pairIKmSt10unique_ptrIN10prometheus7CounterESt14default_deleteIS5_EEELb0EEEED2Ev' type='func-type' binding='weak-binding' visibility='default-visibility' is-defined='yes'/>
    <elf-symbol name='_ZNSaINSt8__detail10_Hash_nodeISt4pairIKmSt10unique_ptrIN10prometheus7SummaryESt14default_deleteIS5_EEELb0EEEEC1Ev' type='func-type' binding='weak-binding' visibility='default-visibility' is-defined='yes'/>
    <elf-symbol name='_ZNSaINSt8__detail10_Hash_nodeISt4pairIKmSt10unique_ptrIN10prometheus7SummaryESt14default_deleteIS5_EEELb0EEEEC2Ev' type='func-type' binding='weak-binding' visibility='default-visibility' alias='_ZNSaINSt8__detail10_Hash_nodeISt4pairIKmSt10unique_ptrIN10prometheus7SummaryESt14default_deleteIS5_EEELb0EEEEC1Ev' is-defined='yes'/>
    <elf-symbol name='_ZNSaINSt8__detail10_Hash_nodeISt4pairIKmSt10unique_ptrIN10prometheus7SummaryESt14default_deleteIS5_EEELb0EEEED1Ev' type='func-type' binding='weak-binding' visibility='default-visibility' alias='_ZNSaINSt8__detail10_Hash_nodeISt4pairIKmSt10unique_ptrIN10prometheus7SummaryESt14default_deleteIS5_EEELb0EEEED2Ev' is-defined='yes'/>
    <elf-symbol name='_ZNSaINSt8__detail10_Hash_nodeISt4pairIKmSt10unique_ptrIN10prometheus7SummaryESt14default_deleteIS5_EEELb0EEEED2Ev' type='func-type' binding='weak-binding' visibility='default-visibility' is-defined='yes'/>
    <elf-symbol name='_ZNSaINSt8__detail10_Hash_nodeISt4pairIKmSt10unique_ptrIN10prometheus9HistogramESt14default_deleteIS5_EEELb0EEEEC1Ev' type='func-type' binding='weak-binding' visibility='default-visibility' alias='_ZNSaINSt8__detail10_Hash_nodeISt4pairIKmSt10unique_ptrIN10prometheus9HistogramESt14default_deleteIS5_EEELb0EEEEC2Ev' is-defined='yes'/>
    <elf-symbol name='_ZNSaINSt8__detail10_Hash_nodeISt4pairIKmSt10unique_ptrIN10prometheus9HistogramESt14default_deleteIS5_EEELb0EEEEC2Ev' type='func-type' binding='weak-binding' visibility='default-visibility' is-defined='yes'/>
    <elf-symbol name='_ZNSaINSt8__detail10_Hash_nodeISt4pairIKmSt10unique_ptrIN10prometheus9HistogramESt14default_deleteIS5_EEELb0EEEED1Ev' type='func-type' binding='weak-binding' visibility='default-visibility' is-defined='yes'/>
    <elf-symbol name='_ZNSaINSt8__detail10_Hash_nodeISt4pairIKmSt10unique_ptrIN10prometheus9HistogramESt14default_deleteIS5_EEELb0EEEED2Ev' type='func-type' binding='weak-binding' visibility='default-visibility' alias='_ZNSaINSt8__detail10_Hash_nodeISt4pairIKmSt10unique_ptrIN10prometheus9HistogramESt14default_deleteIS5_EEELb0EEEED1Ev' is-defined='yes'/>
    <elf-symbol name='_ZNSaINSt8__detail10_Hash_nodeISt4pairIKmSt3mapINSt7__cxx1112basic_stringIcSt11char_traitsIcESaIcEEES9_St4lessIS9_ESaIS1_IKS9_S9_EEEELb0EEEEC1Ev' type='func-type' binding='weak-binding' visibility='default-visibility' alias='_ZNSaINSt8__detail10_Hash_nodeISt4pairIKmSt3mapINSt7__cxx1112basic_stringIcSt11char_traitsIcESaIcEEES9_St4lessIS9_ESaIS1_IKS9_S9_EEEELb0EEEEC2Ev' is-defined='yes'/>
    <elf-symbol name='_ZNSaINSt8__detail10_Hash_nodeISt4pairIKmSt3mapINSt7__cxx1112basic_stringIcSt11char_traitsIcESaIcEEES9_St4lessIS9_ESaIS1_IKS9_S9_EEEELb0EEEEC2Ev' type='func-type' binding='weak-binding' visibility='default-visibility' is-defined='yes'/>
    <elf-symbol name='_ZNSaINSt8__detail10_Hash_nodeISt4pairIKmSt3mapINSt7__cxx1112basic_stringIcSt11char_traitsIcESaIcEEES9_St4lessIS9_ESaIS1_IKS9_S9_EEEELb0EEEED1Ev' type='func-type' binding='weak-binding' visibility='default-visibility' is-defined='yes'/>
    <elf-symbol name='_ZNSaINSt8__detail10_Hash_nodeISt4pairIKmSt3mapINSt7__cxx1112basic_stringIcSt11char_traitsIcESaIcEEES9_St4lessIS9_ESaIS1_IKS9_S9_EEEELb0EEEED2Ev' type='func-type' binding='weak-binding' visibility='default-visibility' alias='_ZNSaINSt8__detail10_Hash_nodeISt4pairIKmSt3mapINSt7__cxx1112basic_stringIcSt11char_traitsIcESaIcEEES9_St4lessIS9_ESaIS1_IKS9_S9_EEEELb0EEEED1Ev' is-defined='yes'/>
    <elf-symbol name='_ZNSaIPNSt8__detail15_Hash_node_baseEEC1INS_10_Hash_nodeISt4pairIKPN10prometheus5GaugeEmELb0EEEEERKSaIT_E' type='func-type' binding='weak-binding' visibility='default-visibility' alias='_ZNSaIPNSt8__detail15_Hash_node_baseEEC2INS_10_Hash_nodeISt4pairIKPN10prometheus5GaugeEmELb0EEEEERKSaIT_E' is-defined='yes'/>
    <elf-symbol name='_ZNSaIPNSt8__detail15_Hash_node_baseEEC1INS_10_Hash_nodeISt4pairIKPN10prometheus7CounterEmELb0EEEEERKSaIT_E' type='func-type' binding='weak-binding' visibility='default-visibility' is-defined='yes'/>
    <elf-symbol name='_ZNSaIPNSt8__detail15_Hash_node_baseEEC1INS_10_Hash_nodeISt4pairIKPN10prometheus7SummaryEmELb0EEEEERKSaIT_E' type='func-type' binding='weak-binding' visibility='default-visibility' alias='_ZNSaIPNSt8__detail15_Hash_node_baseEEC2INS_10_Hash_nodeISt4pairIKPN10prometheus7SummaryEmELb0EEEEERKSaIT_E' is-defined='yes'/>
    <elf-symbol name='_ZNSaIPNSt8__detail15_Hash_node_baseEEC1INS_10_Hash_nodeISt4pairIKPN10prometheus9HistogramEmELb0EEEEERKSaIT_E' type='func-type' binding='weak-binding' visibility='default-visibility' alias='_ZNSaIPNSt8__detail15_Hash_node_baseEEC2INS_10_Hash_nodeISt4pairIKPN10prometheus9HistogramEmELb0EEEEERKSaIT_E' is-defined='yes'/>
    <elf-symbol name='_ZNSaIPNSt8__detail15_Hash_node_baseEEC1INS_10_Hash_nodeISt4pairIKmSt10unique_ptrIN10prometheus5GaugeESt14default_deleteIS9_EEELb0EEEEERKSaIT_E' type='func-type' binding='weak-binding' visibility='default-visibility' is-defined='yes'/>
    <elf-symbol name='_ZNSaIPNSt8__detail15_Hash_node_baseEEC1INS_10_Hash_nodeISt4pairIKmSt10unique_ptrIN10prometheus7CounterESt14default_deleteIS9_EEELb0EEEEERKSaIT_E' type='func-type' binding='weak-binding' visibility='default-visibility' is-defined='yes'/>
    <elf-symbol name='_ZNSaIPNSt8__detail15_Hash_node_baseEEC1INS_10_Hash_nodeISt4pairIKmSt10unique_ptrIN10prometheus7SummaryESt14default_deleteIS9_EEELb0EEEEERKSaIT_E' type='func-type' binding='weak-binding' visibility='default-visibility' is-defined='yes'/>
    <elf-symbol name='_ZNSaIPNSt8__detail15_Hash_node_baseEEC1INS_10_Hash_nodeISt4pairIKmSt10unique_ptrIN10prometheus9HistogramESt14default_deleteIS9_EEELb0EEEEERKSaIT_E' type='func-type' binding='weak-binding' visibility='default-visibility' is-defined='yes'/>
    <elf-symbol name='_ZNSaIPNSt8__detail15_Hash_node_baseEEC1INS_10_Hash_nodeISt4pairIKmSt3mapINSt7__cxx1112basic_stringIcSt11char_traitsIcESaIcEEESD_St4lessISD_ESaIS5_IKSD_SD_EEEELb0EEEEERKSaIT_E' type='func-type' binding='weak-binding' visibility='default-visibility' is-defined='yes'/>
    <elf-symbol name='_ZNSaIPNSt8__detail15_Hash_node_baseEEC2INS_10_Hash_nodeISt4pairIKPN10prometheus5GaugeEmELb0EEEEERKSaIT_E' type='func-type' binding='weak-binding' visibility='default-visibility' is-defined='yes'/>
    <elf-symbol name='_ZNSaIPNSt8__detail15_Hash_node_baseEEC2INS_10_Hash_nodeISt4pairIKPN10prometheus7CounterEmELb0EEEEERKSaIT_E' type='func-type' binding='weak-binding' visibility='default-visibility' alias='_ZNSaIPNSt8__detail15_Hash_node_baseEEC1INS_10_Hash_nodeISt4pairIKPN10prometheus7CounterEmELb0EEEEERKSaIT_E' is-defined='yes'/>
    <elf-symbol name='_ZNSaIPNSt8__detail15_Hash_node_baseEEC2INS_10_Hash_nodeISt4pairIKPN10prometheus7SummaryEmELb0EEEEERKSaIT_E' type='func-type' binding='weak-binding' visibility='default-visibility' is-defined='yes'/>
    <elf-symbol name='_ZNSaIPNSt8__detail15_Hash_node_baseEEC2INS_10_Hash_nodeISt4pairIKPN10prometheus9HistogramEmELb0EEEEERKSaIT_E' type='func-type' binding='weak-binding' visibility='default-visibility' is-defined='yes'/>
    <elf-symbol name='_ZNSaIPNSt8__detail15_Hash_node_baseEEC2INS_10_Hash_nodeISt4pairIKmSt10unique_ptrIN10prometheus5GaugeESt14default_deleteIS9_EEELb0EEEEERKSaIT_E' type='func-type' binding='weak-binding' visibility='default-visibility' alias='_ZNSaIPNSt8__detail15_Hash_node_baseEEC1INS_10_Hash_nodeISt4pairIKmSt10unique_ptrIN10prometheus5GaugeESt14default_deleteIS9_EEELb0EEEEERKSaIT_E' is-defined='yes'/>
    <elf-symbol name='_ZNSaIPNSt8__detail15_Hash_node_baseEEC2INS_10_Hash_nodeISt4pairIKmSt10unique_ptrIN10prometheus7CounterESt14default_deleteIS9_EEELb0EEEEERKSaIT_E' type='func-type' binding='weak-binding' visibility='default-visibility' alias='_ZNSaIPNSt8__detail15_Hash_node_baseEEC1INS_10_Hash_nodeISt4pairIKmSt10unique_ptrIN10prometheus7CounterESt14default_deleteIS9_EEELb0EEEEERKSaIT_E' is-defined='yes'/>
    <elf-symbol name='_ZNSaIPNSt8__detail15_Hash_node_baseEEC2INS_10_Hash_nodeISt4pairIKmSt10unique_ptrIN10prometheus7SummaryESt14default_deleteIS9_EEELb0EEEEERKSaIT_E' type='func-type' binding='weak-binding' visibility='default-visibility' alias='_ZNSaIPNSt8__detail15_Hash_node_baseEEC1INS_10_Hash_nodeISt4pairIKmSt10unique_ptrIN10prometheus7SummaryESt14default_deleteIS9_EEELb0EEEEERKSaIT_E' is-defined='yes'/>
    <elf-symbol name='_ZNSaIPNSt8__detail15_Hash_node_baseEEC2INS_10_Hash_nodeISt4pairIKmSt10unique_ptrIN10prometheus9HistogramESt14default_deleteIS9_EEELb0EEEEERKSaIT_E' type='func-type' binding='weak-binding' visibility='default-visibility' alias='_ZNSaIPNSt8__detail15_Hash_node_baseEEC1INS_10_Hash_nodeISt4pairIKmSt10unique_ptrIN10prometheus9HistogramESt14default_deleteIS9_EEELb0EEEEERKSaIT_E' is-defined='yes'/>
    <elf-symbol name='_ZNSaIPNSt8__detail15_Hash_node_baseEEC2INS_10_Hash_nodeISt4pairIKmSt3mapINSt7__cxx1112basic_stringIcSt11char_traitsIcESaIcEEESD_St4lessISD_ESaIS5_IKSD_SD_EEEELb0EEEEERKSaIT_E' type='func-type' binding='weak-binding' visibility='default-visibility' alias='_ZNSaIPNSt8__detail15_Hash_node_baseEEC1INS_10_Hash_nodeISt4pairIKmSt3mapINSt7__cxx1112basic_stringIcSt11char_traitsIcESaIcEEESD_St4lessISD_ESaIS5_IKSD_SD_EEEELb0EEEEERKSaIT_E' is-defined='yes'/>
    <elf-symbol name='_ZNSaIPNSt8__detail15_Hash_node_baseEED1Ev' type='func-type' binding='weak-binding' visibility='default-visibility' alias='_ZNSaIPNSt8__detail15_Hash_node_baseEED2Ev' is-defined='yes'/>
    <elf-symbol name='_ZNSaIPNSt8__detail15_Hash_node_baseEED2Ev' type='func-type' binding='weak-binding' visibility='default-visibility' is-defined='yes'/>
    <elf-symbol name='_ZNSaISt13_Rb_tree_nodeISt4pairIKNSt7__cxx1112basic_stringIcSt11char_traitsIcESaIcEEES6_EEEC1ERKSA_' type='func-type' binding='weak-binding' visibility='default-visibility' alias='_ZNSaISt13_Rb_tree_nodeISt4pairIKNSt7__cxx1112basic_stringIcSt11char_traitsIcESaIcEEES6_EEEC2ERKSA_' is-defined='yes'/>
    <elf-symbol name='_ZNSaISt13_Rb_tree_nodeISt4pairIKNSt7__cxx1112basic_stringIcSt11char_traitsIcESaIcEEES6_EEEC1Ev' type='func-type' binding='weak-binding' visibility='default-visibility' is-defined='yes'/>
    <elf-symbol name='_ZNSaISt13_Rb_tree_nodeISt4pairIKNSt7__cxx1112basic_stringIcSt11char_traitsIcESaIcEEES6_EEEC2ERKSA_' type='func-type' binding='weak-binding' visibility='default-visibility' is-defined='yes'/>
    <elf-symbol name='_ZNSaISt13_Rb_tree_nodeISt4pairIKNSt7__cxx1112basic_stringIcSt11char_traitsIcESaIcEEES6_EEEC2Ev' type='func-type' binding='weak-binding' visibility='default-visibility' alias='_ZNSaISt13_Rb_tree_nodeISt4pairIKNSt7__cxx1112basic_stringIcSt11char_traitsIcESaIcEEES6_EEEC1Ev' is-defined='yes'/>
    <elf-symbol name='_ZNSaISt13_Rb_tree_nodeISt4pairIKNSt7__cxx1112basic_stringIcSt11char_traitsIcESaIcEEES6_EEED1Ev' type='func-type' binding='weak-binding' visibility='default-visibility' alias='_ZNSaISt13_Rb_tree_nodeISt4pairIKNSt7__cxx1112basic_stringIcSt11char_traitsIcESaIcEEES6_EEED2Ev' is-defined='yes'/>
    <elf-symbol name='_ZNSaISt13_Rb_tree_nodeISt4pairIKNSt7__cxx1112basic_stringIcSt11char_traitsIcESaIcEEES6_EEED2Ev' type='func-type' binding='weak-binding' visibility='default-visibility' is-defined='yes'/>
    <elf-symbol name='_ZNSaIdEC1ERKS_' type='func-type' binding='weak-binding' visibility='default-visibility' alias='_ZNSaIdEC2ERKS_' is-defined='yes'/>
    <elf-symbol name='_ZNSaIdEC2ERKS_' type='func-type' binding='weak-binding' visibility='default-visibility' is-defined='yes'/>
    <elf-symbol name='_ZNSaIdED1Ev' type='func-type' binding='weak-binding' visibility='default-visibility' alias='_ZNSaIdED2Ev' is-defined='yes'/>
    <elf-symbol name='_ZNSaIdED2Ev' type='func-type' binding='weak-binding' visibility='default-visibility' is-defined='yes'/>
    <elf-symbol name='_ZNSt10_HashtableIPN10prometheus5GaugeESt4pairIKS2_mESaIS5_ENSt8__detail10_Select1stESt8equal_toIS2_ESt4hashIS2_ENS7_18_Mod_range_hashingENS7_20_Default_ranged_hashENS7_20_Prime_rehash_policyENS7_17_Hashtable_traitsILb0ELb0ELb1EEEE10_M_emplaceIJS5_EEES3_INS7_14_Node_iteratorIS5_Lb0ELb0EEEbESt17integral_constantIbLb1EEDpOT_' type='func-type' binding='weak-binding' visibility='default-visibility' is-defined='yes'/>
    <elf-symbol name='_ZNSt10_HashtableIPN10prometheus5GaugeESt4pairIKS2_mESaIS5_ENSt8__detail10_Select1stESt8equal_toIS2_ESt4hashIS2_ENS7_18_Mod_range_hashingENS7_20_Default_ranged_hashENS7_20_Prime_rehash_policyENS7_17_Hashtable_traitsILb0ELb0ELb1EEEE13_M_rehash_auxEmSt17integral_constantIbLb1EE' type='func-type' binding='weak-binding' visibility='default-visibility' is-defined='yes'/>
    <elf-symbol name='_ZNSt10_HashtableIPN10prometheus5GaugeESt4pairIKS2_mESaIS5_ENSt8__detail10_Select1stESt8equal_toIS2_ESt4hashIS2_ENS7_18_Mod_range_hashingENS7_20_Default_ranged_hashENS7_20_Prime_rehash_policyENS7_17_Hashtable_traitsILb0ELb0ELb1EEEE19_M_allocate_bucketsEm' type='func-type' binding='weak-binding' visibility='default-visibility' is-defined='yes'/>
    <elf-symbol name='_ZNSt10_HashtableIPN10prometheus5GaugeESt4pairIKS2_mESaIS5_ENSt8__detail10_Select1stESt8equal_toIS2_ESt4hashIS2_ENS7_18_Mod_range_hashingENS7_20_Default_ranged_hashENS7_20_Prime_rehash_policyENS7_17_Hashtable_traitsILb0ELb0ELb1EEEE21_M_deallocate_bucketsEPPNS7_15_Hash_node_baseEm' type='func-type' binding='weak-binding' visibility='default-visibility' is-defined='yes'/>
    <elf-symbol name='_ZNSt10_HashtableIPN10prometheus5GaugeESt4pairIKS2_mESaIS5_ENSt8__detail10_Select1stESt8equal_toIS2_ESt4hashIS2_ENS7_18_Mod_range_hashingENS7_20_Default_ranged_hashENS7_20_Prime_rehash_policyENS7_17_Hashtable_traitsILb0ELb0ELb1EEEE21_M_deallocate_bucketsEv' type='func-type' binding='weak-binding' visibility='default-visibility' is-defined='yes'/>
    <elf-symbol name='_ZNSt10_HashtableIPN10prometheus5GaugeESt4pairIKS2_mESaIS5_ENSt8__detail10_Select1stESt8equal_toIS2_ESt4hashIS2_ENS7_18_Mod_range_hashingENS7_20_Default_ranged_hashENS7_20_Prime_rehash_policyENS7_17_Hashtable_traitsILb0ELb0ELb1EEEE21_M_insert_unique_nodeEmmPNS7_10_Hash_nodeIS5_Lb0EEEm' type='func-type' binding='weak-binding' visibility='default-visibility' is-defined='yes'/>
    <elf-symbol name='_ZNSt10_HashtableIPN10prometheus5GaugeESt4pairIKS2_mESaIS5_ENSt8__detail10_Select1stESt8equal_toIS2_ESt4hashIS2_ENS7_18_Mod_range_hashingENS7_20_Default_ranged_hashENS7_20_Prime_rehash_policyENS7_17_Hashtable_traitsILb0ELb0ELb1EEEE22_M_insert_bucket_beginEmPNS7_10_Hash_nodeIS5_Lb0EEE' type='func-type' binding='weak-binding' visibility='default-visibility' is-defined='yes'/>
    <elf-symbol name='_ZNSt10_HashtableIPN10prometheus5GaugeESt4pairIKS2_mESaIS5_ENSt8__detail10_Select1stESt8equal_toIS2_ESt4hashIS2_ENS7_18_Mod_range_hashingENS7_20_Default_ranged_hashENS7_20_Prime_rehash_policyENS7_17_Hashtable_traitsILb0ELb0ELb1EEEE22_M_remove_bucket_beginEmPNS7_10_Hash_nodeIS5_Lb0EEEm' type='func-type' binding='weak-binding' visibility='default-visibility' is-defined='yes'/>
    <elf-symbol name='_ZNSt10_HashtableIPN10prometheus5GaugeESt4pairIKS2_mESaIS5_ENSt8__detail10_Select1stESt8equal_toIS2_ESt4hashIS2_ENS7_18_Mod_range_hashingENS7_20_Default_ranged_hashENS7_20_Prime_rehash_policyENS7_17_Hashtable_traitsILb0ELb0ELb1EEEE5clearEv' type='func-type' binding='weak-binding' visibility='default-visibility' is-defined='yes'/>
    <elf-symbol name='_ZNSt10_HashtableIPN10prometheus5GaugeESt4pairIKS2_mESaIS5_ENSt8__detail10_Select1stESt8equal_toIS2_ESt4hashIS2_ENS7_18_Mod_range_hashingENS7_20_Default_ranged_hashENS7_20_Prime_rehash_policyENS7_17_Hashtable_traitsILb0ELb0ELb1EEEE5eraseERS4_' type='func-type' binding='weak-binding' visibility='default-visibility' is-defined='yes'/>
    <elf-symbol name='_ZNSt10_HashtableIPN10prometheus5GaugeESt4pairIKS2_mESaIS5_ENSt8__detail10_Select1stESt8equal_toIS2_ESt4hashIS2_ENS7_18_Mod_range_hashingENS7_20_Default_ranged_hashENS7_20_Prime_rehash_policyENS7_17_Hashtable_traitsILb0ELb0ELb1EEEE8_M_eraseESt17integral_constantIbLb1EERS4_' type='func-type' binding='weak-binding' visibility='default-visibility' is-defined='yes'/>
    <elf-symbol name='_ZNSt10_HashtableIPN10prometheus5GaugeESt4pairIKS2_mESaIS5_ENSt8__detail10_Select1stESt8equal_toIS2_ESt4hashIS2_ENS7_18_Mod_range_hashingENS7_20_Default_ranged_hashENS7_20_Prime_rehash_policyENS7_17_Hashtable_traitsILb0ELb0ELb1EEEE8_M_eraseEmPNS7_15_Hash_node_baseEPNS7_10_Hash_nodeIS5_Lb0EEE' type='func-type' binding='weak-binding' visibility='default-visibility' is-defined='yes'/>
    <elf-symbol name='_ZNSt10_HashtableIPN10prometheus5GaugeESt4pairIKS2_mESaIS5_ENSt8__detail10_Select1stESt8equal_toIS2_ESt4hashIS2_ENS7_18_Mod_range_hashingENS7_20_Default_ranged_hashENS7_20_Prime_rehash_policyENS7_17_Hashtable_traitsILb0ELb0ELb1EEEE9_M_rehashEmRKm' type='func-type' binding='weak-binding' visibility='default-visibility' is-defined='yes'/>
    <elf-symbol name='_ZNSt10_HashtableIPN10prometheus5GaugeESt4pairIKS2_mESaIS5_ENSt8__detail10_Select1stESt8equal_toIS2_ESt4hashIS2_ENS7_18_Mod_range_hashingENS7_20_Default_ranged_hashENS7_20_Prime_rehash_policyENS7_17_Hashtable_traitsILb0ELb0ELb1EEEED1Ev' type='func-type' binding='weak-binding' visibility='default-visibility' alias='_ZNSt10_HashtableIPN10prometheus5GaugeESt4pairIKS2_mESaIS5_ENSt8__detail10_Select1stESt8equal_toIS2_ESt4hashIS2_ENS7_18_Mod_range_hashingENS7_20_Default_ranged_hashENS7_20_Prime_rehash_policyENS7_17_Hashtable_traitsILb0ELb0ELb1EEEED2Ev' is-defined='yes'/>
    <elf-symbol name='_ZNSt10_HashtableIPN10prometheus5GaugeESt4pairIKS2_mESaIS5_ENSt8__detail10_Select1stESt8equal_toIS2_ESt4hashIS2_ENS7_18_Mod_range_hashingENS7_20_Default_ranged_hashENS7_20_Prime_rehash_policyENS7_17_Hashtable_traitsILb0ELb0ELb1EEEED2Ev' type='func-type' binding='weak-binding' visibility='default-visibility' is-defined='yes'/>
    <elf-symbol name='_ZNSt10_HashtableIPN10prometheus7CounterESt4pairIKS2_mESaIS5_ENSt8__detail10_Select1stESt8equal_toIS2_ESt4hashIS2_ENS7_18_Mod_range_hashingENS7_20_Default_ranged_hashENS7_20_Prime_rehash_policyENS7_17_Hashtable_traitsILb0ELb0ELb1EEEE10_M_emplaceIJS5_EEES3_INS7_14_Node_iteratorIS5_Lb0ELb0EEEbESt17integral_constantIbLb1EEDpOT_' type='func-type' binding='weak-binding' visibility='default-visibility' is-defined='yes'/>
    <elf-symbol name='_ZNSt10_HashtableIPN10prometheus7CounterESt4pairIKS2_mESaIS5_ENSt8__detail10_Select1stESt8equal_toIS2_ESt4hashIS2_ENS7_18_Mod_range_hashingENS7_20_Default_ranged_hashENS7_20_Prime_rehash_policyENS7_17_Hashtable_traitsILb0ELb0ELb1EEEE13_M_rehash_auxEmSt17integral_constantIbLb1EE' type='func-type' binding='weak-binding' visibility='default-visibility' is-defined='yes'/>
    <elf-symbol name='_ZNSt10_HashtableIPN10prometheus7CounterESt4pairIKS2_mESaIS5_ENSt8__detail10_Select1stESt8equal_toIS2_ESt4hashIS2_ENS7_18_Mod_range_hashingENS7_20_Default_ranged_hashENS7_20_Prime_rehash_policyENS7_17_Hashtable_traitsILb0ELb0ELb1EEEE19_M_allocate_bucketsEm' type='func-type' binding='weak-binding' visibility='default-visibility' is-defined='yes'/>
    <elf-symbol name='_ZNSt10_HashtableIPN10prometheus7CounterESt4pairIKS2_mESaIS5_ENSt8__detail10_Select1stESt8equal_toIS2_ESt4hashIS2_ENS7_18_Mod_range_hashingENS7_20_Default_ranged_hashENS7_20_Prime_rehash_policyENS7_17_Hashtable_traitsILb0ELb0ELb1EEEE21_M_deallocate_bucketsEPPNS7_15_Hash_node_baseEm' type='func-type' binding='weak-binding' visibility='default-visibility' is-defined='yes'/>
    <elf-symbol name='_ZNSt10_HashtableIPN10prometheus7CounterESt4pairIKS2_mESaIS5_ENSt8__detail10_Select1stESt8equal_toIS2_ESt4hashIS2_ENS7_18_Mod_range_hashingENS7_20_Default_ranged_hashENS7_20_Prime_rehash_policyENS7_17_Hashtable_traitsILb0ELb0ELb1EEEE21_M_deallocate_bucketsEv' type='func-type' binding='weak-binding' visibility='default-visibility' is-defined='yes'/>
    <elf-symbol name='_ZNSt10_HashtableIPN10prometheus7CounterESt4pairIKS2_mESaIS5_ENSt8__detail10_Select1stESt8equal_toIS2_ESt4hashIS2_ENS7_18_Mod_range_hashingENS7_20_Default_ranged_hashENS7_20_Prime_rehash_policyENS7_17_Hashtable_traitsILb0ELb0ELb1EEEE21_M_insert_unique_nodeEmmPNS7_10_Hash_nodeIS5_Lb0EEEm' type='func-type' binding='weak-binding' visibility='default-visibility' is-defined='yes'/>
    <elf-symbol name='_ZNSt10_HashtableIPN10prometheus7CounterESt4pairIKS2_mESaIS5_ENSt8__detail10_Select1stESt8equal_toIS2_ESt4hashIS2_ENS7_18_Mod_range_hashingENS7_20_Default_ranged_hashENS7_20_Prime_rehash_policyENS7_17_Hashtable_traitsILb0ELb0ELb1EEEE22_M_insert_bucket_beginEmPNS7_10_Hash_nodeIS5_Lb0EEE' type='func-type' binding='weak-binding' visibility='default-visibility' is-defined='yes'/>
    <elf-symbol name='_ZNSt10_HashtableIPN10prometheus7CounterESt4pairIKS2_mESaIS5_ENSt8__detail10_Select1stESt8equal_toIS2_ESt4hashIS2_ENS7_18_Mod_range_hashingENS7_20_Default_ranged_hashENS7_20_Prime_rehash_policyENS7_17_Hashtable_traitsILb0ELb0ELb1EEEE22_M_remove_bucket_beginEmPNS7_10_Hash_nodeIS5_Lb0EEEm' type='func-type' binding='weak-binding' visibility='default-visibility' is-defined='yes'/>
    <elf-symbol name='_ZNSt10_HashtableIPN10prometheus7CounterESt4pairIKS2_mESaIS5_ENSt8__detail10_Select1stESt8equal_toIS2_ESt4hashIS2_ENS7_18_Mod_range_hashingENS7_20_Default_ranged_hashENS7_20_Prime_rehash_policyENS7_17_Hashtable_traitsILb0ELb0ELb1EEEE5clearEv' type='func-type' binding='weak-binding' visibility='default-visibility' is-defined='yes'/>
    <elf-symbol name='_ZNSt10_HashtableIPN10prometheus7CounterESt4pairIKS2_mESaIS5_ENSt8__detail10_Select1stESt8equal_toIS2_ESt4hashIS2_ENS7_18_Mod_range_hashingENS7_20_Default_ranged_hashENS7_20_Prime_rehash_policyENS7_17_Hashtable_traitsILb0ELb0ELb1EEEE5eraseERS4_' type='func-type' binding='weak-binding' visibility='default-visibility' is-defined='yes'/>
    <elf-symbol name='_ZNSt10_HashtableIPN10prometheus7CounterESt4pairIKS2_mESaIS5_ENSt8__detail10_Select1stESt8equal_toIS2_ESt4hashIS2_ENS7_18_Mod_range_hashingENS7_20_Default_ranged_hashENS7_20_Prime_rehash_policyENS7_17_Hashtable_traitsILb0ELb0ELb1EEEE8_M_eraseESt17integral_constantIbLb1EERS4_' type='func-type' binding='weak-binding' visibility='default-visibility' is-defined='yes'/>
    <elf-symbol name='_ZNSt10_HashtableIPN10prometheus7CounterESt4pairIKS2_mESaIS5_ENSt8__detail10_Select1stESt8equal_toIS2_ESt4hashIS2_ENS7_18_Mod_range_hashingENS7_20_Default_ranged_hashENS7_20_Prime_rehash_policyENS7_17_Hashtable_traitsILb0ELb0ELb1EEEE8_M_eraseEmPNS7_15_Hash_node_baseEPNS7_10_Hash_nodeIS5_Lb0EEE' type='func-type' binding='weak-binding' visibility='default-visibility' is-defined='yes'/>
    <elf-symbol name='_ZNSt10_HashtableIPN10prometheus7CounterESt4pairIKS2_mESaIS5_ENSt8__detail10_Select1stESt8equal_toIS2_ESt4hashIS2_ENS7_18_Mod_range_hashingENS7_20_Default_ranged_hashENS7_20_Prime_rehash_policyENS7_17_Hashtable_traitsILb0ELb0ELb1EEEE9_M_rehashEmRKm' type='func-type' binding='weak-binding' visibility='default-visibility' is-defined='yes'/>
    <elf-symbol name='_ZNSt10_HashtableIPN10prometheus7CounterESt4pairIKS2_mESaIS5_ENSt8__detail10_Select1stESt8equal_toIS2_ESt4hashIS2_ENS7_18_Mod_range_hashingENS7_20_Default_ranged_hashENS7_20_Prime_rehash_policyENS7_17_Hashtable_traitsILb0ELb0ELb1EEEED1Ev' type='func-type' binding='weak-binding' visibility='default-visibility' is-defined='yes'/>
    <elf-symbol name='_ZNSt10_HashtableIPN10prometheus7CounterESt4pairIKS2_mESaIS5_ENSt8__detail10_Select1stESt8equal_toIS2_ESt4hashIS2_ENS7_18_Mod_range_hashingENS7_20_Default_ranged_hashENS7_20_Prime_rehash_policyENS7_17_Hashtable_traitsILb0ELb0ELb1EEEED2Ev' type='func-type' binding='weak-binding' visibility='default-visibility' alias='_ZNSt10_HashtableIPN10prometheus7CounterESt4pairIKS2_mESaIS5_ENSt8__detail10_Select1stESt8equal_toIS2_ESt4hashIS2_ENS7_18_Mod_range_hashingENS7_20_Default_ranged_hashENS7_20_Prime_rehash_policyENS7_17_Hashtable_traitsILb0ELb0ELb1EEEED1Ev' is-defined='yes'/>
    <elf-symbol name='_ZNSt10_HashtableIPN10prometheus7SummaryESt4pairIKS2_mESaIS5_ENSt8__detail10_Select1stESt8equal_toIS2_ESt4hashIS2_ENS7_18_Mod_range_hashingENS7_20_Default_ranged_hashENS7_20_Prime_rehash_policyENS7_17_Hashtable_traitsILb0ELb0ELb1EEEE10_M_emplaceIJS5_EEES3_INS7_14_Node_iteratorIS5_Lb0ELb0EEEbESt17integral_constantIbLb1EEDpOT_' type='func-type' binding='weak-binding' visibility='default-visibility' is-defined='yes'/>
    <elf-symbol name='_ZNSt10_HashtableIPN10prometheus7SummaryESt4pairIKS2_mESaIS5_ENSt8__detail10_Select1stESt8equal_toIS2_ESt4hashIS2_ENS7_18_Mod_range_hashingENS7_20_Default_ranged_hashENS7_20_Prime_rehash_policyENS7_17_Hashtable_traitsILb0ELb0ELb1EEEE13_M_rehash_auxEmSt17integral_constantIbLb1EE' type='func-type' binding='weak-binding' visibility='default-visibility' is-defined='yes'/>
    <elf-symbol name='_ZNSt10_HashtableIPN10prometheus7SummaryESt4pairIKS2_mESaIS5_ENSt8__detail10_Select1stESt8equal_toIS2_ESt4hashIS2_ENS7_18_Mod_range_hashingENS7_20_Default_ranged_hashENS7_20_Prime_rehash_policyENS7_17_Hashtable_traitsILb0ELb0ELb1EEEE19_M_allocate_bucketsEm' type='func-type' binding='weak-binding' visibility='default-visibility' is-defined='yes'/>
    <elf-symbol name='_ZNSt10_HashtableIPN10prometheus7SummaryESt4pairIKS2_mESaIS5_ENSt8__detail10_Select1stESt8equal_toIS2_ESt4hashIS2_ENS7_18_Mod_range_hashingENS7_20_Default_ranged_hashENS7_20_Prime_rehash_policyENS7_17_Hashtable_traitsILb0ELb0ELb1EEEE21_M_deallocate_bucketsEPPNS7_15_Hash_node_baseEm' type='func-type' binding='weak-binding' visibility='default-visibility' is-defined='yes'/>
    <elf-symbol name='_ZNSt10_HashtableIPN10prometheus7SummaryESt4pairIKS2_mESaIS5_ENSt8__detail10_Select1stESt8equal_toIS2_ESt4hashIS2_ENS7_18_Mod_range_hashingENS7_20_Default_ranged_hashENS7_20_Prime_rehash_policyENS7_17_Hashtable_traitsILb0ELb0ELb1EEEE21_M_deallocate_bucketsEv' type='func-type' binding='weak-binding' visibility='default-visibility' is-defined='yes'/>
    <elf-symbol name='_ZNSt10_HashtableIPN10prometheus7SummaryESt4pairIKS2_mESaIS5_ENSt8__detail10_Select1stESt8equal_toIS2_ESt4hashIS2_ENS7_18_Mod_range_hashingENS7_20_Default_ranged_hashENS7_20_Prime_rehash_policyENS7_17_Hashtable_traitsILb0ELb0ELb1EEEE21_M_insert_unique_nodeEmmPNS7_10_Hash_nodeIS5_Lb0EEEm' type='func-type' binding='weak-binding' visibility='default-visibility' is-defined='yes'/>
    <elf-symbol name='_ZNSt10_HashtableIPN10prometheus7SummaryESt4pairIKS2_mESaIS5_ENSt8__detail10_Select1stESt8equal_toIS2_ESt4hashIS2_ENS7_18_Mod_range_hashingENS7_20_Default_ranged_hashENS7_20_Prime_rehash_policyENS7_17_Hashtable_traitsILb0ELb0ELb1EEEE22_M_insert_bucket_beginEmPNS7_10_Hash_nodeIS5_Lb0EEE' type='func-type' binding='weak-binding' visibility='default-visibility' is-defined='yes'/>
    <elf-symbol name='_ZNSt10_HashtableIPN10prometheus7SummaryESt4pairIKS2_mESaIS5_ENSt8__detail10_Select1stESt8equal_toIS2_ESt4hashIS2_ENS7_18_Mod_range_hashingENS7_20_Default_ranged_hashENS7_20_Prime_rehash_policyENS7_17_Hashtable_traitsILb0ELb0ELb1EEEE22_M_remove_bucket_beginEmPNS7_10_Hash_nodeIS5_Lb0EEEm' type='func-type' binding='weak-binding' visibility='default-visibility' is-defined='yes'/>
    <elf-symbol name='_ZNSt10_HashtableIPN10prometheus7SummaryESt4pairIKS2_mESaIS5_ENSt8__detail10_Select1stESt8equal_toIS2_ESt4hashIS2_ENS7_18_Mod_range_hashingENS7_20_Default_ranged_hashENS7_20_Prime_rehash_policyENS7_17_Hashtable_traitsILb0ELb0ELb1EEEE5clearEv' type='func-type' binding='weak-binding' visibility='default-visibility' is-defined='yes'/>
    <elf-symbol name='_ZNSt10_HashtableIPN10prometheus7SummaryESt4pairIKS2_mESaIS5_ENSt8__detail10_Select1stESt8equal_toIS2_ESt4hashIS2_ENS7_18_Mod_range_hashingENS7_20_Default_ranged_hashENS7_20_Prime_rehash_policyENS7_17_Hashtable_traitsILb0ELb0ELb1EEEE5eraseERS4_' type='func-type' binding='weak-binding' visibility='default-visibility' is-defined='yes'/>
    <elf-symbol name='_ZNSt10_HashtableIPN10prometheus7SummaryESt4pairIKS2_mESaIS5_ENSt8__detail10_Select1stESt8equal_toIS2_ESt4hashIS2_ENS7_18_Mod_range_hashingENS7_20_Default_ranged_hashENS7_20_Prime_rehash_policyENS7_17_Hashtable_traitsILb0ELb0ELb1EEEE8_M_eraseESt17integral_constantIbLb1EERS4_' type='func-type' binding='weak-binding' visibility='default-visibility' is-defined='yes'/>
    <elf-symbol name='_ZNSt10_HashtableIPN10prometheus7SummaryESt4pairIKS2_mESaIS5_ENSt8__detail10_Select1stESt8equal_toIS2_ESt4hashIS2_ENS7_18_Mod_range_hashingENS7_20_Default_ranged_hashENS7_20_Prime_rehash_policyENS7_17_Hashtable_traitsILb0ELb0ELb1EEEE8_M_eraseEmPNS7_15_Hash_node_baseEPNS7_10_Hash_nodeIS5_Lb0EEE' type='func-type' binding='weak-binding' visibility='default-visibility' is-defined='yes'/>
    <elf-symbol name='_ZNSt10_HashtableIPN10prometheus7SummaryESt4pairIKS2_mESaIS5_ENSt8__detail10_Select1stESt8equal_toIS2_ESt4hashIS2_ENS7_18_Mod_range_hashingENS7_20_Default_ranged_hashENS7_20_Prime_rehash_policyENS7_17_Hashtable_traitsILb0ELb0ELb1EEEE9_M_rehashEmRKm' type='func-type' binding='weak-binding' visibility='default-visibility' is-defined='yes'/>
    <elf-symbol name='_ZNSt10_HashtableIPN10prometheus7SummaryESt4pairIKS2_mESaIS5_ENSt8__detail10_Select1stESt8equal_toIS2_ESt4hashIS2_ENS7_18_Mod_range_hashingENS7_20_Default_ranged_hashENS7_20_Prime_rehash_policyENS7_17_Hashtable_traitsILb0ELb0ELb1EEEED1Ev' type='func-type' binding='weak-binding' visibility='default-visibility' is-defined='yes'/>
    <elf-symbol name='_ZNSt10_HashtableIPN10prometheus7SummaryESt4pairIKS2_mESaIS5_ENSt8__detail10_Select1stESt8equal_toIS2_ESt4hashIS2_ENS7_18_Mod_range_hashingENS7_20_Default_ranged_hashENS7_20_Prime_rehash_policyENS7_17_Hashtable_traitsILb0ELb0ELb1EEEED2Ev' type='func-type' binding='weak-binding' visibility='default-visibility' alias='_ZNSt10_HashtableIPN10prometheus7SummaryESt4pairIKS2_mESaIS5_ENSt8__detail10_Select1stESt8equal_toIS2_ESt4hashIS2_ENS7_18_Mod_range_hashingENS7_20_Default_ranged_hashENS7_20_Prime_rehash_policyENS7_17_Hashtable_traitsILb0ELb0ELb1EEEED1Ev' is-defined='yes'/>
    <elf-symbol name='_ZNSt10_HashtableIPN10prometheus9HistogramESt4pairIKS2_mESaIS5_ENSt8__detail10_Select1stESt8equal_toIS2_ESt4hashIS2_ENS7_18_Mod_range_hashingENS7_20_Default_ranged_hashENS7_20_Prime_rehash_policyENS7_17_Hashtable_traitsILb0ELb0ELb1EEEE10_M_emplaceIJS5_EEES3_INS7_14_Node_iteratorIS5_Lb0ELb0EEEbESt17integral_constantIbLb1EEDpOT_' type='func-type' binding='weak-binding' visibility='default-visibility' is-defined='yes'/>
    <elf-symbol name='_ZNSt10_HashtableIPN10prometheus9HistogramESt4pairIKS2_mESaIS5_ENSt8__detail10_Select1stESt8equal_toIS2_ESt4hashIS2_ENS7_18_Mod_range_hashingENS7_20_Default_ranged_hashENS7_20_Prime_rehash_policyENS7_17_Hashtable_traitsILb0ELb0ELb1EEEE13_M_rehash_auxEmSt17integral_constantIbLb1EE' type='func-type' binding='weak-binding' visibility='default-visibility' is-defined='yes'/>
    <elf-symbol name='_ZNSt10_HashtableIPN10prometheus9HistogramESt4pairIKS2_mESaIS5_ENSt8__detail10_Select1stESt8equal_toIS2_ESt4hashIS2_ENS7_18_Mod_range_hashingENS7_20_Default_ranged_hashENS7_20_Prime_rehash_policyENS7_17_Hashtable_traitsILb0ELb0ELb1EEEE19_M_allocate_bucketsEm' type='func-type' binding='weak-binding' visibility='default-visibility' is-defined='yes'/>
    <elf-symbol name='_ZNSt10_HashtableIPN10prometheus9HistogramESt4pairIKS2_mESaIS5_ENSt8__detail10_Select1stESt8equal_toIS2_ESt4hashIS2_ENS7_18_Mod_range_hashingENS7_20_Default_ranged_hashENS7_20_Prime_rehash_policyENS7_17_Hashtable_traitsILb0ELb0ELb1EEEE21_M_deallocate_bucketsEPPNS7_15_Hash_node_baseEm' type='func-type' binding='weak-binding' visibility='default-visibility' is-defined='yes'/>
    <elf-symbol name='_ZNSt10_HashtableIPN10prometheus9HistogramESt4pairIKS2_mESaIS5_ENSt8__detail10_Select1stESt8equal_toIS2_ESt4hashIS2_ENS7_18_Mod_range_hashingENS7_20_Default_ranged_hashENS7_20_Prime_rehash_policyENS7_17_Hashtable_traitsILb0ELb0ELb1EEEE21_M_deallocate_bucketsEv' type='func-type' binding='weak-binding' visibility='default-visibility' is-defined='yes'/>
    <elf-symbol name='_ZNSt10_HashtableIPN10prometheus9HistogramESt4pairIKS2_mESaIS5_ENSt8__detail10_Select1stESt8equal_toIS2_ESt4hashIS2_ENS7_18_Mod_range_hashingENS7_20_Default_ranged_hashENS7_20_Prime_rehash_policyENS7_17_Hashtable_traitsILb0ELb0ELb1EEEE21_M_insert_unique_nodeEmmPNS7_10_Hash_nodeIS5_Lb0EEEm' type='func-type' binding='weak-binding' visibility='default-visibility' is-defined='yes'/>
    <elf-symbol name='_ZNSt10_HashtableIPN10prometheus9HistogramESt4pairIKS2_mESaIS5_ENSt8__detail10_Select1stESt8equal_toIS2_ESt4hashIS2_ENS7_18_Mod_range_hashingENS7_20_Default_ranged_hashENS7_20_Prime_rehash_policyENS7_17_Hashtable_traitsILb0ELb0ELb1EEEE22_M_insert_bucket_beginEmPNS7_10_Hash_nodeIS5_Lb0EEE' type='func-type' binding='weak-binding' visibility='default-visibility' is-defined='yes'/>
    <elf-symbol name='_ZNSt10_HashtableIPN10prometheus9HistogramESt4pairIKS2_mESaIS5_ENSt8__detail10_Select1stESt8equal_toIS2_ESt4hashIS2_ENS7_18_Mod_range_hashingENS7_20_Default_ranged_hashENS7_20_Prime_rehash_policyENS7_17_Hashtable_traitsILb0ELb0ELb1EEEE22_M_remove_bucket_beginEmPNS7_10_Hash_nodeIS5_Lb0EEEm' type='func-type' binding='weak-binding' visibility='default-visibility' is-defined='yes'/>
    <elf-symbol name='_ZNSt10_HashtableIPN10prometheus9HistogramESt4pairIKS2_mESaIS5_ENSt8__detail10_Select1stESt8equal_toIS2_ESt4hashIS2_ENS7_18_Mod_range_hashingENS7_20_Default_ranged_hashENS7_20_Prime_rehash_policyENS7_17_Hashtable_traitsILb0ELb0ELb1EEEE5clearEv' type='func-type' binding='weak-binding' visibility='default-visibility' is-defined='yes'/>
    <elf-symbol name='_ZNSt10_HashtableIPN10prometheus9HistogramESt4pairIKS2_mESaIS5_ENSt8__detail10_Select1stESt8equal_toIS2_ESt4hashIS2_ENS7_18_Mod_range_hashingENS7_20_Default_ranged_hashENS7_20_Prime_rehash_policyENS7_17_Hashtable_traitsILb0ELb0ELb1EEEE5eraseERS4_' type='func-type' binding='weak-binding' visibility='default-visibility' is-defined='yes'/>
    <elf-symbol name='_ZNSt10_HashtableIPN10prometheus9HistogramESt4pairIKS2_mESaIS5_ENSt8__detail10_Select1stESt8equal_toIS2_ESt4hashIS2_ENS7_18_Mod_range_hashingENS7_20_Default_ranged_hashENS7_20_Prime_rehash_policyENS7_17_Hashtable_traitsILb0ELb0ELb1EEEE8_M_eraseESt17integral_constantIbLb1EERS4_' type='func-type' binding='weak-binding' visibility='default-visibility' is-defined='yes'/>
    <elf-symbol name='_ZNSt10_HashtableIPN10prometheus9HistogramESt4pairIKS2_mESaIS5_ENSt8__detail10_Select1stESt8equal_toIS2_ESt4hashIS2_ENS7_18_Mod_range_hashingENS7_20_Default_ranged_hashENS7_20_Prime_rehash_policyENS7_17_Hashtable_traitsILb0ELb0ELb1EEEE8_M_eraseEmPNS7_15_Hash_node_baseEPNS7_10_Hash_nodeIS5_Lb0EEE' type='func-type' binding='weak-binding' visibility='default-visibility' is-defined='yes'/>
    <elf-symbol name='_ZNSt10_HashtableIPN10prometheus9HistogramESt4pairIKS2_mESaIS5_ENSt8__detail10_Select1stESt8equal_toIS2_ESt4hashIS2_ENS7_18_Mod_range_hashingENS7_20_Default_ranged_hashENS7_20_Prime_rehash_policyENS7_17_Hashtable_traitsILb0ELb0ELb1EEEE9_M_rehashEmRKm' type='func-type' binding='weak-binding' visibility='default-visibility' is-defined='yes'/>
    <elf-symbol name='_ZNSt10_HashtableIPN10prometheus9HistogramESt4pairIKS2_mESaIS5_ENSt8__detail10_Select1stESt8equal_toIS2_ESt4hashIS2_ENS7_18_Mod_range_hashingENS7_20_Default_ranged_hashENS7_20_Prime_rehash_policyENS7_17_Hashtable_traitsILb0ELb0ELb1EEEED1Ev' type='func-type' binding='weak-binding' visibility='default-visibility' is-defined='yes'/>
    <elf-symbol name='_ZNSt10_HashtableIPN10prometheus9HistogramESt4pairIKS2_mESaIS5_ENSt8__detail10_Select1stESt8equal_toIS2_ESt4hashIS2_ENS7_18_Mod_range_hashingENS7_20_Default_ranged_hashENS7_20_Prime_rehash_policyENS7_17_Hashtable_traitsILb0ELb0ELb1EEEED2Ev' type='func-type' binding='weak-binding' visibility='default-visibility' alias='_ZNSt10_HashtableIPN10prometheus9HistogramESt4pairIKS2_mESaIS5_ENSt8__detail10_Select1stESt8equal_toIS2_ESt4hashIS2_ENS7_18_Mod_range_hashingENS7_20_Default_ranged_hashENS7_20_Prime_rehash_policyENS7_17_Hashtable_traitsILb0ELb0ELb1EEEED1Ev' is-defined='yes'/>
    <elf-symbol name='_ZNSt10_HashtableImSt4pairIKmSt10unique_ptrIN10prometheus5GaugeESt14default_deleteIS4_EEESaIS8_ENSt8__detail10_Select1stESt8equal_toImESt4hashImENSA_18_Mod_range_hashingENSA_20_Default_ranged_hashENSA_20_Prime_rehash_policyENSA_17_Hashtable_traitsILb0ELb0ELb1EEEE10_M_emplaceIJS0_ImS7_EEEES0_INSA_14_Node_iteratorIS8_Lb0ELb0EEEbESt17integral_constantIbLb1EEDpOT_' type='func-type' binding='weak-binding' visibility='default-visibility' is-defined='yes'/>
    <elf-symbol name='_ZNSt10_HashtableImSt4pairIKmSt10unique_ptrIN10prometheus5GaugeESt14default_deleteIS4_EEESaIS8_ENSt8__detail10_Select1stESt8equal_toImESt4hashImENSA_18_Mod_range_hashingENSA_20_Default_ranged_hashENSA_20_Prime_rehash_policyENSA_17_Hashtable_traitsILb0ELb0ELb1EEEE13_M_rehash_auxEmSt17integral_constantIbLb1EE' type='func-type' binding='weak-binding' visibility='default-visibility' is-defined='yes'/>
    <elf-symbol name='_ZNSt10_HashtableImSt4pairIKmSt10unique_ptrIN10prometheus5GaugeESt14default_deleteIS4_EEESaIS8_ENSt8__detail10_Select1stESt8equal_toImESt4hashImENSA_18_Mod_range_hashingENSA_20_Default_ranged_hashENSA_20_Prime_rehash_policyENSA_17_Hashtable_traitsILb0ELb0ELb1EEEE19_M_allocate_bucketsEm' type='func-type' binding='weak-binding' visibility='default-visibility' is-defined='yes'/>
    <elf-symbol name='_ZNSt10_HashtableImSt4pairIKmSt10unique_ptrIN10prometheus5GaugeESt14default_deleteIS4_EEESaIS8_ENSt8__detail10_Select1stESt8equal_toImESt4hashImENSA_18_Mod_range_hashingENSA_20_Default_ranged_hashENSA_20_Prime_rehash_policyENSA_17_Hashtable_traitsILb0ELb0ELb1EEEE21_M_deallocate_bucketsEPPNSA_15_Hash_node_baseEm' type='func-type' binding='weak-binding' visibility='default-visibility' is-defined='yes'/>
    <elf-symbol name='_ZNSt10_HashtableImSt4pairIKmSt10unique_ptrIN10prometheus5GaugeESt14default_deleteIS4_EEESaIS8_ENSt8__detail10_Select1stESt8equal_toImESt4hashImENSA_18_Mod_range_hashingENSA_20_Default_ranged_hashENSA_20_Prime_rehash_policyENSA_17_Hashtable_traitsILb0ELb0ELb1EEEE21_M_deallocate_bucketsEv' type='func-type' binding='weak-binding' visibility='default-visibility' is-defined='yes'/>
    <elf-symbol name='_ZNSt10_HashtableImSt4pairIKmSt10unique_ptrIN10prometheus5GaugeESt14default_deleteIS4_EEESaIS8_ENSt8__detail10_Select1stESt8equal_toImESt4hashImENSA_18_Mod_range_hashingENSA_20_Default_ranged_hashENSA_20_Prime_rehash_policyENSA_17_Hashtable_traitsILb0ELb0ELb1EEEE21_M_insert_unique_nodeEmmPNSA_10_Hash_nodeIS8_Lb0EEEm' type='func-type' binding='weak-binding' visibility='default-visibility' is-defined='yes'/>
    <elf-symbol name='_ZNSt10_HashtableImSt4pairIKmSt10unique_ptrIN10prometheus5GaugeESt14default_deleteIS4_EEESaIS8_ENSt8__detail10_Select1stESt8equal_toImESt4hashImENSA_18_Mod_range_hashingENSA_20_Default_ranged_hashENSA_20_Prime_rehash_policyENSA_17_Hashtable_traitsILb0ELb0ELb1EEEE22_M_insert_bucket_beginEmPNSA_10_Hash_nodeIS8_Lb0EEE' type='func-type' binding='weak-binding' visibility='default-visibility' is-defined='yes'/>
    <elf-symbol name='_ZNSt10_HashtableImSt4pairIKmSt10unique_ptrIN10prometheus5GaugeESt14default_deleteIS4_EEESaIS8_ENSt8__detail10_Select1stESt8equal_toImESt4hashImENSA_18_Mod_range_hashingENSA_20_Default_ranged_hashENSA_20_Prime_rehash_policyENSA_17_Hashtable_traitsILb0ELb0ELb1EEEE22_M_remove_bucket_beginEmPNSA_10_Hash_nodeIS8_Lb0EEEm' type='func-type' binding='weak-binding' visibility='default-visibility' is-defined='yes'/>
    <elf-symbol name='_ZNSt10_HashtableImSt4pairIKmSt10unique_ptrIN10prometheus5GaugeESt14default_deleteIS4_EEESaIS8_ENSt8__detail10_Select1stESt8equal_toImESt4hashImENSA_18_Mod_range_hashingENSA_20_Default_ranged_hashENSA_20_Prime_rehash_policyENSA_17_Hashtable_traitsILb0ELb0ELb1EEEE3endEv' type='func-type' binding='weak-binding' visibility='default-visibility' is-defined='yes'/>
    <elf-symbol name='_ZNSt10_HashtableImSt4pairIKmSt10unique_ptrIN10prometheus5GaugeESt14default_deleteIS4_EEESaIS8_ENSt8__detail10_Select1stESt8equal_toImESt4hashImENSA_18_Mod_range_hashingENSA_20_Default_ranged_hashENSA_20_Prime_rehash_policyENSA_17_Hashtable_traitsILb0ELb0ELb1EEEE4findERS1_' type='func-type' binding='weak-binding' visibility='default-visibility' is-defined='yes'/>
    <elf-symbol name='_ZNSt10_HashtableImSt4pairIKmSt10unique_ptrIN10prometheus5GaugeESt14default_deleteIS4_EEESaIS8_ENSt8__detail10_Select1stESt8equal_toImESt4hashImENSA_18_Mod_range_hashingENSA_20_Default_ranged_hashENSA_20_Prime_rehash_policyENSA_17_Hashtable_traitsILb0ELb0ELb1EEEE5clearEv' type='func-type' binding='weak-binding' visibility='default-visibility' is-defined='yes'/>
    <elf-symbol name='_ZNSt10_HashtableImSt4pairIKmSt10unique_ptrIN10prometheus5GaugeESt14default_deleteIS4_EEESaIS8_ENSt8__detail10_Select1stESt8equal_toImESt4hashImENSA_18_Mod_range_hashingENSA_20_Default_ranged_hashENSA_20_Prime_rehash_policyENSA_17_Hashtable_traitsILb0ELb0ELb1EEEE5eraseERS1_' type='func-type' binding='weak-binding' visibility='default-visibility' is-defined='yes'/>
    <elf-symbol name='_ZNSt10_HashtableImSt4pairIKmSt10unique_ptrIN10prometheus5GaugeESt14default_deleteIS4_EEESaIS8_ENSt8__detail10_Select1stESt8equal_toImESt4hashImENSA_18_Mod_range_hashingENSA_20_Default_ranged_hashENSA_20_Prime_rehash_policyENSA_17_Hashtable_traitsILb0ELb0ELb1EEEE7emplaceIJS0_ImS7_EEEES0_INSA_14_Node_iteratorIS8_Lb0ELb0EEEbEDpOT_' type='func-type' binding='weak-binding' visibility='default-visibility' is-defined='yes'/>
    <elf-symbol name='_ZNSt10_HashtableImSt4pairIKmSt10unique_ptrIN10prometheus5GaugeESt14default_deleteIS4_EEESaIS8_ENSt8__detail10_Select1stESt8equal_toImESt4hashImENSA_18_Mod_range_hashingENSA_20_Default_ranged_hashENSA_20_Prime_rehash_policyENSA_17_Hashtable_traitsILb0ELb0ELb1EEEE8_M_eraseESt17integral_constantIbLb1EERS1_' type='func-type' binding='weak-binding' visibility='default-visibility' is-defined='yes'/>
    <elf-symbol name='_ZNSt10_HashtableImSt4pairIKmSt10unique_ptrIN10prometheus5GaugeESt14default_deleteIS4_EEESaIS8_ENSt8__detail10_Select1stESt8equal_toImESt4hashImENSA_18_Mod_range_hashingENSA_20_Default_ranged_hashENSA_20_Prime_rehash_policyENSA_17_Hashtable_traitsILb0ELb0ELb1EEEE8_M_eraseEmPNSA_15_Hash_node_baseEPNSA_10_Hash_nodeIS8_Lb0EEE' type='func-type' binding='weak-binding' visibility='default-visibility' is-defined='yes'/>
    <elf-symbol name='_ZNSt10_HashtableImSt4pairIKmSt10unique_ptrIN10prometheus5GaugeESt14default_deleteIS4_EEESaIS8_ENSt8__detail10_Select1stESt8equal_toImESt4hashImENSA_18_Mod_range_hashingENSA_20_Default_ranged_hashENSA_20_Prime_rehash_policyENSA_17_Hashtable_traitsILb0ELb0ELb1EEEE9_M_rehashEmRS1_' type='func-type' binding='weak-binding' visibility='default-visibility' is-defined='yes'/>
    <elf-symbol name='_ZNSt10_HashtableImSt4pairIKmSt10unique_ptrIN10prometheus5GaugeESt14default_deleteIS4_EEESaIS8_ENSt8__detail10_Select1stESt8equal_toImESt4hashImENSA_18_Mod_range_hashingENSA_20_Default_ranged_hashENSA_20_Prime_rehash_policyENSA_17_Hashtable_traitsILb0ELb0ELb1EEEED1Ev' type='func-type' binding='weak-binding' visibility='default-visibility' is-defined='yes'/>
    <elf-symbol name='_ZNSt10_HashtableImSt4pairIKmSt10unique_ptrIN10prometheus5GaugeESt14default_deleteIS4_EEESaIS8_ENSt8__detail10_Select1stESt8equal_toImESt4hashImENSA_18_Mod_range_hashingENSA_20_Default_ranged_hashENSA_20_Prime_rehash_policyENSA_17_Hashtable_traitsILb0ELb0ELb1EEEED2Ev' type='func-type' binding='weak-binding' visibility='default-visibility' alias='_ZNSt10_HashtableImSt4pairIKmSt10unique_ptrIN10prometheus5GaugeESt14default_deleteIS4_EEESaIS8_ENSt8__detail10_Select1stESt8equal_toImESt4hashImENSA_18_Mod_range_hashingENSA_20_Default_ranged_hashENSA_20_Prime_rehash_policyENSA_17_Hashtable_traitsILb0ELb0ELb1EEEED1Ev' is-defined='yes'/>
    <elf-symbol name='_ZNSt10_HashtableImSt4pairIKmSt10unique_ptrIN10prometheus7CounterESt14default_deleteIS4_EEESaIS8_ENSt8__detail10_Select1stESt8equal_toImESt4hashImENSA_18_Mod_range_hashingENSA_20_Default_ranged_hashENSA_20_Prime_rehash_policyENSA_17_Hashtable_traitsILb0ELb0ELb1EEEE10_M_emplaceIJS0_ImS7_EEEES0_INSA_14_Node_iteratorIS8_Lb0ELb0EEEbESt17integral_constantIbLb1EEDpOT_' type='func-type' binding='weak-binding' visibility='default-visibility' is-defined='yes'/>
    <elf-symbol name='_ZNSt10_HashtableImSt4pairIKmSt10unique_ptrIN10prometheus7CounterESt14default_deleteIS4_EEESaIS8_ENSt8__detail10_Select1stESt8equal_toImESt4hashImENSA_18_Mod_range_hashingENSA_20_Default_ranged_hashENSA_20_Prime_rehash_policyENSA_17_Hashtable_traitsILb0ELb0ELb1EEEE13_M_rehash_auxEmSt17integral_constantIbLb1EE' type='func-type' binding='weak-binding' visibility='default-visibility' is-defined='yes'/>
    <elf-symbol name='_ZNSt10_HashtableImSt4pairIKmSt10unique_ptrIN10prometheus7CounterESt14default_deleteIS4_EEESaIS8_ENSt8__detail10_Select1stESt8equal_toImESt4hashImENSA_18_Mod_range_hashingENSA_20_Default_ranged_hashENSA_20_Prime_rehash_policyENSA_17_Hashtable_traitsILb0ELb0ELb1EEEE19_M_allocate_bucketsEm' type='func-type' binding='weak-binding' visibility='default-visibility' is-defined='yes'/>
    <elf-symbol name='_ZNSt10_HashtableImSt4pairIKmSt10unique_ptrIN10prometheus7CounterESt14default_deleteIS4_EEESaIS8_ENSt8__detail10_Select1stESt8equal_toImESt4hashImENSA_18_Mod_range_hashingENSA_20_Default_ranged_hashENSA_20_Prime_rehash_policyENSA_17_Hashtable_traitsILb0ELb0ELb1EEEE21_M_deallocate_bucketsEPPNSA_15_Hash_node_baseEm' type='func-type' binding='weak-binding' visibility='default-visibility' is-defined='yes'/>
    <elf-symbol name='_ZNSt10_HashtableImSt4pairIKmSt10unique_ptrIN10prometheus7CounterESt14default_deleteIS4_EEESaIS8_ENSt8__detail10_Select1stESt8equal_toImESt4hashImENSA_18_Mod_range_hashingENSA_20_Default_ranged_hashENSA_20_Prime_rehash_policyENSA_17_Hashtable_traitsILb0ELb0ELb1EEEE21_M_deallocate_bucketsEv' type='func-type' binding='weak-binding' visibility='default-visibility' is-defined='yes'/>
    <elf-symbol name='_ZNSt10_HashtableImSt4pairIKmSt10unique_ptrIN10prometheus7CounterESt14default_deleteIS4_EEESaIS8_ENSt8__detail10_Select1stESt8equal_toImESt4hashImENSA_18_Mod_range_hashingENSA_20_Default_ranged_hashENSA_20_Prime_rehash_policyENSA_17_Hashtable_traitsILb0ELb0ELb1EEEE21_M_insert_unique_nodeEmmPNSA_10_Hash_nodeIS8_Lb0EEEm' type='func-type' binding='weak-binding' visibility='default-visibility' is-defined='yes'/>
    <elf-symbol name='_ZNSt10_HashtableImSt4pairIKmSt10unique_ptrIN10prometheus7CounterESt14default_deleteIS4_EEESaIS8_ENSt8__detail10_Select1stESt8equal_toImESt4hashImENSA_18_Mod_range_hashingENSA_20_Default_ranged_hashENSA_20_Prime_rehash_policyENSA_17_Hashtable_traitsILb0ELb0ELb1EEEE22_M_insert_bucket_beginEmPNSA_10_Hash_nodeIS8_Lb0EEE' type='func-type' binding='weak-binding' visibility='default-visibility' is-defined='yes'/>
    <elf-symbol name='_ZNSt10_HashtableImSt4pairIKmSt10unique_ptrIN10prometheus7CounterESt14default_deleteIS4_EEESaIS8_ENSt8__detail10_Select1stESt8equal_toImESt4hashImENSA_18_Mod_range_hashingENSA_20_Default_ranged_hashENSA_20_Prime_rehash_policyENSA_17_Hashtable_traitsILb0ELb0ELb1EEEE22_M_remove_bucket_beginEmPNSA_10_Hash_nodeIS8_Lb0EEEm' type='func-type' binding='weak-binding' visibility='default-visibility' is-defined='yes'/>
    <elf-symbol name='_ZNSt10_HashtableImSt4pairIKmSt10unique_ptrIN10prometheus7CounterESt14default_deleteIS4_EEESaIS8_ENSt8__detail10_Select1stESt8equal_toImESt4hashImENSA_18_Mod_range_hashingENSA_20_Default_ranged_hashENSA_20_Prime_rehash_policyENSA_17_Hashtable_traitsILb0ELb0ELb1EEEE3endEv' type='func-type' binding='weak-binding' visibility='default-visibility' is-defined='yes'/>
    <elf-symbol name='_ZNSt10_HashtableImSt4pairIKmSt10unique_ptrIN10prometheus7CounterESt14default_deleteIS4_EEESaIS8_ENSt8__detail10_Select1stESt8equal_toImESt4hashImENSA_18_Mod_range_hashingENSA_20_Default_ranged_hashENSA_20_Prime_rehash_policyENSA_17_Hashtable_traitsILb0ELb0ELb1EEEE4findERS1_' type='func-type' binding='weak-binding' visibility='default-visibility' is-defined='yes'/>
    <elf-symbol name='_ZNSt10_HashtableImSt4pairIKmSt10unique_ptrIN10prometheus7CounterESt14default_deleteIS4_EEESaIS8_ENSt8__detail10_Select1stESt8equal_toImESt4hashImENSA_18_Mod_range_hashingENSA_20_Default_ranged_hashENSA_20_Prime_rehash_policyENSA_17_Hashtable_traitsILb0ELb0ELb1EEEE5clearEv' type='func-type' binding='weak-binding' visibility='default-visibility' is-defined='yes'/>
    <elf-symbol name='_ZNSt10_HashtableImSt4pairIKmSt10unique_ptrIN10prometheus7CounterESt14default_deleteIS4_EEESaIS8_ENSt8__detail10_Select1stESt8equal_toImESt4hashImENSA_18_Mod_range_hashingENSA_20_Default_ranged_hashENSA_20_Prime_rehash_policyENSA_17_Hashtable_traitsILb0ELb0ELb1EEEE5eraseERS1_' type='func-type' binding='weak-binding' visibility='default-visibility' is-defined='yes'/>
    <elf-symbol name='_ZNSt10_HashtableImSt4pairIKmSt10unique_ptrIN10prometheus7CounterESt14default_deleteIS4_EEESaIS8_ENSt8__detail10_Select1stESt8equal_toImESt4hashImENSA_18_Mod_range_hashingENSA_20_Default_ranged_hashENSA_20_Prime_rehash_policyENSA_17_Hashtable_traitsILb0ELb0ELb1EEEE7emplaceIJS0_ImS7_EEEES0_INSA_14_Node_iteratorIS8_Lb0ELb0EEEbEDpOT_' type='func-type' binding='weak-binding' visibility='default-visibility' is-defined='yes'/>
    <elf-symbol name='_ZNSt10_HashtableImSt4pairIKmSt10unique_ptrIN10prometheus7CounterESt14default_deleteIS4_EEESaIS8_ENSt8__detail10_Select1stESt8equal_toImESt4hashImENSA_18_Mod_range_hashingENSA_20_Default_ranged_hashENSA_20_Prime_rehash_policyENSA_17_Hashtable_traitsILb0ELb0ELb1EEEE8_M_eraseESt17integral_constantIbLb1EERS1_' type='func-type' binding='weak-binding' visibility='default-visibility' is-defined='yes'/>
    <elf-symbol name='_ZNSt10_HashtableImSt4pairIKmSt10unique_ptrIN10prometheus7CounterESt14default_deleteIS4_EEESaIS8_ENSt8__detail10_Select1stESt8equal_toImESt4hashImENSA_18_Mod_range_hashingENSA_20_Default_ranged_hashENSA_20_Prime_rehash_policyENSA_17_Hashtable_traitsILb0ELb0ELb1EEEE8_M_eraseEmPNSA_15_Hash_node_baseEPNSA_10_Hash_nodeIS8_Lb0EEE' type='func-type' binding='weak-binding' visibility='default-visibility' is-defined='yes'/>
    <elf-symbol name='_ZNSt10_HashtableImSt4pairIKmSt10unique_ptrIN10prometheus7CounterESt14default_deleteIS4_EEESaIS8_ENSt8__detail10_Select1stESt8equal_toImESt4hashImENSA_18_Mod_range_hashingENSA_20_Default_ranged_hashENSA_20_Prime_rehash_policyENSA_17_Hashtable_traitsILb0ELb0ELb1EEEE9_M_rehashEmRS1_' type='func-type' binding='weak-binding' visibility='default-visibility' is-defined='yes'/>
    <elf-symbol name='_ZNSt10_HashtableImSt4pairIKmSt10unique_ptrIN10prometheus7CounterESt14default_deleteIS4_EEESaIS8_ENSt8__detail10_Select1stESt8equal_toImESt4hashImENSA_18_Mod_range_hashingENSA_20_Default_ranged_hashENSA_20_Prime_rehash_policyENSA_17_Hashtable_traitsILb0ELb0ELb1EEEED1Ev' type='func-type' binding='weak-binding' visibility='default-visibility' alias='_ZNSt10_HashtableImSt4pairIKmSt10unique_ptrIN10prometheus7CounterESt14default_deleteIS4_EEESaIS8_ENSt8__detail10_Select1stESt8equal_toImESt4hashImENSA_18_Mod_range_hashingENSA_20_Default_ranged_hashENSA_20_Prime_rehash_policyENSA_17_Hashtable_traitsILb0ELb0ELb1EEEED2Ev' is-defined='yes'/>
    <elf-symbol name='_ZNSt10_HashtableImSt4pairIKmSt10unique_ptrIN10prometheus7CounterESt14default_deleteIS4_EEESaIS8_ENSt8__detail10_Select1stESt8equal_toImESt4hashImENSA_18_Mod_range_hashingENSA_20_Default_ranged_hashENSA_20_Prime_rehash_policyENSA_17_Hashtable_traitsILb0ELb0ELb1EEEED2Ev' type='func-type' binding='weak-binding' visibility='default-visibility' is-defined='yes'/>
    <elf-symbol name='_ZNSt10_HashtableImSt4pairIKmSt10unique_ptrIN10prometheus7SummaryESt14default_deleteIS4_EEESaIS8_ENSt8__detail10_Select1stESt8equal_toImESt4hashImENSA_18_Mod_range_hashingENSA_20_Default_ranged_hashENSA_20_Prime_rehash_policyENSA_17_Hashtable_traitsILb0ELb0ELb1EEEE10_M_emplaceIJS0_ImS7_EEEES0_INSA_14_Node_iteratorIS8_Lb0ELb0EEEbESt17integral_constantIbLb1EEDpOT_' type='func-type' binding='weak-binding' visibility='default-visibility' is-defined='yes'/>
    <elf-symbol name='_ZNSt10_HashtableImSt4pairIKmSt10unique_ptrIN10prometheus7SummaryESt14default_deleteIS4_EEESaIS8_ENSt8__detail10_Select1stESt8equal_toImESt4hashImENSA_18_Mod_range_hashingENSA_20_Default_ranged_hashENSA_20_Prime_rehash_policyENSA_17_Hashtable_traitsILb0ELb0ELb1EEEE13_M_rehash_auxEmSt17integral_constantIbLb1EE' type='func-type' binding='weak-binding' visibility='default-visibility' is-defined='yes'/>
    <elf-symbol name='_ZNSt10_HashtableImSt4pairIKmSt10unique_ptrIN10prometheus7SummaryESt14default_deleteIS4_EEESaIS8_ENSt8__detail10_Select1stESt8equal_toImESt4hashImENSA_18_Mod_range_hashingENSA_20_Default_ranged_hashENSA_20_Prime_rehash_policyENSA_17_Hashtable_traitsILb0ELb0ELb1EEEE19_M_allocate_bucketsEm' type='func-type' binding='weak-binding' visibility='default-visibility' is-defined='yes'/>
    <elf-symbol name='_ZNSt10_HashtableImSt4pairIKmSt10unique_ptrIN10prometheus7SummaryESt14default_deleteIS4_EEESaIS8_ENSt8__detail10_Select1stESt8equal_toImESt4hashImENSA_18_Mod_range_hashingENSA_20_Default_ranged_hashENSA_20_Prime_rehash_policyENSA_17_Hashtable_traitsILb0ELb0ELb1EEEE21_M_deallocate_bucketsEPPNSA_15_Hash_node_baseEm' type='func-type' binding='weak-binding' visibility='default-visibility' is-defined='yes'/>
    <elf-symbol name='_ZNSt10_HashtableImSt4pairIKmSt10unique_ptrIN10prometheus7SummaryESt14default_deleteIS4_EEESaIS8_ENSt8__detail10_Select1stESt8equal_toImESt4hashImENSA_18_Mod_range_hashingENSA_20_Default_ranged_hashENSA_20_Prime_rehash_policyENSA_17_Hashtable_traitsILb0ELb0ELb1EEEE21_M_deallocate_bucketsEv' type='func-type' binding='weak-binding' visibility='default-visibility' is-defined='yes'/>
    <elf-symbol name='_ZNSt10_HashtableImSt4pairIKmSt10unique_ptrIN10prometheus7SummaryESt14default_deleteIS4_EEESaIS8_ENSt8__detail10_Select1stESt8equal_toImESt4hashImENSA_18_Mod_range_hashingENSA_20_Default_ranged_hashENSA_20_Prime_rehash_policyENSA_17_Hashtable_traitsILb0ELb0ELb1EEEE21_M_insert_unique_nodeEmmPNSA_10_Hash_nodeIS8_Lb0EEEm' type='func-type' binding='weak-binding' visibility='default-visibility' is-defined='yes'/>
    <elf-symbol name='_ZNSt10_HashtableImSt4pairIKmSt10unique_ptrIN10prometheus7SummaryESt14default_deleteIS4_EEESaIS8_ENSt8__detail10_Select1stESt8equal_toImESt4hashImENSA_18_Mod_range_hashingENSA_20_Default_ranged_hashENSA_20_Prime_rehash_policyENSA_17_Hashtable_traitsILb0ELb0ELb1EEEE22_M_insert_bucket_beginEmPNSA_10_Hash_nodeIS8_Lb0EEE' type='func-type' binding='weak-binding' visibility='default-visibility' is-defined='yes'/>
    <elf-symbol name='_ZNSt10_HashtableImSt4pairIKmSt10unique_ptrIN10prometheus7SummaryESt14default_deleteIS4_EEESaIS8_ENSt8__detail10_Select1stESt8equal_toImESt4hashImENSA_18_Mod_range_hashingENSA_20_Default_ranged_hashENSA_20_Prime_rehash_policyENSA_17_Hashtable_traitsILb0ELb0ELb1EEEE22_M_remove_bucket_beginEmPNSA_10_Hash_nodeIS8_Lb0EEEm' type='func-type' binding='weak-binding' visibility='default-visibility' is-defined='yes'/>
    <elf-symbol name='_ZNSt10_HashtableImSt4pairIKmSt10unique_ptrIN10prometheus7SummaryESt14default_deleteIS4_EEESaIS8_ENSt8__detail10_Select1stESt8equal_toImESt4hashImENSA_18_Mod_range_hashingENSA_20_Default_ranged_hashENSA_20_Prime_rehash_policyENSA_17_Hashtable_traitsILb0ELb0ELb1EEEE3endEv' type='func-type' binding='weak-binding' visibility='default-visibility' is-defined='yes'/>
    <elf-symbol name='_ZNSt10_HashtableImSt4pairIKmSt10unique_ptrIN10prometheus7SummaryESt14default_deleteIS4_EEESaIS8_ENSt8__detail10_Select1stESt8equal_toImESt4hashImENSA_18_Mod_range_hashingENSA_20_Default_ranged_hashENSA_20_Prime_rehash_policyENSA_17_Hashtable_traitsILb0ELb0ELb1EEEE4findERS1_' type='func-type' binding='weak-binding' visibility='default-visibility' is-defined='yes'/>
    <elf-symbol name='_ZNSt10_HashtableImSt4pairIKmSt10unique_ptrIN10prometheus7SummaryESt14default_deleteIS4_EEESaIS8_ENSt8__detail10_Select1stESt8equal_toImESt4hashImENSA_18_Mod_range_hashingENSA_20_Default_ranged_hashENSA_20_Prime_rehash_policyENSA_17_Hashtable_traitsILb0ELb0ELb1EEEE5clearEv' type='func-type' binding='weak-binding' visibility='default-visibility' is-defined='yes'/>
    <elf-symbol name='_ZNSt10_HashtableImSt4pairIKmSt10unique_ptrIN10prometheus7SummaryESt14default_deleteIS4_EEESaIS8_ENSt8__detail10_Select1stESt8equal_toImESt4hashImENSA_18_Mod_range_hashingENSA_20_Default_ranged_hashENSA_20_Prime_rehash_policyENSA_17_Hashtable_traitsILb0ELb0ELb1EEEE5eraseERS1_' type='func-type' binding='weak-binding' visibility='default-visibility' is-defined='yes'/>
    <elf-symbol name='_ZNSt10_HashtableImSt4pairIKmSt10unique_ptrIN10prometheus7SummaryESt14default_deleteIS4_EEESaIS8_ENSt8__detail10_Select1stESt8equal_toImESt4hashImENSA_18_Mod_range_hashingENSA_20_Default_ranged_hashENSA_20_Prime_rehash_policyENSA_17_Hashtable_traitsILb0ELb0ELb1EEEE7emplaceIJS0_ImS7_EEEES0_INSA_14_Node_iteratorIS8_Lb0ELb0EEEbEDpOT_' type='func-type' binding='weak-binding' visibility='default-visibility' is-defined='yes'/>
    <elf-symbol name='_ZNSt10_HashtableImSt4pairIKmSt10unique_ptrIN10prometheus7SummaryESt14default_deleteIS4_EEESaIS8_ENSt8__detail10_Select1stESt8equal_toImESt4hashImENSA_18_Mod_range_hashingENSA_20_Default_ranged_hashENSA_20_Prime_rehash_policyENSA_17_Hashtable_traitsILb0ELb0ELb1EEEE8_M_eraseESt17integral_constantIbLb1EERS1_' type='func-type' binding='weak-binding' visibility='default-visibility' is-defined='yes'/>
    <elf-symbol name='_ZNSt10_HashtableImSt4pairIKmSt10unique_ptrIN10prometheus7SummaryESt14default_deleteIS4_EEESaIS8_ENSt8__detail10_Select1stESt8equal_toImESt4hashImENSA_18_Mod_range_hashingENSA_20_Default_ranged_hashENSA_20_Prime_rehash_policyENSA_17_Hashtable_traitsILb0ELb0ELb1EEEE8_M_eraseEmPNSA_15_Hash_node_baseEPNSA_10_Hash_nodeIS8_Lb0EEE' type='func-type' binding='weak-binding' visibility='default-visibility' is-defined='yes'/>
    <elf-symbol name='_ZNSt10_HashtableImSt4pairIKmSt10unique_ptrIN10prometheus7SummaryESt14default_deleteIS4_EEESaIS8_ENSt8__detail10_Select1stESt8equal_toImESt4hashImENSA_18_Mod_range_hashingENSA_20_Default_ranged_hashENSA_20_Prime_rehash_policyENSA_17_Hashtable_traitsILb0ELb0ELb1EEEE9_M_rehashEmRS1_' type='func-type' binding='weak-binding' visibility='default-visibility' is-defined='yes'/>
    <elf-symbol name='_ZNSt10_HashtableImSt4pairIKmSt10unique_ptrIN10prometheus7SummaryESt14default_deleteIS4_EEESaIS8_ENSt8__detail10_Select1stESt8equal_toImESt4hashImENSA_18_Mod_range_hashingENSA_20_Default_ranged_hashENSA_20_Prime_rehash_policyENSA_17_Hashtable_traitsILb0ELb0ELb1EEEED1Ev' type='func-type' binding='weak-binding' visibility='default-visibility' alias='_ZNSt10_HashtableImSt4pairIKmSt10unique_ptrIN10prometheus7SummaryESt14default_deleteIS4_EEESaIS8_ENSt8__detail10_Select1stESt8equal_toImESt4hashImENSA_18_Mod_range_hashingENSA_20_Default_ranged_hashENSA_20_Prime_rehash_policyENSA_17_Hashtable_traitsILb0ELb0ELb1EEEED2Ev' is-defined='yes'/>
    <elf-symbol name='_ZNSt10_HashtableImSt4pairIKmSt10unique_ptrIN10prometheus7SummaryESt14default_deleteIS4_EEESaIS8_ENSt8__detail10_Select1stESt8equal_toImESt4hashImENSA_18_Mod_range_hashingENSA_20_Default_ranged_hashENSA_20_Prime_rehash_policyENSA_17_Hashtable_traitsILb0ELb0ELb1EEEED2Ev' type='func-type' binding='weak-binding' visibility='default-visibility' is-defined='yes'/>
    <elf-symbol name='_ZNSt10_HashtableImSt4pairIKmSt10unique_ptrIN10prometheus9HistogramESt14default_deleteIS4_EEESaIS8_ENSt8__detail10_Select1stESt8equal_toImESt4hashImENSA_18_Mod_range_hashingENSA_20_Default_ranged_hashENSA_20_Prime_rehash_policyENSA_17_Hashtable_traitsILb0ELb0ELb1EEEE10_M_emplaceIJS0_ImS7_EEEES0_INSA_14_Node_iteratorIS8_Lb0ELb0EEEbESt17integral_constantIbLb1EEDpOT_' type='func-type' binding='weak-binding' visibility='default-visibility' is-defined='yes'/>
    <elf-symbol name='_ZNSt10_HashtableImSt4pairIKmSt10unique_ptrIN10prometheus9HistogramESt14default_deleteIS4_EEESaIS8_ENSt8__detail10_Select1stESt8equal_toImESt4hashImENSA_18_Mod_range_hashingENSA_20_Default_ranged_hashENSA_20_Prime_rehash_policyENSA_17_Hashtable_traitsILb0ELb0ELb1EEEE13_M_rehash_auxEmSt17integral_constantIbLb1EE' type='func-type' binding='weak-binding' visibility='default-visibility' is-defined='yes'/>
    <elf-symbol name='_ZNSt10_HashtableImSt4pairIKmSt10unique_ptrIN10prometheus9HistogramESt14default_deleteIS4_EEESaIS8_ENSt8__detail10_Select1stESt8equal_toImESt4hashImENSA_18_Mod_range_hashingENSA_20_Default_ranged_hashENSA_20_Prime_rehash_policyENSA_17_Hashtable_traitsILb0ELb0ELb1EEEE19_M_allocate_bucketsEm' type='func-type' binding='weak-binding' visibility='default-visibility' is-defined='yes'/>
    <elf-symbol name='_ZNSt10_HashtableImSt4pairIKmSt10unique_ptrIN10prometheus9HistogramESt14default_deleteIS4_EEESaIS8_ENSt8__detail10_Select1stESt8equal_toImESt4hashImENSA_18_Mod_range_hashingENSA_20_Default_ranged_hashENSA_20_Prime_rehash_policyENSA_17_Hashtable_traitsILb0ELb0ELb1EEEE21_M_deallocate_bucketsEPPNSA_15_Hash_node_baseEm' type='func-type' binding='weak-binding' visibility='default-visibility' is-defined='yes'/>
    <elf-symbol name='_ZNSt10_HashtableImSt4pairIKmSt10unique_ptrIN10prometheus9HistogramESt14default_deleteIS4_EEESaIS8_ENSt8__detail10_Select1stESt8equal_toImESt4hashImENSA_18_Mod_range_hashingENSA_20_Default_ranged_hashENSA_20_Prime_rehash_policyENSA_17_Hashtable_traitsILb0ELb0ELb1EEEE21_M_deallocate_bucketsEv' type='func-type' binding='weak-binding' visibility='default-visibility' is-defined='yes'/>
    <elf-symbol name='_ZNSt10_HashtableImSt4pairIKmSt10unique_ptrIN10prometheus9HistogramESt14default_deleteIS4_EEESaIS8_ENSt8__detail10_Select1stESt8equal_toImESt4hashImENSA_18_Mod_range_hashingENSA_20_Default_ranged_hashENSA_20_Prime_rehash_policyENSA_17_Hashtable_traitsILb0ELb0ELb1EEEE21_M_insert_unique_nodeEmmPNSA_10_Hash_nodeIS8_Lb0EEEm' type='func-type' binding='weak-binding' visibility='default-visibility' is-defined='yes'/>
    <elf-symbol name='_ZNSt10_HashtableImSt4pairIKmSt10unique_ptrIN10prometheus9HistogramESt14default_deleteIS4_EEESaIS8_ENSt8__detail10_Select1stESt8equal_toImESt4hashImENSA_18_Mod_range_hashingENSA_20_Default_ranged_hashENSA_20_Prime_rehash_policyENSA_17_Hashtable_traitsILb0ELb0ELb1EEEE22_M_insert_bucket_beginEmPNSA_10_Hash_nodeIS8_Lb0EEE' type='func-type' binding='weak-binding' visibility='default-visibility' is-defined='yes'/>
    <elf-symbol name='_ZNSt10_HashtableImSt4pairIKmSt10unique_ptrIN10prometheus9HistogramESt14default_deleteIS4_EEESaIS8_ENSt8__detail10_Select1stESt8equal_toImESt4hashImENSA_18_Mod_range_hashingENSA_20_Default_ranged_hashENSA_20_Prime_rehash_policyENSA_17_Hashtable_traitsILb0ELb0ELb1EEEE22_M_remove_bucket_beginEmPNSA_10_Hash_nodeIS8_Lb0EEEm' type='func-type' binding='weak-binding' visibility='default-visibility' is-defined='yes'/>
    <elf-symbol name='_ZNSt10_HashtableImSt4pairIKmSt10unique_ptrIN10prometheus9HistogramESt14default_deleteIS4_EEESaIS8_ENSt8__detail10_Select1stESt8equal_toImESt4hashImENSA_18_Mod_range_hashingENSA_20_Default_ranged_hashENSA_20_Prime_rehash_policyENSA_17_Hashtable_traitsILb0ELb0ELb1EEEE3endEv' type='func-type' binding='weak-binding' visibility='default-visibility' is-defined='yes'/>
    <elf-symbol name='_ZNSt10_HashtableImSt4pairIKmSt10unique_ptrIN10prometheus9HistogramESt14default_deleteIS4_EEESaIS8_ENSt8__detail10_Select1stESt8equal_toImESt4hashImENSA_18_Mod_range_hashingENSA_20_Default_ranged_hashENSA_20_Prime_rehash_policyENSA_17_Hashtable_traitsILb0ELb0ELb1EEEE4findERS1_' type='func-type' binding='weak-binding' visibility='default-visibility' is-defined='yes'/>
    <elf-symbol name='_ZNSt10_HashtableImSt4pairIKmSt10unique_ptrIN10prometheus9HistogramESt14default_deleteIS4_EEESaIS8_ENSt8__detail10_Select1stESt8equal_toImESt4hashImENSA_18_Mod_range_hashingENSA_20_Default_ranged_hashENSA_20_Prime_rehash_policyENSA_17_Hashtable_traitsILb0ELb0ELb1EEEE5clearEv' type='func-type' binding='weak-binding' visibility='default-visibility' is-defined='yes'/>
    <elf-symbol name='_ZNSt10_HashtableImSt4pairIKmSt10unique_ptrIN10prometheus9HistogramESt14default_deleteIS4_EEESaIS8_ENSt8__detail10_Select1stESt8equal_toImESt4hashImENSA_18_Mod_range_hashingENSA_20_Default_ranged_hashENSA_20_Prime_rehash_policyENSA_17_Hashtable_traitsILb0ELb0ELb1EEEE5eraseERS1_' type='func-type' binding='weak-binding' visibility='default-visibility' is-defined='yes'/>
    <elf-symbol name='_ZNSt10_HashtableImSt4pairIKmSt10unique_ptrIN10prometheus9HistogramESt14default_deleteIS4_EEESaIS8_ENSt8__detail10_Select1stESt8equal_toImESt4hashImENSA_18_Mod_range_hashingENSA_20_Default_ranged_hashENSA_20_Prime_rehash_policyENSA_17_Hashtable_traitsILb0ELb0ELb1EEEE7emplaceIJS0_ImS7_EEEES0_INSA_14_Node_iteratorIS8_Lb0ELb0EEEbEDpOT_' type='func-type' binding='weak-binding' visibility='default-visibility' is-defined='yes'/>
    <elf-symbol name='_ZNSt10_HashtableImSt4pairIKmSt10unique_ptrIN10prometheus9HistogramESt14default_deleteIS4_EEESaIS8_ENSt8__detail10_Select1stESt8equal_toImESt4hashImENSA_18_Mod_range_hashingENSA_20_Default_ranged_hashENSA_20_Prime_rehash_policyENSA_17_Hashtable_traitsILb0ELb0ELb1EEEE8_M_eraseESt17integral_constantIbLb1EERS1_' type='func-type' binding='weak-binding' visibility='default-visibility' is-defined='yes'/>
    <elf-symbol name='_ZNSt10_HashtableImSt4pairIKmSt10unique_ptrIN10prometheus9HistogramESt14default_deleteIS4_EEESaIS8_ENSt8__detail10_Select1stESt8equal_toImESt4hashImENSA_18_Mod_range_hashingENSA_20_Default_ranged_hashENSA_20_Prime_rehash_policyENSA_17_Hashtable_traitsILb0ELb0ELb1EEEE8_M_eraseEmPNSA_15_Hash_node_baseEPNSA_10_Hash_nodeIS8_Lb0EEE' type='func-type' binding='weak-binding' visibility='default-visibility' is-defined='yes'/>
    <elf-symbol name='_ZNSt10_HashtableImSt4pairIKmSt10unique_ptrIN10prometheus9HistogramESt14default_deleteIS4_EEESaIS8_ENSt8__detail10_Select1stESt8equal_toImESt4hashImENSA_18_Mod_range_hashingENSA_20_Default_ranged_hashENSA_20_Prime_rehash_policyENSA_17_Hashtable_traitsILb0ELb0ELb1EEEE9_M_rehashEmRS1_' type='func-type' binding='weak-binding' visibility='default-visibility' is-defined='yes'/>
    <elf-symbol name='_ZNSt10_HashtableImSt4pairIKmSt10unique_ptrIN10prometheus9HistogramESt14default_deleteIS4_EEESaIS8_ENSt8__detail10_Select1stESt8equal_toImESt4hashImENSA_18_Mod_range_hashingENSA_20_Default_ranged_hashENSA_20_Prime_rehash_policyENSA_17_Hashtable_traitsILb0ELb0ELb1EEEED1Ev' type='func-type' binding='weak-binding' visibility='default-visibility' is-defined='yes'/>
    <elf-symbol name='_ZNSt10_HashtableImSt4pairIKmSt10unique_ptrIN10prometheus9HistogramESt14default_deleteIS4_EEESaIS8_ENSt8__detail10_Select1stESt8equal_toImESt4hashImENSA_18_Mod_range_hashingENSA_20_Default_ranged_hashENSA_20_Prime_rehash_policyENSA_17_Hashtable_traitsILb0ELb0ELb1EEEED2Ev' type='func-type' binding='weak-binding' visibility='default-visibility' alias='_ZNSt10_HashtableImSt4pairIKmSt10unique_ptrIN10prometheus9HistogramESt14default_deleteIS4_EEESaIS8_ENSt8__detail10_Select1stESt8equal_toImESt4hashImENSA_18_Mod_range_hashingENSA_20_Default_ranged_hashENSA_20_Prime_rehash_policyENSA_17_Hashtable_traitsILb0ELb0ELb1EEEED1Ev' is-defined='yes'/>
    <elf-symbol name='_ZNSt10_HashtableImSt4pairIKmSt3mapINSt7__cxx1112basic_stringIcSt11char_traitsIcESaIcEEES8_St4lessIS8_ESaIS0_IKS8_S8_EEEESaISF_ENSt8__detail10_Select1stESt8equal_toImESt4hashImENSH_18_Mod_range_hashingENSH_20_Default_ranged_hashENSH_20_Prime_rehash_policyENSH_17_Hashtable_traitsILb0ELb0ELb1EEEE10_M_emplaceIJSF_EEES0_INSH_14_Node_iteratorISF_Lb0ELb0EEEbESt17integral_constantIbLb1EEDpOT_' type='func-type' binding='weak-binding' visibility='default-visibility' is-defined='yes'/>
    <elf-symbol name='_ZNSt10_HashtableImSt4pairIKmSt3mapINSt7__cxx1112basic_stringIcSt11char_traitsIcESaIcEEES8_St4lessIS8_ESaIS0_IKS8_S8_EEEESaISF_ENSt8__detail10_Select1stESt8equal_toImESt4hashImENSH_18_Mod_range_hashingENSH_20_Default_ranged_hashENSH_20_Prime_rehash_policyENSH_17_Hashtable_traitsILb0ELb0ELb1EEEE13_M_rehash_auxEmSt17integral_constantIbLb1EE' type='func-type' binding='weak-binding' visibility='default-visibility' is-defined='yes'/>
    <elf-symbol name='_ZNSt10_HashtableImSt4pairIKmSt3mapINSt7__cxx1112basic_stringIcSt11char_traitsIcESaIcEEES8_St4lessIS8_ESaIS0_IKS8_S8_EEEESaISF_ENSt8__detail10_Select1stESt8equal_toImESt4hashImENSH_18_Mod_range_hashingENSH_20_Default_ranged_hashENSH_20_Prime_rehash_policyENSH_17_Hashtable_traitsILb0ELb0ELb1EEEE19_M_allocate_bucketsEm' type='func-type' binding='weak-binding' visibility='default-visibility' is-defined='yes'/>
    <elf-symbol name='_ZNSt10_HashtableImSt4pairIKmSt3mapINSt7__cxx1112basic_stringIcSt11char_traitsIcESaIcEEES8_St4lessIS8_ESaIS0_IKS8_S8_EEEESaISF_ENSt8__detail10_Select1stESt8equal_toImESt4hashImENSH_18_Mod_range_hashingENSH_20_Default_ranged_hashENSH_20_Prime_rehash_policyENSH_17_Hashtable_traitsILb0ELb0ELb1EEEE21_M_deallocate_bucketsEPPNSH_15_Hash_node_baseEm' type='func-type' binding='weak-binding' visibility='default-visibility' is-defined='yes'/>
    <elf-symbol name='_ZNSt10_HashtableImSt4pairIKmSt3mapINSt7__cxx1112basic_stringIcSt11char_traitsIcESaIcEEES8_St4lessIS8_ESaIS0_IKS8_S8_EEEESaISF_ENSt8__detail10_Select1stESt8equal_toImESt4hashImENSH_18_Mod_range_hashingENSH_20_Default_ranged_hashENSH_20_Prime_rehash_policyENSH_17_Hashtable_traitsILb0ELb0ELb1EEEE21_M_deallocate_bucketsEv' type='func-type' binding='weak-binding' visibility='default-visibility' is-defined='yes'/>
    <elf-symbol name='_ZNSt10_HashtableImSt4pairIKmSt3mapINSt7__cxx1112basic_stringIcSt11char_traitsIcESaIcEEES8_St4lessIS8_ESaIS0_IKS8_S8_EEEESaISF_ENSt8__detail10_Select1stESt8equal_toImESt4hashImENSH_18_Mod_range_hashingENSH_20_Default_ranged_hashENSH_20_Prime_rehash_policyENSH_17_Hashtable_traitsILb0ELb0ELb1EEEE21_M_insert_unique_nodeEmmPNSH_10_Hash_nodeISF_Lb0EEEm' type='func-type' binding='weak-binding' visibility='default-visibility' is-defined='yes'/>
    <elf-symbol name='_ZNSt10_HashtableImSt4pairIKmSt3mapINSt7__cxx1112basic_stringIcSt11char_traitsIcESaIcEEES8_St4lessIS8_ESaIS0_IKS8_S8_EEEESaISF_ENSt8__detail10_Select1stESt8equal_toImESt4hashImENSH_18_Mod_range_hashingENSH_20_Default_ranged_hashENSH_20_Prime_rehash_policyENSH_17_Hashtable_traitsILb0ELb0ELb1EEEE22_M_insert_bucket_beginEmPNSH_10_Hash_nodeISF_Lb0EEE' type='func-type' binding='weak-binding' visibility='default-visibility' is-defined='yes'/>
    <elf-symbol name='_ZNSt10_HashtableImSt4pairIKmSt3mapINSt7__cxx1112basic_stringIcSt11char_traitsIcESaIcEEES8_St4lessIS8_ESaIS0_IKS8_S8_EEEESaISF_ENSt8__detail10_Select1stESt8equal_toImESt4hashImENSH_18_Mod_range_hashingENSH_20_Default_ranged_hashENSH_20_Prime_rehash_policyENSH_17_Hashtable_traitsILb0ELb0ELb1EEEE22_M_remove_bucket_beginEmPNSH_10_Hash_nodeISF_Lb0EEEm' type='func-type' binding='weak-binding' visibility='default-visibility' is-defined='yes'/>
    <elf-symbol name='_ZNSt10_HashtableImSt4pairIKmSt3mapINSt7__cxx1112basic_stringIcSt11char_traitsIcESaIcEEES8_St4lessIS8_ESaIS0_IKS8_S8_EEEESaISF_ENSt8__detail10_Select1stESt8equal_toImESt4hashImENSH_18_Mod_range_hashingENSH_20_Default_ranged_hashENSH_20_Prime_rehash_policyENSH_17_Hashtable_traitsILb0ELb0ELb1EEEE3endEv' type='func-type' binding='weak-binding' visibility='default-visibility' is-defined='yes'/>
    <elf-symbol name='_ZNSt10_HashtableImSt4pairIKmSt3mapINSt7__cxx1112basic_stringIcSt11char_traitsIcESaIcEEES8_St4lessIS8_ESaIS0_IKS8_S8_EEEESaISF_ENSt8__detail10_Select1stESt8equal_toImESt4hashImENSH_18_Mod_range_hashingENSH_20_Default_ranged_hashENSH_20_Prime_rehash_policyENSH_17_Hashtable_traitsILb0ELb0ELb1EEEE4findERS1_' type='func-type' binding='weak-binding' visibility='default-visibility' is-defined='yes'/>
    <elf-symbol name='_ZNSt10_HashtableImSt4pairIKmSt3mapINSt7__cxx1112basic_stringIcSt11char_traitsIcESaIcEEES8_St4lessIS8_ESaIS0_IKS8_S8_EEEESaISF_ENSt8__detail10_Select1stESt8equal_toImESt4hashImENSH_18_Mod_range_hashingENSH_20_Default_ranged_hashENSH_20_Prime_rehash_policyENSH_17_Hashtable_traitsILb0ELb0ELb1EEEE5clearEv' type='func-type' binding='weak-binding' visibility='default-visibility' is-defined='yes'/>
    <elf-symbol name='_ZNSt10_HashtableImSt4pairIKmSt3mapINSt7__cxx1112basic_stringIcSt11char_traitsIcESaIcEEES8_St4lessIS8_ESaIS0_IKS8_S8_EEEESaISF_ENSt8__detail10_Select1stESt8equal_toImESt4hashImENSH_18_Mod_range_hashingENSH_20_Default_ranged_hashENSH_20_Prime_rehash_policyENSH_17_Hashtable_traitsILb0ELb0ELb1EEEE5eraseERS1_' type='func-type' binding='weak-binding' visibility='default-visibility' is-defined='yes'/>
    <elf-symbol name='_ZNSt10_HashtableImSt4pairIKmSt3mapINSt7__cxx1112basic_stringIcSt11char_traitsIcESaIcEEES8_St4lessIS8_ESaIS0_IKS8_S8_EEEESaISF_ENSt8__detail10_Select1stESt8equal_toImESt4hashImENSH_18_Mod_range_hashingENSH_20_Default_ranged_hashENSH_20_Prime_rehash_policyENSH_17_Hashtable_traitsILb0ELb0ELb1EEEE8_M_eraseESt17integral_constantIbLb1EERS1_' type='func-type' binding='weak-binding' visibility='default-visibility' is-defined='yes'/>
    <elf-symbol name='_ZNSt10_HashtableImSt4pairIKmSt3mapINSt7__cxx1112basic_stringIcSt11char_traitsIcESaIcEEES8_St4lessIS8_ESaIS0_IKS8_S8_EEEESaISF_ENSt8__detail10_Select1stESt8equal_toImESt4hashImENSH_18_Mod_range_hashingENSH_20_Default_ranged_hashENSH_20_Prime_rehash_policyENSH_17_Hashtable_traitsILb0ELb0ELb1EEEE8_M_eraseEmPNSH_15_Hash_node_baseEPNSH_10_Hash_nodeISF_Lb0EEE' type='func-type' binding='weak-binding' visibility='default-visibility' is-defined='yes'/>
    <elf-symbol name='_ZNSt10_HashtableImSt4pairIKmSt3mapINSt7__cxx1112basic_stringIcSt11char_traitsIcESaIcEEES8_St4lessIS8_ESaIS0_IKS8_S8_EEEESaISF_ENSt8__detail10_Select1stESt8equal_toImESt4hashImENSH_18_Mod_range_hashingENSH_20_Default_ranged_hashENSH_20_Prime_rehash_policyENSH_17_Hashtable_traitsILb0ELb0ELb1EEEE9_M_rehashEmRS1_' type='func-type' binding='weak-binding' visibility='default-visibility' is-defined='yes'/>
    <elf-symbol name='_ZNSt10_HashtableImSt4pairIKmSt3mapINSt7__cxx1112basic_stringIcSt11char_traitsIcESaIcEEES8_St4lessIS8_ESaIS0_IKS8_S8_EEEESaISF_ENSt8__detail10_Select1stESt8equal_toImESt4hashImENSH_18_Mod_range_hashingENSH_20_Default_ranged_hashENSH_20_Prime_rehash_policyENSH_17_Hashtable_traitsILb0ELb0ELb1EEEED1Ev' type='func-type' binding='weak-binding' visibility='default-visibility' alias='_ZNSt10_HashtableImSt4pairIKmSt3mapINSt7__cxx1112basic_stringIcSt11char_traitsIcESaIcEEES8_St4lessIS8_ESaIS0_IKS8_S8_EEEESaISF_ENSt8__detail10_Select1stESt8equal_toImESt4hashImENSH_18_Mod_range_hashingENSH_20_Default_ranged_hashENSH_20_Prime_rehash_policyENSH_17_Hashtable_traitsILb0ELb0ELb1EEEED2Ev' is-defined='yes'/>
    <elf-symbol name='_ZNSt10_HashtableImSt4pairIKmSt3mapINSt7__cxx1112basic_stringIcSt11char_traitsIcESaIcEEES8_St4lessIS8_ESaIS0_IKS8_S8_EEEESaISF_ENSt8__detail10_Select1stESt8equal_toImESt4hashImENSH_18_Mod_range_hashingENSH_20_Default_ranged_hashENSH_20_Prime_rehash_policyENSH_17_Hashtable_traitsILb0ELb0ELb1EEEED2Ev' type='func-type' binding='weak-binding' visibility='default-visibility' is-defined='yes'/>
    <elf-symbol name='_ZNSt10_Head_baseILm0EPN10prometheus5GaugeELb0EE7_M_headERKS3_' type='func-type' binding='weak-binding' visibility='default-visibility' is-defined='yes'/>
    <elf-symbol name='_ZNSt10_Head_baseILm0EPN10prometheus5GaugeELb0EE7_M_headERS3_' type='func-type' binding='weak-binding' visibility='default-visibility' is-defined='yes'/>
    <elf-symbol name='_ZNSt10_Head_baseILm0EPN10prometheus5GaugeELb0EEC1IRS2_EEOT_' type='func-type' binding='weak-binding' visibility='default-visibility' is-defined='yes'/>
    <elf-symbol name='_ZNSt10_Head_baseILm0EPN10prometheus5GaugeELb0EEC2IRS2_EEOT_' type='func-type' binding='weak-binding' visibility='default-visibility' alias='_ZNSt10_Head_baseILm0EPN10prometheus5GaugeELb0EEC1IRS2_EEOT_' is-defined='yes'/>
    <elf-symbol name='_ZNSt10_Head_baseILm0EPN10prometheus6FamilyINS0_5GaugeEEELb0EE7_M_headERKS5_' type='func-type' binding='weak-binding' visibility='default-visibility' is-defined='yes'/>
    <elf-symbol name='_ZNSt10_Head_baseILm0EPN10prometheus6FamilyINS0_5GaugeEEELb0EE7_M_headERS5_' type='func-type' binding='weak-binding' visibility='default-visibility' is-defined='yes'/>
    <elf-symbol name='_ZNSt10_Head_baseILm0EPN10prometheus6FamilyINS0_5GaugeEEELb0EEC1Ev' type='func-type' binding='weak-binding' visibility='default-visibility' is-defined='yes'/>
    <elf-symbol name='_ZNSt10_Head_baseILm0EPN10prometheus6FamilyINS0_5GaugeEEELb0EEC1IRS4_EEOT_' type='func-type' binding='weak-binding' visibility='default-visibility' is-defined='yes'/>
    <elf-symbol name='_ZNSt10_Head_baseILm0EPN10prometheus6FamilyINS0_5GaugeEEELb0EEC2Ev' type='func-type' binding='weak-binding' visibility='default-visibility' alias='_ZNSt10_Head_baseILm0EPN10prometheus6FamilyINS0_5GaugeEEELb0EEC1Ev' is-defined='yes'/>
    <elf-symbol name='_ZNSt10_Head_baseILm0EPN10prometheus6FamilyINS0_5GaugeEEELb0EEC2IRS4_EEOT_' type='func-type' binding='weak-binding' visibility='default-visibility' alias='_ZNSt10_Head_baseILm0EPN10prometheus6FamilyINS0_5GaugeEEELb0EEC1IRS4_EEOT_' is-defined='yes'/>
    <elf-symbol name='_ZNSt10_Head_baseILm0EPN10prometheus6FamilyINS0_7CounterEEELb0EE7_M_headERKS5_' type='func-type' binding='weak-binding' visibility='default-visibility' is-defined='yes'/>
    <elf-symbol name='_ZNSt10_Head_baseILm0EPN10prometheus6FamilyINS0_7CounterEEELb0EE7_M_headERS5_' type='func-type' binding='weak-binding' visibility='default-visibility' is-defined='yes'/>
    <elf-symbol name='_ZNSt10_Head_baseILm0EPN10prometheus6FamilyINS0_7CounterEEELb0EEC1Ev' type='func-type' binding='weak-binding' visibility='default-visibility' is-defined='yes'/>
    <elf-symbol name='_ZNSt10_Head_baseILm0EPN10prometheus6FamilyINS0_7CounterEEELb0EEC1IRS4_EEOT_' type='func-type' binding='weak-binding' visibility='default-visibility' is-defined='yes'/>
    <elf-symbol name='_ZNSt10_Head_baseILm0EPN10prometheus6FamilyINS0_7CounterEEELb0EEC2Ev' type='func-type' binding='weak-binding' visibility='default-visibility' alias='_ZNSt10_Head_baseILm0EPN10prometheus6FamilyINS0_7CounterEEELb0EEC1Ev' is-defined='yes'/>
    <elf-symbol name='_ZNSt10_Head_baseILm0EPN10prometheus6FamilyINS0_7CounterEEELb0EEC2IRS4_EEOT_' type='func-type' binding='weak-binding' visibility='default-visibility' alias='_ZNSt10_Head_baseILm0EPN10prometheus6FamilyINS0_7CounterEEELb0EEC1IRS4_EEOT_' is-defined='yes'/>
    <elf-symbol name='_ZNSt10_Head_baseILm0EPN10prometheus6FamilyINS0_7SummaryEEELb0EE7_M_headERKS5_' type='func-type' binding='weak-binding' visibility='default-visibility' is-defined='yes'/>
    <elf-symbol name='_ZNSt10_Head_baseILm0EPN10prometheus6FamilyINS0_7SummaryEEELb0EE7_M_headERS5_' type='func-type' binding='weak-binding' visibility='default-visibility' is-defined='yes'/>
    <elf-symbol name='_ZNSt10_Head_baseILm0EPN10prometheus6FamilyINS0_7SummaryEEELb0EEC1Ev' type='func-type' binding='weak-binding' visibility='default-visibility' is-defined='yes'/>
    <elf-symbol name='_ZNSt10_Head_baseILm0EPN10prometheus6FamilyINS0_7SummaryEEELb0EEC1IRS4_EEOT_' type='func-type' binding='weak-binding' visibility='default-visibility' alias='_ZNSt10_Head_baseILm0EPN10prometheus6FamilyINS0_7SummaryEEELb0EEC2IRS4_EEOT_' is-defined='yes'/>
    <elf-symbol name='_ZNSt10_Head_baseILm0EPN10prometheus6FamilyINS0_7SummaryEEELb0EEC2Ev' type='func-type' binding='weak-binding' visibility='default-visibility' alias='_ZNSt10_Head_baseILm0EPN10prometheus6FamilyINS0_7SummaryEEELb0EEC1Ev' is-defined='yes'/>
    <elf-symbol name='_ZNSt10_Head_baseILm0EPN10prometheus6FamilyINS0_7SummaryEEELb0EEC2IRS4_EEOT_' type='func-type' binding='weak-binding' visibility='default-visibility' is-defined='yes'/>
    <elf-symbol name='_ZNSt10_Head_baseILm0EPN10prometheus6FamilyINS0_9HistogramEEELb0EE7_M_headERKS5_' type='func-type' binding='weak-binding' visibility='default-visibility' is-defined='yes'/>
    <elf-symbol name='_ZNSt10_Head_baseILm0EPN10prometheus6FamilyINS0_9HistogramEEELb0EE7_M_headERS5_' type='func-type' binding='weak-binding' visibility='default-visibility' is-defined='yes'/>
    <elf-symbol name='_ZNSt10_Head_baseILm0EPN10prometheus6FamilyINS0_9HistogramEEELb0EEC1Ev' type='func-type' binding='weak-binding' visibility='default-visibility' is-defined='yes'/>
    <elf-symbol name='_ZNSt10_Head_baseILm0EPN10prometheus6FamilyINS0_9HistogramEEELb0EEC1IRS4_EEOT_' type='func-type' binding='weak-binding' visibility='default-visibility' is-defined='yes'/>
    <elf-symbol name='_ZNSt10_Head_baseILm0EPN10prometheus6FamilyINS0_9HistogramEEELb0EEC2Ev' type='func-type' binding='weak-binding' visibility='default-visibility' alias='_ZNSt10_Head_baseILm0EPN10prometheus6FamilyINS0_9HistogramEEELb0EEC1Ev' is-defined='yes'/>
    <elf-symbol name='_ZNSt10_Head_baseILm0EPN10prometheus6FamilyINS0_9HistogramEEELb0EEC2IRS4_EEOT_' type='func-type' binding='weak-binding' visibility='default-visibility' alias='_ZNSt10_Head_baseILm0EPN10prometheus6FamilyINS0_9HistogramEEELb0EEC1IRS4_EEOT_' is-defined='yes'/>
    <elf-symbol name='_ZNSt10_Head_baseILm0EPN10prometheus7CounterELb0EE7_M_headERKS3_' type='func-type' binding='weak-binding' visibility='default-visibility' is-defined='yes'/>
    <elf-symbol name='_ZNSt10_Head_baseILm0EPN10prometheus7CounterELb0EE7_M_headERS3_' type='func-type' binding='weak-binding' visibility='default-visibility' is-defined='yes'/>
    <elf-symbol name='_ZNSt10_Head_baseILm0EPN10prometheus7CounterELb0EEC1IRS2_EEOT_' type='func-type' binding='weak-binding' visibility='default-visibility' alias='_ZNSt10_Head_baseILm0EPN10prometheus7CounterELb0EEC2IRS2_EEOT_' is-defined='yes'/>
    <elf-symbol name='_ZNSt10_Head_baseILm0EPN10prometheus7CounterELb0EEC2IRS2_EEOT_' type='func-type' binding='weak-binding' visibility='default-visibility' is-defined='yes'/>
    <elf-symbol name='_ZNSt10_Head_baseILm0EPN10prometheus7SummaryELb0EE7_M_headERKS3_' type='func-type' binding='weak-binding' visibility='default-visibility' is-defined='yes'/>
    <elf-symbol name='_ZNSt10_Head_baseILm0EPN10prometheus7SummaryELb0EE7_M_headERS3_' type='func-type' binding='weak-binding' visibility='default-visibility' is-defined='yes'/>
    <elf-symbol name='_ZNSt10_Head_baseILm0EPN10prometheus7SummaryELb0EEC1IRS2_EEOT_' type='func-type' binding='weak-binding' visibility='default-visibility' alias='_ZNSt10_Head_baseILm0EPN10prometheus7SummaryELb0EEC2IRS2_EEOT_' is-defined='yes'/>
    <elf-symbol name='_ZNSt10_Head_baseILm0EPN10prometheus7SummaryELb0EEC2IRS2_EEOT_' type='func-type' binding='weak-binding' visibility='default-visibility' is-defined='yes'/>
    <elf-symbol name='_ZNSt10_Head_baseILm0EPN10prometheus9HistogramELb0EE7_M_headERKS3_' type='func-type' binding='weak-binding' visibility='default-visibility' is-defined='yes'/>
    <elf-symbol name='_ZNSt10_Head_baseILm0EPN10prometheus9HistogramELb0EE7_M_headERS3_' type='func-type' binding='weak-binding' visibility='default-visibility' is-defined='yes'/>
    <elf-symbol name='_ZNSt10_Head_baseILm0EPN10prometheus9HistogramELb0EEC1IRS2_EEOT_' type='func-type' binding='weak-binding' visibility='default-visibility' is-defined='yes'/>
    <elf-symbol name='_ZNSt10_Head_baseILm0EPN10prometheus9HistogramELb0EEC2IRS2_EEOT_' type='func-type' binding='weak-binding' visibility='default-visibility' alias='_ZNSt10_Head_baseILm0EPN10prometheus9HistogramELb0EEC1IRS2_EEOT_' is-defined='yes'/>
    <elf-symbol name='_ZNSt10_Head_baseILm0ERKNSt7__cxx1112basic_stringIcSt11char_traitsIcESaIcEEELb0EE7_M_headERKS8_' type='func-type' binding='weak-binding' visibility='default-visibility' is-defined='yes'/>
    <elf-symbol name='_ZNSt10_Head_baseILm0ERKNSt7__cxx1112basic_stringIcSt11char_traitsIcESaIcEEELb0EEC1ES7_' type='func-type' binding='weak-binding' visibility='default-visibility' is-defined='yes'/>
    <elf-symbol name='_ZNSt10_Head_baseILm0ERKNSt7__cxx1112basic_stringIcSt11char_traitsIcESaIcEEELb0EEC2ES7_' type='func-type' binding='weak-binding' visibility='default-visibility' alias='_ZNSt10_Head_baseILm0ERKNSt7__cxx1112basic_stringIcSt11char_traitsIcESaIcEEELb0EEC1ES7_' is-defined='yes'/>
    <elf-symbol name='_ZNSt10_Head_baseILm1ERKSt3mapINSt7__cxx1112basic_stringIcSt11char_traitsIcESaIcEEES6_St4lessIS6_ESaISt4pairIKS6_S6_EEELb0EE7_M_headERKSG_' type='func-type' binding='weak-binding' visibility='default-visibility' is-defined='yes'/>
    <elf-symbol name='_ZNSt10_Head_baseILm1ERKSt3mapINSt7__cxx1112basic_stringIcSt11char_traitsIcESaIcEEES6_St4lessIS6_ESaISt4pairIKS6_S6_EEELb0EEC1ESF_' type='func-type' binding='weak-binding' visibility='default-visibility' alias='_ZNSt10_Head_baseILm1ERKSt3mapINSt7__cxx1112basic_stringIcSt11char_traitsIcESaIcEEES6_St4lessIS6_ESaISt4pairIKS6_S6_EEELb0EEC2ESF_' is-defined='yes'/>
    <elf-symbol name='_ZNSt10_Head_baseILm1ERKSt3mapINSt7__cxx1112basic_stringIcSt11char_traitsIcESaIcEEES6_St4lessIS6_ESaISt4pairIKS6_S6_EEELb0EEC2ESF_' type='func-type' binding='weak-binding' visibility='default-visibility' is-defined='yes'/>
    <elf-symbol name='_ZNSt10_Head_baseILm1ESt14default_deleteIN10prometheus5GaugeEELb1EE7_M_headERS4_' type='func-type' binding='weak-binding' visibility='default-visibility' is-defined='yes'/>
    <elf-symbol name='_ZNSt10_Head_baseILm1ESt14default_deleteIN10prometheus5GaugeEELb1EEC1IS3_EEOT_' type='func-type' binding='weak-binding' visibility='default-visibility' is-defined='yes'/>
    <elf-symbol name='_ZNSt10_Head_baseILm1ESt14default_deleteIN10prometheus5GaugeEELb1EEC2IS3_EEOT_' type='func-type' binding='weak-binding' visibility='default-visibility' alias='_ZNSt10_Head_baseILm1ESt14default_deleteIN10prometheus5GaugeEELb1EEC1IS3_EEOT_' is-defined='yes'/>
    <elf-symbol name='_ZNSt10_Head_baseILm1ESt14default_deleteIN10prometheus7CounterEELb1EE7_M_headERS4_' type='func-type' binding='weak-binding' visibility='default-visibility' is-defined='yes'/>
    <elf-symbol name='_ZNSt10_Head_baseILm1ESt14default_deleteIN10prometheus7CounterEELb1EEC1IS3_EEOT_' type='func-type' binding='weak-binding' visibility='default-visibility' is-defined='yes'/>
    <elf-symbol name='_ZNSt10_Head_baseILm1ESt14default_deleteIN10prometheus7CounterEELb1EEC2IS3_EEOT_' type='func-type' binding='weak-binding' visibility='default-visibility' alias='_ZNSt10_Head_baseILm1ESt14default_deleteIN10prometheus7CounterEELb1EEC1IS3_EEOT_' is-defined='yes'/>
    <elf-symbol name='_ZNSt10_Head_baseILm1ESt14default_deleteIN10prometheus7SummaryEELb1EE7_M_headERS4_' type='func-type' binding='weak-binding' visibility='default-visibility' is-defined='yes'/>
    <elf-symbol name='_ZNSt10_Head_baseILm1ESt14default_deleteIN10prometheus7SummaryEELb1EEC1IS3_EEOT_' type='func-type' binding='weak-binding' visibility='default-visibility' is-defined='yes'/>
    <elf-symbol name='_ZNSt10_Head_baseILm1ESt14default_deleteIN10prometheus7SummaryEELb1EEC2IS3_EEOT_' type='func-type' binding='weak-binding' visibility='default-visibility' alias='_ZNSt10_Head_baseILm1ESt14default_deleteIN10prometheus7SummaryEELb1EEC1IS3_EEOT_' is-defined='yes'/>
    <elf-symbol name='_ZNSt10_Head_baseILm1ESt14default_deleteIN10prometheus9HistogramEELb1EE7_M_headERS4_' type='func-type' binding='weak-binding' visibility='default-visibility' is-defined='yes'/>
    <elf-symbol name='_ZNSt10_Head_baseILm1ESt14default_deleteIN10prometheus9HistogramEELb1EEC1IS3_EEOT_' type='func-type' binding='weak-binding' visibility='default-visibility' alias='_ZNSt10_Head_baseILm1ESt14default_deleteIN10prometheus9HistogramEELb1EEC2IS3_EEOT_' is-defined='yes'/>
    <elf-symbol name='_ZNSt10_Head_baseILm1ESt14default_deleteIN10prometheus9HistogramEELb1EEC2IS3_EEOT_' type='func-type' binding='weak-binding' visibility='default-visibility' is-defined='yes'/>
    <elf-symbol name='_ZNSt10__pair_getILm0EE11__const_getIKPN10prometheus5GaugeEmEERKT_RKSt4pairIS6_T0_E' type='func-type' binding='weak-binding' visibility='default-visibility' is-defined='yes'/>
    <elf-symbol name='_ZNSt10__pair_getILm0EE11__const_getIKPN10prometheus7CounterEmEERKT_RKSt4pairIS6_T0_E' type='func-type' binding='weak-binding' visibility='default-visibility' is-defined='yes'/>
    <elf-symbol name='_ZNSt10__pair_getILm0EE11__const_getIKPN10prometheus7SummaryEmEERKT_RKSt4pairIS6_T0_E' type='func-type' binding='weak-binding' visibility='default-visibility' is-defined='yes'/>
    <elf-symbol name='_ZNSt10__pair_getILm0EE11__const_getIKPN10prometheus9HistogramEmEERKT_RKSt4pairIS6_T0_E' type='func-type' binding='weak-binding' visibility='default-visibility' is-defined='yes'/>
    <elf-symbol name='_ZNSt10__pair_getILm0EE11__const_getIKmSt10unique_ptrIN10prometheus5GaugeESt14default_deleteIS5_EEEERKT_RKSt4pairIS9_T0_E' type='func-type' binding='weak-binding' visibility='default-visibility' is-defined='yes'/>
    <elf-symbol name='_ZNSt10__pair_getILm0EE11__const_getIKmSt10unique_ptrIN10prometheus7CounterESt14default_deleteIS5_EEEERKT_RKSt4pairIS9_T0_E' type='func-type' binding='weak-binding' visibility='default-visibility' is-defined='yes'/>
    <elf-symbol name='_ZNSt10__pair_getILm0EE11__const_getIKmSt10unique_ptrIN10prometheus7SummaryESt14default_deleteIS5_EEEERKT_RKSt4pairIS9_T0_E' type='func-type' binding='weak-binding' visibility='default-visibility' is-defined='yes'/>
    <elf-symbol name='_ZNSt10__pair_getILm0EE11__const_getIKmSt10unique_ptrIN10prometheus9HistogramESt14default_deleteIS5_EEEERKT_RKSt4pairIS9_T0_E' type='func-type' binding='weak-binding' visibility='default-visibility' is-defined='yes'/>
    <elf-symbol name='_ZNSt10__pair_getILm0EE11__const_getIKmSt3mapINSt7__cxx1112basic_stringIcSt11char_traitsIcESaIcEEES9_St4lessIS9_ESaISt4pairIKS9_S9_EEEEERKT_RKSC_ISH_T0_E' type='func-type' binding='weak-binding' visibility='default-visibility' is-defined='yes'/>
    <elf-symbol name='_ZNSt10__pair_getILm0EE5__getIKPN10prometheus5GaugeEmEERT_RSt4pairIS6_T0_E' type='func-type' binding='weak-binding' visibility='default-visibility' is-defined='yes'/>
    <elf-symbol name='_ZNSt10__pair_getILm0EE5__getIKPN10prometheus7CounterEmEERT_RSt4pairIS6_T0_E' type='func-type' binding='weak-binding' visibility='default-visibility' is-defined='yes'/>
    <elf-symbol name='_ZNSt10__pair_getILm0EE5__getIKPN10prometheus7SummaryEmEERT_RSt4pairIS6_T0_E' type='func-type' binding='weak-binding' visibility='default-visibility' is-defined='yes'/>
    <elf-symbol name='_ZNSt10__pair_getILm0EE5__getIKPN10prometheus9HistogramEmEERT_RSt4pairIS6_T0_E' type='func-type' binding='weak-binding' visibility='default-visibility' is-defined='yes'/>
    <elf-symbol name='_ZNSt10__pair_getILm0EE5__getIKmSt10unique_ptrIN10prometheus5GaugeESt14default_deleteIS5_EEEERT_RSt4pairIS9_T0_E' type='func-type' binding='weak-binding' visibility='default-visibility' is-defined='yes'/>
    <elf-symbol name='_ZNSt10__pair_getILm0EE5__getIKmSt10unique_ptrIN10prometheus7CounterESt14default_deleteIS5_EEEERT_RSt4pairIS9_T0_E' type='func-type' binding='weak-binding' visibility='default-visibility' is-defined='yes'/>
    <elf-symbol name='_ZNSt10__pair_getILm0EE5__getIKmSt10unique_ptrIN10prometheus7SummaryESt14default_deleteIS5_EEEERT_RSt4pairIS9_T0_E' type='func-type' binding='weak-binding' visibility='default-visibility' is-defined='yes'/>
    <elf-symbol name='_ZNSt10__pair_getILm0EE5__getIKmSt10unique_ptrIN10prometheus9HistogramESt14default_deleteIS5_EEEERT_RSt4pairIS9_T0_E' type='func-type' binding='weak-binding' visibility='default-visibility' is-defined='yes'/>
    <elf-symbol name='_ZNSt10__pair_getILm0EE5__getIKmSt3mapINSt7__cxx1112basic_stringIcSt11char_traitsIcESaIcEEES9_St4lessIS9_ESaISt4pairIKS9_S9_EEEEERT_RSC_ISH_T0_E' type='func-type' binding='weak-binding' visibility='default-visibility' is-defined='yes'/>
    <elf-symbol name='_ZNSt10lock_guardISt5mutexEC1ERS0_' type='func-type' binding='weak-binding' visibility='default-visibility' is-defined='yes'/>
    <elf-symbol name='_ZNSt10lock_guardISt5mutexEC2ERS0_' type='func-type' binding='weak-binding' visibility='default-visibility' alias='_ZNSt10lock_guardISt5mutexEC1ERS0_' is-defined='yes'/>
    <elf-symbol name='_ZNSt10lock_guardISt5mutexED1Ev' type='func-type' binding='weak-binding' visibility='default-visibility' is-defined='yes'/>
    <elf-symbol name='_ZNSt10lock_guardISt5mutexED2Ev' type='func-type' binding='weak-binding' visibility='default-visibility' alias='_ZNSt10lock_guardISt5mutexED1Ev' is-defined='yes'/>
    <elf-symbol name='_ZNSt10unique_ptrIN10prometheus5GaugeESt14default_deleteIS1_EE11get_deleterEv' type='func-type' binding='weak-binding' visibility='default-visibility' is-defined='yes'/>
    <elf-symbol name='_ZNSt10unique_ptrIN10prometheus5GaugeESt14default_deleteIS1_EE7releaseEv' type='func-type' binding='weak-binding' visibility='default-visibility' is-defined='yes'/>
    <elf-symbol name='_ZNSt10unique_ptrIN10prometheus5GaugeESt14default_deleteIS1_EEC1EOS4_' type='func-type' binding='weak-binding' visibility='default-visibility' is-defined='yes'/>
    <elf-symbol name='_ZNSt10unique_ptrIN10prometheus5GaugeESt14default_deleteIS1_EEC2EOS4_' type='func-type' binding='weak-binding' visibility='default-visibility' alias='_ZNSt10unique_ptrIN10prometheus5GaugeESt14default_deleteIS1_EEC1EOS4_' is-defined='yes'/>
    <elf-symbol name='_ZNSt10unique_ptrIN10prometheus5GaugeESt14default_deleteIS1_EED1Ev' type='func-type' binding='weak-binding' visibility='default-visibility' is-defined='yes'/>
    <elf-symbol name='_ZNSt10unique_ptrIN10prometheus5GaugeESt14default_deleteIS1_EED2Ev' type='func-type' binding='weak-binding' visibility='default-visibility' alias='_ZNSt10unique_ptrIN10prometheus5GaugeESt14default_deleteIS1_EED1Ev' is-defined='yes'/>
    <elf-symbol name='_ZNSt10unique_ptrIN10prometheus7CounterESt14default_deleteIS1_EE11get_deleterEv' type='func-type' binding='weak-binding' visibility='default-visibility' is-defined='yes'/>
    <elf-symbol name='_ZNSt10unique_ptrIN10prometheus7CounterESt14default_deleteIS1_EE7releaseEv' type='func-type' binding='weak-binding' visibility='default-visibility' is-defined='yes'/>
    <elf-symbol name='_ZNSt10unique_ptrIN10prometheus7CounterESt14default_deleteIS1_EEC1EOS4_' type='func-type' binding='weak-binding' visibility='default-visibility' is-defined='yes'/>
    <elf-symbol name='_ZNSt10unique_ptrIN10prometheus7CounterESt14default_deleteIS1_EEC2EOS4_' type='func-type' binding='weak-binding' visibility='default-visibility' alias='_ZNSt10unique_ptrIN10prometheus7CounterESt14default_deleteIS1_EEC1EOS4_' is-defined='yes'/>
    <elf-symbol name='_ZNSt10unique_ptrIN10prometheus7CounterESt14default_deleteIS1_EED1Ev' type='func-type' binding='weak-binding' visibility='default-visibility' is-defined='yes'/>
    <elf-symbol name='_ZNSt10unique_ptrIN10prometheus7CounterESt14default_deleteIS1_EED2Ev' type='func-type' binding='weak-binding' visibility='default-visibility' alias='_ZNSt10unique_ptrIN10prometheus7CounterESt14default_deleteIS1_EED1Ev' is-defined='yes'/>
    <elf-symbol name='_ZNSt10unique_ptrIN10prometheus7SummaryESt14default_deleteIS1_EE11get_deleterEv' type='func-type' binding='weak-binding' visibility='default-visibility' is-defined='yes'/>
    <elf-symbol name='_ZNSt10unique_ptrIN10prometheus7SummaryESt14default_deleteIS1_EE7releaseEv' type='func-type' binding='weak-binding' visibility='default-visibility' is-defined='yes'/>
    <elf-symbol name='_ZNSt10unique_ptrIN10prometheus7SummaryESt14default_deleteIS1_EEC1EOS4_' type='func-type' binding='weak-binding' visibility='default-visibility' is-defined='yes'/>
    <elf-symbol name='_ZNSt10unique_ptrIN10prometheus7SummaryESt14default_deleteIS1_EEC2EOS4_' type='func-type' binding='weak-binding' visibility='default-visibility' alias='_ZNSt10unique_ptrIN10prometheus7SummaryESt14default_deleteIS1_EEC1EOS4_' is-defined='yes'/>
    <elf-symbol name='_ZNSt10unique_ptrIN10prometheus7SummaryESt14default_deleteIS1_EED1Ev' type='func-type' binding='weak-binding' visibility='default-visibility' alias='_ZNSt10unique_ptrIN10prometheus7SummaryESt14default_deleteIS1_EED2Ev' is-defined='yes'/>
    <elf-symbol name='_ZNSt10unique_ptrIN10prometheus7SummaryESt14default_deleteIS1_EED2Ev' type='func-type' binding='weak-binding' visibility='default-visibility' is-defined='yes'/>
    <elf-symbol name='_ZNSt10unique_ptrIN10prometheus9HistogramESt14default_deleteIS1_EE11get_deleterEv' type='func-type' binding='weak-binding' visibility='default-visibility' is-defined='yes'/>
    <elf-symbol name='_ZNSt10unique_ptrIN10prometheus9HistogramESt14default_deleteIS1_EE7releaseEv' type='func-type' binding='weak-binding' visibility='default-visibility' is-defined='yes'/>
    <elf-symbol name='_ZNSt10unique_ptrIN10prometheus9HistogramESt14default_deleteIS1_EEC1EOS4_' type='func-type' binding='weak-binding' visibility='default-visibility' alias='_ZNSt10unique_ptrIN10prometheus9HistogramESt14default_deleteIS1_EEC2EOS4_' is-defined='yes'/>
    <elf-symbol name='_ZNSt10unique_ptrIN10prometheus9HistogramESt14default_deleteIS1_EEC2EOS4_' type='func-type' binding='weak-binding' visibility='default-visibility' is-defined='yes'/>
    <elf-symbol name='_ZNSt10unique_ptrIN10prometheus9HistogramESt14default_deleteIS1_EED1Ev' type='func-type' binding='weak-binding' visibility='default-visibility' alias='_ZNSt10unique_ptrIN10prometheus9HistogramESt14default_deleteIS1_EED2Ev' is-defined='yes'/>
    <elf-symbol name='_ZNSt10unique_ptrIN10prometheus9HistogramESt14default_deleteIS1_EED2Ev' type='func-type' binding='weak-binding' visibility='default-visibility' is-defined='yes'/>
    <elf-symbol name='_ZNSt11_Tuple_implILm0EJPN10prometheus5GaugeESt14default_deleteIS1_EEE7_M_headERKS5_' type='func-type' binding='weak-binding' visibility='default-visibility' is-defined='yes'/>
    <elf-symbol name='_ZNSt11_Tuple_implILm0EJPN10prometheus5GaugeESt14default_deleteIS1_EEE7_M_headERS5_' type='func-type' binding='weak-binding' visibility='default-visibility' is-defined='yes'/>
    <elf-symbol name='_ZNSt11_Tuple_implILm0EJPN10prometheus5GaugeESt14default_deleteIS1_EEEC1IRS2_JS4_EvEEOT_DpOT0_' type='func-type' binding='weak-binding' visibility='default-visibility' is-defined='yes'/>
    <elf-symbol name='_ZNSt11_Tuple_implILm0EJPN10prometheus5GaugeESt14default_deleteIS1_EEEC2IRS2_JS4_EvEEOT_DpOT0_' type='func-type' binding='weak-binding' visibility='default-visibility' alias='_ZNSt11_Tuple_implILm0EJPN10prometheus5GaugeESt14default_deleteIS1_EEEC1IRS2_JS4_EvEEOT_DpOT0_' is-defined='yes'/>
    <elf-symbol name='_ZNSt11_Tuple_implILm0EJPN10prometheus7CounterESt14default_deleteIS1_EEE7_M_headERKS5_' type='func-type' binding='weak-binding' visibility='default-visibility' is-defined='yes'/>
    <elf-symbol name='_ZNSt11_Tuple_implILm0EJPN10prometheus7CounterESt14default_deleteIS1_EEE7_M_headERS5_' type='func-type' binding='weak-binding' visibility='default-visibility' is-defined='yes'/>
    <elf-symbol name='_ZNSt11_Tuple_implILm0EJPN10prometheus7CounterESt14default_deleteIS1_EEEC1IRS2_JS4_EvEEOT_DpOT0_' type='func-type' binding='weak-binding' visibility='default-visibility' alias='_ZNSt11_Tuple_implILm0EJPN10prometheus7CounterESt14default_deleteIS1_EEEC2IRS2_JS4_EvEEOT_DpOT0_' is-defined='yes'/>
    <elf-symbol name='_ZNSt11_Tuple_implILm0EJPN10prometheus7CounterESt14default_deleteIS1_EEEC2IRS2_JS4_EvEEOT_DpOT0_' type='func-type' binding='weak-binding' visibility='default-visibility' is-defined='yes'/>
    <elf-symbol name='_ZNSt11_Tuple_implILm0EJPN10prometheus7SummaryESt14default_deleteIS1_EEE7_M_headERKS5_' type='func-type' binding='weak-binding' visibility='default-visibility' is-defined='yes'/>
    <elf-symbol name='_ZNSt11_Tuple_implILm0EJPN10prometheus7SummaryESt14default_deleteIS1_EEE7_M_headERS5_' type='func-type' binding='weak-binding' visibility='default-visibility' is-defined='yes'/>
    <elf-symbol name='_ZNSt11_Tuple_implILm0EJPN10prometheus7SummaryESt14default_deleteIS1_EEEC1IRS2_JS4_EvEEOT_DpOT0_' type='func-type' binding='weak-binding' visibility='default-visibility' is-defined='yes'/>
    <elf-symbol name='_ZNSt11_Tuple_implILm0EJPN10prometheus7SummaryESt14default_deleteIS1_EEEC2IRS2_JS4_EvEEOT_DpOT0_' type='func-type' binding='weak-binding' visibility='default-visibility' alias='_ZNSt11_Tuple_implILm0EJPN10prometheus7SummaryESt14default_deleteIS1_EEEC1IRS2_JS4_EvEEOT_DpOT0_' is-defined='yes'/>
    <elf-symbol name='_ZNSt11_Tuple_implILm0EJPN10prometheus9HistogramESt14default_deleteIS1_EEE7_M_headERKS5_' type='func-type' binding='weak-binding' visibility='default-visibility' is-defined='yes'/>
    <elf-symbol name='_ZNSt11_Tuple_implILm0EJPN10prometheus9HistogramESt14default_deleteIS1_EEE7_M_headERS5_' type='func-type' binding='weak-binding' visibility='default-visibility' is-defined='yes'/>
    <elf-symbol name='_ZNSt11_Tuple_implILm0EJPN10prometheus9HistogramESt14default_deleteIS1_EEEC1IRS2_JS4_EvEEOT_DpOT0_' type='func-type' binding='weak-binding' visibility='default-visibility' is-defined='yes'/>
    <elf-symbol name='_ZNSt11_Tuple_implILm0EJPN10prometheus9HistogramESt14default_deleteIS1_EEEC2IRS2_JS4_EvEEOT_DpOT0_' type='func-type' binding='weak-binding' visibility='default-visibility' alias='_ZNSt11_Tuple_implILm0EJPN10prometheus9HistogramESt14default_deleteIS1_EEEC1IRS2_JS4_EvEEOT_DpOT0_' is-defined='yes'/>
    <elf-symbol name='_ZNSt11_Tuple_implILm0EJRKNSt7__cxx1112basic_stringIcSt11char_traitsIcESaIcEEERKSt3mapIS5_S5_St4lessIS5_ESaISt4pairIS6_S5_EEEEE7_M_headERKSH_' type='func-type' binding='weak-binding' visibility='default-visibility' is-defined='yes'/>
    <elf-symbol name='_ZNSt11_Tuple_implILm0EJRKNSt7__cxx1112basic_stringIcSt11char_traitsIcESaIcEEERKSt3mapIS5_S5_St4lessIS5_ESaISt4pairIS6_S5_EEEEEC1ES7_SG_' type='func-type' binding='weak-binding' visibility='default-visibility' is-defined='yes'/>
    <elf-symbol name='_ZNSt11_Tuple_implILm0EJRKNSt7__cxx1112basic_stringIcSt11char_traitsIcESaIcEEERKSt3mapIS5_S5_St4lessIS5_ESaISt4pairIS6_S5_EEEEEC2ES7_SG_' type='func-type' binding='weak-binding' visibility='default-visibility' alias='_ZNSt11_Tuple_implILm0EJRKNSt7__cxx1112basic_stringIcSt11char_traitsIcESaIcEEERKSt3mapIS5_S5_St4lessIS5_ESaISt4pairIS6_S5_EEEEEC1ES7_SG_' is-defined='yes'/>
    <elf-symbol name='_ZNSt11_Tuple_implILm1EJRKSt3mapINSt7__cxx1112basic_stringIcSt11char_traitsIcESaIcEEES6_St4lessIS6_ESaISt4pairIKS6_S6_EEEEE7_M_headERKSG_' type='func-type' binding='weak-binding' visibility='default-visibility' is-defined='yes'/>
    <elf-symbol name='_ZNSt11_Tuple_implILm1EJRKSt3mapINSt7__cxx1112basic_stringIcSt11char_traitsIcESaIcEEES6_St4lessIS6_ESaISt4pairIKS6_S6_EEEEEC1ESF_' type='func-type' binding='weak-binding' visibility='default-visibility' alias='_ZNSt11_Tuple_implILm1EJRKSt3mapINSt7__cxx1112basic_stringIcSt11char_traitsIcESaIcEEES6_St4lessIS6_ESaISt4pairIKS6_S6_EEEEEC2ESF_' is-defined='yes'/>
    <elf-symbol name='_ZNSt11_Tuple_implILm1EJRKSt3mapINSt7__cxx1112basic_stringIcSt11char_traitsIcESaIcEEES6_St4lessIS6_ESaISt4pairIKS6_S6_EEEEEC2ESF_' type='func-type' binding='weak-binding' visibility='default-visibility' is-defined='yes'/>
    <elf-symbol name='_ZNSt11_Tuple_implILm1EJSt14default_deleteIN10prometheus5GaugeEEEE7_M_headERS4_' type='func-type' binding='weak-binding' visibility='default-visibility' is-defined='yes'/>
    <elf-symbol name='_ZNSt11_Tuple_implILm1EJSt14default_deleteIN10prometheus5GaugeEEEEC1IS3_EEOT_' type='func-type' binding='weak-binding' visibility='default-visibility' alias='_ZNSt11_Tuple_implILm1EJSt14default_deleteIN10prometheus5GaugeEEEEC2IS3_EEOT_' is-defined='yes'/>
    <elf-symbol name='_ZNSt11_Tuple_implILm1EJSt14default_deleteIN10prometheus5GaugeEEEEC2IS3_EEOT_' type='func-type' binding='weak-binding' visibility='default-visibility' is-defined='yes'/>
    <elf-symbol name='_ZNSt11_Tuple_implILm1EJSt14default_deleteIN10prometheus7CounterEEEE7_M_headERS4_' type='func-type' binding='weak-binding' visibility='default-visibility' is-defined='yes'/>
    <elf-symbol name='_ZNSt11_Tuple_implILm1EJSt14default_deleteIN10prometheus7CounterEEEEC1IS3_EEOT_' type='func-type' binding='weak-binding' visibility='default-visibility' is-defined='yes'/>
    <elf-symbol name='_ZNSt11_Tuple_implILm1EJSt14default_deleteIN10prometheus7CounterEEEEC2IS3_EEOT_' type='func-type' binding='weak-binding' visibility='default-visibility' alias='_ZNSt11_Tuple_implILm1EJSt14default_deleteIN10prometheus7CounterEEEEC1IS3_EEOT_' is-defined='yes'/>
    <elf-symbol name='_ZNSt11_Tuple_implILm1EJSt14default_deleteIN10prometheus7SummaryEEEE7_M_headERS4_' type='func-type' binding='weak-binding' visibility='default-visibility' is-defined='yes'/>
    <elf-symbol name='_ZNSt11_Tuple_implILm1EJSt14default_deleteIN10prometheus7SummaryEEEEC1IS3_EEOT_' type='func-type' binding='weak-binding' visibility='default-visibility' alias='_ZNSt11_Tuple_implILm1EJSt14default_deleteIN10prometheus7SummaryEEEEC2IS3_EEOT_' is-defined='yes'/>
    <elf-symbol name='_ZNSt11_Tuple_implILm1EJSt14default_deleteIN10prometheus7SummaryEEEEC2IS3_EEOT_' type='func-type' binding='weak-binding' visibility='default-visibility' is-defined='yes'/>
    <elf-symbol name='_ZNSt11_Tuple_implILm1EJSt14default_deleteIN10prometheus9HistogramEEEE7_M_headERS4_' type='func-type' binding='weak-binding' visibility='default-visibility' is-defined='yes'/>
    <elf-symbol name='_ZNSt11_Tuple_implILm1EJSt14default_deleteIN10prometheus9HistogramEEEEC1IS3_EEOT_' type='func-type' binding='weak-binding' visibility='default-visibility' alias='_ZNSt11_Tuple_implILm1EJSt14default_deleteIN10prometheus9HistogramEEEEC2IS3_EEOT_' is-defined='yes'/>
    <elf-symbol name='_ZNSt11_Tuple_implILm1EJSt14default_deleteIN10prometheus9HistogramEEEEC2IS3_EEOT_' type='func-type' binding='weak-binding' visibility='default-visibility' is-defined='yes'/>
    <elf-symbol name='_ZNSt11__copy_moveILb0ELb1ESt26random_access_iterator_tagE8__copy_mIdEEPT_PKS3_S6_S4_' type='func-type' binding='weak-binding' visibility='default-visibility' is-defined='yes'/>
    <elf-symbol name='_ZNSt11__copy_moveILb1ELb0ESt26random_access_iterator_tagE8__copy_mIPN10prometheus12MetricFamilyES5_EET0_T_S7_S6_' type='func-type' binding='weak-binding' visibility='default-visibility' is-defined='yes'/>
    <elf-symbol name='_ZNSt11__copy_moveILb1ELb1ESt26random_access_iterator_tagE8__copy_mIN10prometheus6detail13CKMSQuantiles4ItemEEEPT_PKS7_SA_S8_' type='func-type' binding='weak-binding' visibility='default-visibility' is-defined='yes'/>
    <elf-symbol name='_ZNSt12_Destroy_auxILb0EE9__destroyIPN10prometheus12ClientMetric5LabelEEEvT_S6_' type='func-type' binding='weak-binding' visibility='default-visibility' is-defined='yes'/>
    <elf-symbol name='_ZNSt12_Destroy_auxILb0EE9__destroyIPN10prometheus12ClientMetricEEEvT_S5_' type='func-type' binding='weak-binding' visibility='default-visibility' is-defined='yes'/>
    <elf-symbol name='_ZNSt12_Destroy_auxILb0EE9__destroyIPN10prometheus12MetricFamilyEEEvT_S5_' type='func-type' binding='weak-binding' visibility='default-visibility' is-defined='yes'/>
    <elf-symbol name='_ZNSt12_Destroy_auxILb0EE9__destroyIPN10prometheus6detail13CKMSQuantilesEEEvT_S6_' type='func-type' binding='weak-binding' visibility='default-visibility' is-defined='yes'/>
    <elf-symbol name='_ZNSt12_Destroy_auxILb1EE9__destroyIPN10prometheus12ClientMetric6BucketEEEvT_S6_' type='func-type' binding='weak-binding' visibility='default-visibility' is-defined='yes'/>
    <elf-symbol name='_ZNSt12_Destroy_auxILb1EE9__destroyIPN10prometheus12ClientMetric8QuantileEEEvT_S6_' type='func-type' binding='weak-binding' visibility='default-visibility' is-defined='yes'/>
    <elf-symbol name='_ZNSt12_Destroy_auxILb1EE9__destroyIPN10prometheus6detail13CKMSQuantiles4ItemEEEvT_S7_' type='func-type' binding='weak-binding' visibility='default-visibility' is-defined='yes'/>
    <elf-symbol name='_ZNSt12_Destroy_auxILb1EE9__destroyIPN10prometheus6detail13CKMSQuantiles8QuantileEEEvT_S7_' type='func-type' binding='weak-binding' visibility='default-visibility' is-defined='yes'/>
    <elf-symbol name='_ZNSt12_Destroy_auxILb1EE9__destroyIPN10prometheus7CounterEEEvT_S5_' type='func-type' binding='weak-binding' visibility='default-visibility' is-defined='yes'/>
    <elf-symbol name='_ZNSt12_Destroy_auxILb1EE9__destroyIPdEEvT_S3_' type='func-type' binding='weak-binding' visibility='default-visibility' is-defined='yes'/>
    <elf-symbol name='_ZNSt12_Vector_baseIN10prometheus12ClientMetric5LabelESaIS2_EE11_M_allocateEm' type='func-type' binding='weak-binding' visibility='default-visibility' is-defined='yes'/>
    <elf-symbol name='_ZNSt12_Vector_baseIN10prometheus12ClientMetric5LabelESaIS2_EE12_Vector_implC1EOS5_' type='func-type' binding='weak-binding' visibility='default-visibility' alias='_ZNSt12_Vector_baseIN10prometheus12ClientMetric5LabelESaIS2_EE12_Vector_implC2EOS5_' is-defined='yes'/>
    <elf-symbol name='_ZNSt12_Vector_baseIN10prometheus12ClientMetric5LabelESaIS2_EE12_Vector_implC1ERKS3_' type='func-type' binding='weak-binding' visibility='default-visibility' is-defined='yes'/>
    <elf-symbol name='_ZNSt12_Vector_baseIN10prometheus12ClientMetric5LabelESaIS2_EE12_Vector_implC1Ev' type='func-type' binding='weak-binding' visibility='default-visibility' is-defined='yes'/>
    <elf-symbol name='_ZNSt12_Vector_baseIN10prometheus12ClientMetric5LabelESaIS2_EE12_Vector_implC2EOS5_' type='func-type' binding='weak-binding' visibility='default-visibility' is-defined='yes'/>
    <elf-symbol name='_ZNSt12_Vector_baseIN10prometheus12ClientMetric5LabelESaIS2_EE12_Vector_implC2ERKS3_' type='func-type' binding='weak-binding' visibility='default-visibility' alias='_ZNSt12_Vector_baseIN10prometheus12ClientMetric5LabelESaIS2_EE12_Vector_implC1ERKS3_' is-defined='yes'/>
    <elf-symbol name='_ZNSt12_Vector_baseIN10prometheus12ClientMetric5LabelESaIS2_EE12_Vector_implC2Ev' type='func-type' binding='weak-binding' visibility='default-visibility' alias='_ZNSt12_Vector_baseIN10prometheus12ClientMetric5LabelESaIS2_EE12_Vector_implC1Ev' is-defined='yes'/>
    <elf-symbol name='_ZNSt12_Vector_baseIN10prometheus12ClientMetric5LabelESaIS2_EE13_M_deallocateEPS2_m' type='func-type' binding='weak-binding' visibility='default-visibility' is-defined='yes'/>
    <elf-symbol name='_ZNSt12_Vector_baseIN10prometheus12ClientMetric5LabelESaIS2_EE17_M_create_storageEm' type='func-type' binding='weak-binding' visibility='default-visibility' is-defined='yes'/>
    <elf-symbol name='_ZNSt12_Vector_baseIN10prometheus12ClientMetric5LabelESaIS2_EE17_Vector_impl_dataC1EOS5_' type='func-type' binding='weak-binding' visibility='default-visibility' alias='_ZNSt12_Vector_baseIN10prometheus12ClientMetric5LabelESaIS2_EE17_Vector_impl_dataC2EOS5_' is-defined='yes'/>
    <elf-symbol name='_ZNSt12_Vector_baseIN10prometheus12ClientMetric5LabelESaIS2_EE17_Vector_impl_dataC1Ev' type='func-type' binding='weak-binding' visibility='default-visibility' alias='_ZNSt12_Vector_baseIN10prometheus12ClientMetric5LabelESaIS2_EE17_Vector_impl_dataC2Ev' is-defined='yes'/>
    <elf-symbol name='_ZNSt12_Vector_baseIN10prometheus12ClientMetric5LabelESaIS2_EE17_Vector_impl_dataC2EOS5_' type='func-type' binding='weak-binding' visibility='default-visibility' is-defined='yes'/>
    <elf-symbol name='_ZNSt12_Vector_baseIN10prometheus12ClientMetric5LabelESaIS2_EE17_Vector_impl_dataC2Ev' type='func-type' binding='weak-binding' visibility='default-visibility' is-defined='yes'/>
    <elf-symbol name='_ZNSt12_Vector_baseIN10prometheus12ClientMetric5LabelESaIS2_EE19_M_get_Tp_allocatorEv' type='func-type' binding='weak-binding' visibility='default-visibility' is-defined='yes'/>
    <elf-symbol name='_ZNSt12_Vector_baseIN10prometheus12ClientMetric5LabelESaIS2_EEC1EmRKS3_' type='func-type' binding='weak-binding' visibility='default-visibility' alias='_ZNSt12_Vector_baseIN10prometheus12ClientMetric5LabelESaIS2_EEC2EmRKS3_' is-defined='yes'/>
    <elf-symbol name='_ZNSt12_Vector_baseIN10prometheus12ClientMetric5LabelESaIS2_EEC2EmRKS3_' type='func-type' binding='weak-binding' visibility='default-visibility' is-defined='yes'/>
    <elf-symbol name='_ZNSt12_Vector_baseIN10prometheus12ClientMetric5LabelESaIS2_EED1Ev' type='func-type' binding='weak-binding' visibility='default-visibility' is-defined='yes'/>
    <elf-symbol name='_ZNSt12_Vector_baseIN10prometheus12ClientMetric5LabelESaIS2_EED2Ev' type='func-type' binding='weak-binding' visibility='default-visibility' alias='_ZNSt12_Vector_baseIN10prometheus12ClientMetric5LabelESaIS2_EED1Ev' is-defined='yes'/>
    <elf-symbol name='_ZNSt12_Vector_baseIN10prometheus12ClientMetric6BucketESaIS2_EE11_M_allocateEm' type='func-type' binding='weak-binding' visibility='default-visibility' is-defined='yes'/>
    <elf-symbol name='_ZNSt12_Vector_baseIN10prometheus12ClientMetric6BucketESaIS2_EE12_Vector_implC1EOS5_' type='func-type' binding='weak-binding' visibility='default-visibility' alias='_ZNSt12_Vector_baseIN10prometheus12ClientMetric6BucketESaIS2_EE12_Vector_implC2EOS5_' is-defined='yes'/>
    <elf-symbol name='_ZNSt12_Vector_baseIN10prometheus12ClientMetric6BucketESaIS2_EE12_Vector_implC1ERKS3_' type='func-type' binding='weak-binding' visibility='default-visibility' is-defined='yes'/>
    <elf-symbol name='_ZNSt12_Vector_baseIN10prometheus12ClientMetric6BucketESaIS2_EE12_Vector_implC1Ev' type='func-type' binding='weak-binding' visibility='default-visibility' is-defined='yes'/>
    <elf-symbol name='_ZNSt12_Vector_baseIN10prometheus12ClientMetric6BucketESaIS2_EE12_Vector_implC2EOS5_' type='func-type' binding='weak-binding' visibility='default-visibility' is-defined='yes'/>
    <elf-symbol name='_ZNSt12_Vector_baseIN10prometheus12ClientMetric6BucketESaIS2_EE12_Vector_implC2ERKS3_' type='func-type' binding='weak-binding' visibility='default-visibility' alias='_ZNSt12_Vector_baseIN10prometheus12ClientMetric6BucketESaIS2_EE12_Vector_implC1ERKS3_' is-defined='yes'/>
    <elf-symbol name='_ZNSt12_Vector_baseIN10prometheus12ClientMetric6BucketESaIS2_EE12_Vector_implC2Ev' type='func-type' binding='weak-binding' visibility='default-visibility' alias='_ZNSt12_Vector_baseIN10prometheus12ClientMetric6BucketESaIS2_EE12_Vector_implC1Ev' is-defined='yes'/>
    <elf-symbol name='_ZNSt12_Vector_baseIN10prometheus12ClientMetric6BucketESaIS2_EE13_M_deallocateEPS2_m' type='func-type' binding='weak-binding' visibility='default-visibility' is-defined='yes'/>
    <elf-symbol name='_ZNSt12_Vector_baseIN10prometheus12ClientMetric6BucketESaIS2_EE17_M_create_storageEm' type='func-type' binding='weak-binding' visibility='default-visibility' is-defined='yes'/>
    <elf-symbol name='_ZNSt12_Vector_baseIN10prometheus12ClientMetric6BucketESaIS2_EE17_Vector_impl_dataC1EOS5_' type='func-type' binding='weak-binding' visibility='default-visibility' is-defined='yes'/>
    <elf-symbol name='_ZNSt12_Vector_baseIN10prometheus12ClientMetric6BucketESaIS2_EE17_Vector_impl_dataC1Ev' type='func-type' binding='weak-binding' visibility='default-visibility' is-defined='yes'/>
    <elf-symbol name='_ZNSt12_Vector_baseIN10prometheus12ClientMetric6BucketESaIS2_EE17_Vector_impl_dataC2EOS5_' type='func-type' binding='weak-binding' visibility='default-visibility' alias='_ZNSt12_Vector_baseIN10prometheus12ClientMetric6BucketESaIS2_EE17_Vector_impl_dataC1EOS5_' is-defined='yes'/>
    <elf-symbol name='_ZNSt12_Vector_baseIN10prometheus12ClientMetric6BucketESaIS2_EE17_Vector_impl_dataC2Ev' type='func-type' binding='weak-binding' visibility='default-visibility' alias='_ZNSt12_Vector_baseIN10prometheus12ClientMetric6BucketESaIS2_EE17_Vector_impl_dataC1Ev' is-defined='yes'/>
    <elf-symbol name='_ZNSt12_Vector_baseIN10prometheus12ClientMetric6BucketESaIS2_EE19_M_get_Tp_allocatorEv' type='func-type' binding='weak-binding' visibility='default-visibility' is-defined='yes'/>
    <elf-symbol name='_ZNSt12_Vector_baseIN10prometheus12ClientMetric6BucketESaIS2_EEC1EmRKS3_' type='func-type' binding='weak-binding' visibility='default-visibility' is-defined='yes'/>
    <elf-symbol name='_ZNSt12_Vector_baseIN10prometheus12ClientMetric6BucketESaIS2_EEC2EmRKS3_' type='func-type' binding='weak-binding' visibility='default-visibility' alias='_ZNSt12_Vector_baseIN10prometheus12ClientMetric6BucketESaIS2_EEC1EmRKS3_' is-defined='yes'/>
    <elf-symbol name='_ZNSt12_Vector_baseIN10prometheus12ClientMetric6BucketESaIS2_EED1Ev' type='func-type' binding='weak-binding' visibility='default-visibility' is-defined='yes'/>
    <elf-symbol name='_ZNSt12_Vector_baseIN10prometheus12ClientMetric6BucketESaIS2_EED2Ev' type='func-type' binding='weak-binding' visibility='default-visibility' alias='_ZNSt12_Vector_baseIN10prometheus12ClientMetric6BucketESaIS2_EED1Ev' is-defined='yes'/>
    <elf-symbol name='_ZNSt12_Vector_baseIN10prometheus12ClientMetric8QuantileESaIS2_EE11_M_allocateEm' type='func-type' binding='weak-binding' visibility='default-visibility' is-defined='yes'/>
    <elf-symbol name='_ZNSt12_Vector_baseIN10prometheus12ClientMetric8QuantileESaIS2_EE12_Vector_implC1EOS5_' type='func-type' binding='weak-binding' visibility='default-visibility' alias='_ZNSt12_Vector_baseIN10prometheus12ClientMetric8QuantileESaIS2_EE12_Vector_implC2EOS5_' is-defined='yes'/>
    <elf-symbol name='_ZNSt12_Vector_baseIN10prometheus12ClientMetric8QuantileESaIS2_EE12_Vector_implC1ERKS3_' type='func-type' binding='weak-binding' visibility='default-visibility' alias='_ZNSt12_Vector_baseIN10prometheus12ClientMetric8QuantileESaIS2_EE12_Vector_implC2ERKS3_' is-defined='yes'/>
    <elf-symbol name='_ZNSt12_Vector_baseIN10prometheus12ClientMetric8QuantileESaIS2_EE12_Vector_implC1Ev' type='func-type' binding='weak-binding' visibility='default-visibility' is-defined='yes'/>
    <elf-symbol name='_ZNSt12_Vector_baseIN10prometheus12ClientMetric8QuantileESaIS2_EE12_Vector_implC2EOS5_' type='func-type' binding='weak-binding' visibility='default-visibility' is-defined='yes'/>
    <elf-symbol name='_ZNSt12_Vector_baseIN10prometheus12ClientMetric8QuantileESaIS2_EE12_Vector_implC2ERKS3_' type='func-type' binding='weak-binding' visibility='default-visibility' is-defined='yes'/>
    <elf-symbol name='_ZNSt12_Vector_baseIN10prometheus12ClientMetric8QuantileESaIS2_EE12_Vector_implC2Ev' type='func-type' binding='weak-binding' visibility='default-visibility' alias='_ZNSt12_Vector_baseIN10prometheus12ClientMetric8QuantileESaIS2_EE12_Vector_implC1Ev' is-defined='yes'/>
    <elf-symbol name='_ZNSt12_Vector_baseIN10prometheus12ClientMetric8QuantileESaIS2_EE13_M_deallocateEPS2_m' type='func-type' binding='weak-binding' visibility='default-visibility' is-defined='yes'/>
    <elf-symbol name='_ZNSt12_Vector_baseIN10prometheus12ClientMetric8QuantileESaIS2_EE17_M_create_storageEm' type='func-type' binding='weak-binding' visibility='default-visibility' is-defined='yes'/>
    <elf-symbol name='_ZNSt12_Vector_baseIN10prometheus12ClientMetric8QuantileESaIS2_EE17_Vector_impl_dataC1EOS5_' type='func-type' binding='weak-binding' visibility='default-visibility' is-defined='yes'/>
    <elf-symbol name='_ZNSt12_Vector_baseIN10prometheus12ClientMetric8QuantileESaIS2_EE17_Vector_impl_dataC1Ev' type='func-type' binding='weak-binding' visibility='default-visibility' is-defined='yes'/>
    <elf-symbol name='_ZNSt12_Vector_baseIN10prometheus12ClientMetric8QuantileESaIS2_EE17_Vector_impl_dataC2EOS5_' type='func-type' binding='weak-binding' visibility='default-visibility' alias='_ZNSt12_Vector_baseIN10prometheus12ClientMetric8QuantileESaIS2_EE17_Vector_impl_dataC1EOS5_' is-defined='yes'/>
    <elf-symbol name='_ZNSt12_Vector_baseIN10prometheus12ClientMetric8QuantileESaIS2_EE17_Vector_impl_dataC2Ev' type='func-type' binding='weak-binding' visibility='default-visibility' alias='_ZNSt12_Vector_baseIN10prometheus12ClientMetric8QuantileESaIS2_EE17_Vector_impl_dataC1Ev' is-defined='yes'/>
    <elf-symbol name='_ZNSt12_Vector_baseIN10prometheus12ClientMetric8QuantileESaIS2_EE19_M_get_Tp_allocatorEv' type='func-type' binding='weak-binding' visibility='default-visibility' is-defined='yes'/>
    <elf-symbol name='_ZNSt12_Vector_baseIN10prometheus12ClientMetric8QuantileESaIS2_EEC1EmRKS3_' type='func-type' binding='weak-binding' visibility='default-visibility' is-defined='yes'/>
    <elf-symbol name='_ZNSt12_Vector_baseIN10prometheus12ClientMetric8QuantileESaIS2_EEC2EmRKS3_' type='func-type' binding='weak-binding' visibility='default-visibility' alias='_ZNSt12_Vector_baseIN10prometheus12ClientMetric8QuantileESaIS2_EEC1EmRKS3_' is-defined='yes'/>
    <elf-symbol name='_ZNSt12_Vector_baseIN10prometheus12ClientMetric8QuantileESaIS2_EED1Ev' type='func-type' binding='weak-binding' visibility='default-visibility' is-defined='yes'/>
    <elf-symbol name='_ZNSt12_Vector_baseIN10prometheus12ClientMetric8QuantileESaIS2_EED2Ev' type='func-type' binding='weak-binding' visibility='default-visibility' alias='_ZNSt12_Vector_baseIN10prometheus12ClientMetric8QuantileESaIS2_EED1Ev' is-defined='yes'/>
    <elf-symbol name='_ZNSt12_Vector_baseIN10prometheus12ClientMetricESaIS1_EE11_M_allocateEm' type='func-type' binding='weak-binding' visibility='default-visibility' is-defined='yes'/>
    <elf-symbol name='_ZNSt12_Vector_baseIN10prometheus12ClientMetricESaIS1_EE12_Vector_implC1EOS4_' type='func-type' binding='weak-binding' visibility='default-visibility' alias='_ZNSt12_Vector_baseIN10prometheus12ClientMetricESaIS1_EE12_Vector_implC2EOS4_' is-defined='yes'/>
    <elf-symbol name='_ZNSt12_Vector_baseIN10prometheus12ClientMetricESaIS1_EE12_Vector_implC1ERKS2_' type='func-type' binding='weak-binding' visibility='default-visibility' is-defined='yes'/>
    <elf-symbol name='_ZNSt12_Vector_baseIN10prometheus12ClientMetricESaIS1_EE12_Vector_implC1Ev' type='func-type' binding='weak-binding' visibility='default-visibility' alias='_ZNSt12_Vector_baseIN10prometheus12ClientMetricESaIS1_EE12_Vector_implC2Ev' is-defined='yes'/>
    <elf-symbol name='_ZNSt12_Vector_baseIN10prometheus12ClientMetricESaIS1_EE12_Vector_implC2EOS4_' type='func-type' binding='weak-binding' visibility='default-visibility' is-defined='yes'/>
    <elf-symbol name='_ZNSt12_Vector_baseIN10prometheus12ClientMetricESaIS1_EE12_Vector_implC2ERKS2_' type='func-type' binding='weak-binding' visibility='default-visibility' alias='_ZNSt12_Vector_baseIN10prometheus12ClientMetricESaIS1_EE12_Vector_implC1ERKS2_' is-defined='yes'/>
    <elf-symbol name='_ZNSt12_Vector_baseIN10prometheus12ClientMetricESaIS1_EE12_Vector_implC2Ev' type='func-type' binding='weak-binding' visibility='default-visibility' is-defined='yes'/>
    <elf-symbol name='_ZNSt12_Vector_baseIN10prometheus12ClientMetricESaIS1_EE13_M_deallocateEPS1_m' type='func-type' binding='weak-binding' visibility='default-visibility' is-defined='yes'/>
    <elf-symbol name='_ZNSt12_Vector_baseIN10prometheus12ClientMetricESaIS1_EE17_M_create_storageEm' type='func-type' binding='weak-binding' visibility='default-visibility' is-defined='yes'/>
    <elf-symbol name='_ZNSt12_Vector_baseIN10prometheus12ClientMetricESaIS1_EE17_Vector_impl_data12_M_copy_dataERKS4_' type='func-type' binding='weak-binding' visibility='default-visibility' is-defined='yes'/>
    <elf-symbol name='_ZNSt12_Vector_baseIN10prometheus12ClientMetricESaIS1_EE17_Vector_impl_data12_M_swap_dataERS4_' type='func-type' binding='weak-binding' visibility='default-visibility' is-defined='yes'/>
    <elf-symbol name='_ZNSt12_Vector_baseIN10prometheus12ClientMetricESaIS1_EE17_Vector_impl_dataC1EOS4_' type='func-type' binding='weak-binding' visibility='default-visibility' is-defined='yes'/>
    <elf-symbol name='_ZNSt12_Vector_baseIN10prometheus12ClientMetricESaIS1_EE17_Vector_impl_dataC1Ev' type='func-type' binding='weak-binding' visibility='default-visibility' alias='_ZNSt12_Vector_baseIN10prometheus12ClientMetricESaIS1_EE17_Vector_impl_dataC2Ev' is-defined='yes'/>
    <elf-symbol name='_ZNSt12_Vector_baseIN10prometheus12ClientMetricESaIS1_EE17_Vector_impl_dataC2EOS4_' type='func-type' binding='weak-binding' visibility='default-visibility' alias='_ZNSt12_Vector_baseIN10prometheus12ClientMetricESaIS1_EE17_Vector_impl_dataC1EOS4_' is-defined='yes'/>
    <elf-symbol name='_ZNSt12_Vector_baseIN10prometheus12ClientMetricESaIS1_EE17_Vector_impl_dataC2Ev' type='func-type' binding='weak-binding' visibility='default-visibility' is-defined='yes'/>
    <elf-symbol name='_ZNSt12_Vector_baseIN10prometheus12ClientMetricESaIS1_EE19_M_get_Tp_allocatorEv' type='func-type' binding='weak-binding' visibility='default-visibility' is-defined='yes'/>
    <elf-symbol name='_ZNSt12_Vector_baseIN10prometheus12ClientMetricESaIS1_EEC1ERKS2_' type='func-type' binding='weak-binding' visibility='default-visibility' is-defined='yes'/>
    <elf-symbol name='_ZNSt12_Vector_baseIN10prometheus12ClientMetricESaIS1_EEC1EmRKS2_' type='func-type' binding='weak-binding' visibility='default-visibility' alias='_ZNSt12_Vector_baseIN10prometheus12ClientMetricESaIS1_EEC2EmRKS2_' is-defined='yes'/>
    <elf-symbol name='_ZNSt12_Vector_baseIN10prometheus12ClientMetricESaIS1_EEC2ERKS2_' type='func-type' binding='weak-binding' visibility='default-visibility' alias='_ZNSt12_Vector_baseIN10prometheus12ClientMetricESaIS1_EEC1ERKS2_' is-defined='yes'/>
    <elf-symbol name='_ZNSt12_Vector_baseIN10prometheus12ClientMetricESaIS1_EEC2EmRKS2_' type='func-type' binding='weak-binding' visibility='default-visibility' is-defined='yes'/>
    <elf-symbol name='_ZNSt12_Vector_baseIN10prometheus12ClientMetricESaIS1_EED1Ev' type='func-type' binding='weak-binding' visibility='default-visibility' alias='_ZNSt12_Vector_baseIN10prometheus12ClientMetricESaIS1_EED2Ev' is-defined='yes'/>
    <elf-symbol name='_ZNSt12_Vector_baseIN10prometheus12ClientMetricESaIS1_EED2Ev' type='func-type' binding='weak-binding' visibility='default-visibility' is-defined='yes'/>
    <elf-symbol name='_ZNSt12_Vector_baseIN10prometheus12MetricFamilyESaIS1_EE11_M_allocateEm' type='func-type' binding='weak-binding' visibility='default-visibility' is-defined='yes'/>
    <elf-symbol name='_ZNSt12_Vector_baseIN10prometheus12MetricFamilyESaIS1_EE12_Vector_implC1ERKS2_' type='func-type' binding='weak-binding' visibility='default-visibility' is-defined='yes'/>
    <elf-symbol name='_ZNSt12_Vector_baseIN10prometheus12MetricFamilyESaIS1_EE12_Vector_implC1Ev' type='func-type' binding='weak-binding' visibility='default-visibility' alias='_ZNSt12_Vector_baseIN10prometheus12MetricFamilyESaIS1_EE12_Vector_implC2Ev' is-defined='yes'/>
    <elf-symbol name='_ZNSt12_Vector_baseIN10prometheus12MetricFamilyESaIS1_EE12_Vector_implC2ERKS2_' type='func-type' binding='weak-binding' visibility='default-visibility' alias='_ZNSt12_Vector_baseIN10prometheus12MetricFamilyESaIS1_EE12_Vector_implC1ERKS2_' is-defined='yes'/>
    <elf-symbol name='_ZNSt12_Vector_baseIN10prometheus12MetricFamilyESaIS1_EE12_Vector_implC2Ev' type='func-type' binding='weak-binding' visibility='default-visibility' is-defined='yes'/>
    <elf-symbol name='_ZNSt12_Vector_baseIN10prometheus12MetricFamilyESaIS1_EE13_M_deallocateEPS1_m' type='func-type' binding='weak-binding' visibility='default-visibility' is-defined='yes'/>
    <elf-symbol name='_ZNSt12_Vector_baseIN10prometheus12MetricFamilyESaIS1_EE17_Vector_impl_dataC1Ev' type='func-type' binding='weak-binding' visibility='default-visibility' alias='_ZNSt12_Vector_baseIN10prometheus12MetricFamilyESaIS1_EE17_Vector_impl_dataC2Ev' is-defined='yes'/>
    <elf-symbol name='_ZNSt12_Vector_baseIN10prometheus12MetricFamilyESaIS1_EE17_Vector_impl_dataC2Ev' type='func-type' binding='weak-binding' visibility='default-visibility' is-defined='yes'/>
    <elf-symbol name='_ZNSt12_Vector_baseIN10prometheus12MetricFamilyESaIS1_EE19_M_get_Tp_allocatorEv' type='func-type' binding='weak-binding' visibility='default-visibility' is-defined='yes'/>
    <elf-symbol name='_ZNSt12_Vector_baseIN10prometheus12MetricFamilyESaIS1_EEC1ERKS2_' type='func-type' binding='weak-binding' visibility='default-visibility' is-defined='yes'/>
    <elf-symbol name='_ZNSt12_Vector_baseIN10prometheus12MetricFamilyESaIS1_EEC2ERKS2_' type='func-type' binding='weak-binding' visibility='default-visibility' alias='_ZNSt12_Vector_baseIN10prometheus12MetricFamilyESaIS1_EEC1ERKS2_' is-defined='yes'/>
    <elf-symbol name='_ZNSt12_Vector_baseIN10prometheus12MetricFamilyESaIS1_EED1Ev' type='func-type' binding='weak-binding' visibility='default-visibility' is-defined='yes'/>
    <elf-symbol name='_ZNSt12_Vector_baseIN10prometheus12MetricFamilyESaIS1_EED2Ev' type='func-type' binding='weak-binding' visibility='default-visibility' alias='_ZNSt12_Vector_baseIN10prometheus12MetricFamilyESaIS1_EED1Ev' is-defined='yes'/>
    <elf-symbol name='_ZNSt12_Vector_baseIN10prometheus6detail13CKMSQuantiles4ItemESaIS3_EE11_M_allocateEm' type='func-type' binding='weak-binding' visibility='default-visibility' is-defined='yes'/>
    <elf-symbol name='_ZNSt12_Vector_baseIN10prometheus6detail13CKMSQuantiles4ItemESaIS3_EE12_Vector_implC1ERKS4_' type='func-type' binding='weak-binding' visibility='default-visibility' alias='_ZNSt12_Vector_baseIN10prometheus6detail13CKMSQuantiles4ItemESaIS3_EE12_Vector_implC2ERKS4_' is-defined='yes'/>
    <elf-symbol name='_ZNSt12_Vector_baseIN10prometheus6detail13CKMSQuantiles4ItemESaIS3_EE12_Vector_implC1Ev' type='func-type' binding='weak-binding' visibility='default-visibility' alias='_ZNSt12_Vector_baseIN10prometheus6detail13CKMSQuantiles4ItemESaIS3_EE12_Vector_implC2Ev' is-defined='yes'/>
    <elf-symbol name='_ZNSt12_Vector_baseIN10prometheus6detail13CKMSQuantiles4ItemESaIS3_EE12_Vector_implC2ERKS4_' type='func-type' binding='weak-binding' visibility='default-visibility' is-defined='yes'/>
    <elf-symbol name='_ZNSt12_Vector_baseIN10prometheus6detail13CKMSQuantiles4ItemESaIS3_EE12_Vector_implC2Ev' type='func-type' binding='weak-binding' visibility='default-visibility' is-defined='yes'/>
    <elf-symbol name='_ZNSt12_Vector_baseIN10prometheus6detail13CKMSQuantiles4ItemESaIS3_EE13_M_deallocateEPS3_m' type='func-type' binding='weak-binding' visibility='default-visibility' is-defined='yes'/>
    <elf-symbol name='_ZNSt12_Vector_baseIN10prometheus6detail13CKMSQuantiles4ItemESaIS3_EE17_M_create_storageEm' type='func-type' binding='weak-binding' visibility='default-visibility' is-defined='yes'/>
    <elf-symbol name='_ZNSt12_Vector_baseIN10prometheus6detail13CKMSQuantiles4ItemESaIS3_EE17_Vector_impl_dataC1Ev' type='func-type' binding='weak-binding' visibility='default-visibility' is-defined='yes'/>
    <elf-symbol name='_ZNSt12_Vector_baseIN10prometheus6detail13CKMSQuantiles4ItemESaIS3_EE17_Vector_impl_dataC2Ev' type='func-type' binding='weak-binding' visibility='default-visibility' alias='_ZNSt12_Vector_baseIN10prometheus6detail13CKMSQuantiles4ItemESaIS3_EE17_Vector_impl_dataC1Ev' is-defined='yes'/>
    <elf-symbol name='_ZNSt12_Vector_baseIN10prometheus6detail13CKMSQuantiles4ItemESaIS3_EE19_M_get_Tp_allocatorEv' type='func-type' binding='weak-binding' visibility='default-visibility' is-defined='yes'/>
    <elf-symbol name='_ZNSt12_Vector_baseIN10prometheus6detail13CKMSQuantiles4ItemESaIS3_EEC1EmRKS4_' type='func-type' binding='weak-binding' visibility='default-visibility' alias='_ZNSt12_Vector_baseIN10prometheus6detail13CKMSQuantiles4ItemESaIS3_EEC2EmRKS4_' is-defined='yes'/>
    <elf-symbol name='_ZNSt12_Vector_baseIN10prometheus6detail13CKMSQuantiles4ItemESaIS3_EEC2EmRKS4_' type='func-type' binding='weak-binding' visibility='default-visibility' is-defined='yes'/>
    <elf-symbol name='_ZNSt12_Vector_baseIN10prometheus6detail13CKMSQuantiles4ItemESaIS3_EED1Ev' type='func-type' binding='weak-binding' visibility='default-visibility' alias='_ZNSt12_Vector_baseIN10prometheus6detail13CKMSQuantiles4ItemESaIS3_EED2Ev' is-defined='yes'/>
    <elf-symbol name='_ZNSt12_Vector_baseIN10prometheus6detail13CKMSQuantiles4ItemESaIS3_EED2Ev' type='func-type' binding='weak-binding' visibility='default-visibility' is-defined='yes'/>
    <elf-symbol name='_ZNSt12_Vector_baseIN10prometheus6detail13CKMSQuantiles8QuantileESaIS3_EE11_M_allocateEm' type='func-type' binding='weak-binding' visibility='default-visibility' is-defined='yes'/>
    <elf-symbol name='_ZNSt12_Vector_baseIN10prometheus6detail13CKMSQuantiles8QuantileESaIS3_EE12_Vector_implC1ERKS4_' type='func-type' binding='weak-binding' visibility='default-visibility' is-defined='yes'/>
    <elf-symbol name='_ZNSt12_Vector_baseIN10prometheus6detail13CKMSQuantiles8QuantileESaIS3_EE12_Vector_implC2ERKS4_' type='func-type' binding='weak-binding' visibility='default-visibility' alias='_ZNSt12_Vector_baseIN10prometheus6detail13CKMSQuantiles8QuantileESaIS3_EE12_Vector_implC1ERKS4_' is-defined='yes'/>
    <elf-symbol name='_ZNSt12_Vector_baseIN10prometheus6detail13CKMSQuantiles8QuantileESaIS3_EE13_M_deallocateEPS3_m' type='func-type' binding='weak-binding' visibility='default-visibility' is-defined='yes'/>
    <elf-symbol name='_ZNSt12_Vector_baseIN10prometheus6detail13CKMSQuantiles8QuantileESaIS3_EE17_M_create_storageEm' type='func-type' binding='weak-binding' visibility='default-visibility' is-defined='yes'/>
    <elf-symbol name='_ZNSt12_Vector_baseIN10prometheus6detail13CKMSQuantiles8QuantileESaIS3_EE17_Vector_impl_dataC1Ev' type='func-type' binding='weak-binding' visibility='default-visibility' is-defined='yes'/>
    <elf-symbol name='_ZNSt12_Vector_baseIN10prometheus6detail13CKMSQuantiles8QuantileESaIS3_EE17_Vector_impl_dataC2Ev' type='func-type' binding='weak-binding' visibility='default-visibility' alias='_ZNSt12_Vector_baseIN10prometheus6detail13CKMSQuantiles8QuantileESaIS3_EE17_Vector_impl_dataC1Ev' is-defined='yes'/>
    <elf-symbol name='_ZNSt12_Vector_baseIN10prometheus6detail13CKMSQuantiles8QuantileESaIS3_EE19_M_get_Tp_allocatorEv' type='func-type' binding='weak-binding' visibility='default-visibility' is-defined='yes'/>
    <elf-symbol name='_ZNSt12_Vector_baseIN10prometheus6detail13CKMSQuantiles8QuantileESaIS3_EEC1EmRKS4_' type='func-type' binding='weak-binding' visibility='default-visibility' is-defined='yes'/>
    <elf-symbol name='_ZNSt12_Vector_baseIN10prometheus6detail13CKMSQuantiles8QuantileESaIS3_EEC2EmRKS4_' type='func-type' binding='weak-binding' visibility='default-visibility' alias='_ZNSt12_Vector_baseIN10prometheus6detail13CKMSQuantiles8QuantileESaIS3_EEC1EmRKS4_' is-defined='yes'/>
    <elf-symbol name='_ZNSt12_Vector_baseIN10prometheus6detail13CKMSQuantiles8QuantileESaIS3_EED1Ev' type='func-type' binding='weak-binding' visibility='default-visibility' is-defined='yes'/>
    <elf-symbol name='_ZNSt12_Vector_baseIN10prometheus6detail13CKMSQuantiles8QuantileESaIS3_EED2Ev' type='func-type' binding='weak-binding' visibility='default-visibility' alias='_ZNSt12_Vector_baseIN10prometheus6detail13CKMSQuantiles8QuantileESaIS3_EED1Ev' is-defined='yes'/>
    <elf-symbol name='_ZNSt12_Vector_baseIN10prometheus6detail13CKMSQuantilesESaIS2_EE11_M_allocateEm' type='func-type' binding='weak-binding' visibility='default-visibility' is-defined='yes'/>
    <elf-symbol name='_ZNSt12_Vector_baseIN10prometheus6detail13CKMSQuantilesESaIS2_EE12_Vector_implC1ERKS3_' type='func-type' binding='weak-binding' visibility='default-visibility' alias='_ZNSt12_Vector_baseIN10prometheus6detail13CKMSQuantilesESaIS2_EE12_Vector_implC2ERKS3_' is-defined='yes'/>
    <elf-symbol name='_ZNSt12_Vector_baseIN10prometheus6detail13CKMSQuantilesESaIS2_EE12_Vector_implC2ERKS3_' type='func-type' binding='weak-binding' visibility='default-visibility' is-defined='yes'/>
    <elf-symbol name='_ZNSt12_Vector_baseIN10prometheus6detail13CKMSQuantilesESaIS2_EE13_M_deallocateEPS2_m' type='func-type' binding='weak-binding' visibility='default-visibility' is-defined='yes'/>
    <elf-symbol name='_ZNSt12_Vector_baseIN10prometheus6detail13CKMSQuantilesESaIS2_EE17_M_create_storageEm' type='func-type' binding='weak-binding' visibility='default-visibility' is-defined='yes'/>
    <elf-symbol name='_ZNSt12_Vector_baseIN10prometheus6detail13CKMSQuantilesESaIS2_EE17_Vector_impl_dataC1Ev' type='func-type' binding='weak-binding' visibility='default-visibility' alias='_ZNSt12_Vector_baseIN10prometheus6detail13CKMSQuantilesESaIS2_EE17_Vector_impl_dataC2Ev' is-defined='yes'/>
    <elf-symbol name='_ZNSt12_Vector_baseIN10prometheus6detail13CKMSQuantilesESaIS2_EE17_Vector_impl_dataC2Ev' type='func-type' binding='weak-binding' visibility='default-visibility' is-defined='yes'/>
    <elf-symbol name='_ZNSt12_Vector_baseIN10prometheus6detail13CKMSQuantilesESaIS2_EE19_M_get_Tp_allocatorEv' type='func-type' binding='weak-binding' visibility='default-visibility' is-defined='yes'/>
    <elf-symbol name='_ZNSt12_Vector_baseIN10prometheus6detail13CKMSQuantilesESaIS2_EEC1EmRKS3_' type='func-type' binding='weak-binding' visibility='default-visibility' alias='_ZNSt12_Vector_baseIN10prometheus6detail13CKMSQuantilesESaIS2_EEC2EmRKS3_' is-defined='yes'/>
    <elf-symbol name='_ZNSt12_Vector_baseIN10prometheus6detail13CKMSQuantilesESaIS2_EEC2EmRKS3_' type='func-type' binding='weak-binding' visibility='default-visibility' is-defined='yes'/>
    <elf-symbol name='_ZNSt12_Vector_baseIN10prometheus6detail13CKMSQuantilesESaIS2_EED1Ev' type='func-type' binding='weak-binding' visibility='default-visibility' alias='_ZNSt12_Vector_baseIN10prometheus6detail13CKMSQuantilesESaIS2_EED2Ev' is-defined='yes'/>
    <elf-symbol name='_ZNSt12_Vector_baseIN10prometheus6detail13CKMSQuantilesESaIS2_EED2Ev' type='func-type' binding='weak-binding' visibility='default-visibility' is-defined='yes'/>
    <elf-symbol name='_ZNSt12_Vector_baseIN10prometheus7CounterESaIS1_EE11_M_allocateEm' type='func-type' binding='weak-binding' visibility='default-visibility' is-defined='yes'/>
    <elf-symbol name='_ZNSt12_Vector_baseIN10prometheus7CounterESaIS1_EE12_Vector_implC1ERKS2_' type='func-type' binding='weak-binding' visibility='default-visibility' is-defined='yes'/>
    <elf-symbol name='_ZNSt12_Vector_baseIN10prometheus7CounterESaIS1_EE12_Vector_implC2ERKS2_' type='func-type' binding='weak-binding' visibility='default-visibility' alias='_ZNSt12_Vector_baseIN10prometheus7CounterESaIS1_EE12_Vector_implC1ERKS2_' is-defined='yes'/>
    <elf-symbol name='_ZNSt12_Vector_baseIN10prometheus7CounterESaIS1_EE13_M_deallocateEPS1_m' type='func-type' binding='weak-binding' visibility='default-visibility' is-defined='yes'/>
    <elf-symbol name='_ZNSt12_Vector_baseIN10prometheus7CounterESaIS1_EE17_M_create_storageEm' type='func-type' binding='weak-binding' visibility='default-visibility' is-defined='yes'/>
    <elf-symbol name='_ZNSt12_Vector_baseIN10prometheus7CounterESaIS1_EE17_Vector_impl_dataC1Ev' type='func-type' binding='weak-binding' visibility='default-visibility' alias='_ZNSt12_Vector_baseIN10prometheus7CounterESaIS1_EE17_Vector_impl_dataC2Ev' is-defined='yes'/>
    <elf-symbol name='_ZNSt12_Vector_baseIN10prometheus7CounterESaIS1_EE17_Vector_impl_dataC2Ev' type='func-type' binding='weak-binding' visibility='default-visibility' is-defined='yes'/>
    <elf-symbol name='_ZNSt12_Vector_baseIN10prometheus7CounterESaIS1_EE19_M_get_Tp_allocatorEv' type='func-type' binding='weak-binding' visibility='default-visibility' is-defined='yes'/>
    <elf-symbol name='_ZNSt12_Vector_baseIN10prometheus7CounterESaIS1_EEC1EmRKS2_' type='func-type' binding='weak-binding' visibility='default-visibility' alias='_ZNSt12_Vector_baseIN10prometheus7CounterESaIS1_EEC2EmRKS2_' is-defined='yes'/>
    <elf-symbol name='_ZNSt12_Vector_baseIN10prometheus7CounterESaIS1_EEC2EmRKS2_' type='func-type' binding='weak-binding' visibility='default-visibility' is-defined='yes'/>
    <elf-symbol name='_ZNSt12_Vector_baseIN10prometheus7CounterESaIS1_EED1Ev' type='func-type' binding='weak-binding' visibility='default-visibility' alias='_ZNSt12_Vector_baseIN10prometheus7CounterESaIS1_EED2Ev' is-defined='yes'/>
    <elf-symbol name='_ZNSt12_Vector_baseIN10prometheus7CounterESaIS1_EED2Ev' type='func-type' binding='weak-binding' visibility='default-visibility' is-defined='yes'/>
    <elf-symbol name='_ZNSt12_Vector_baseIdSaIdEE11_M_allocateEm' type='func-type' binding='weak-binding' visibility='default-visibility' is-defined='yes'/>
    <elf-symbol name='_ZNSt12_Vector_baseIdSaIdEE12_Vector_implC1ERKS0_' type='func-type' binding='weak-binding' visibility='default-visibility' is-defined='yes'/>
    <elf-symbol name='_ZNSt12_Vector_baseIdSaIdEE12_Vector_implC2ERKS0_' type='func-type' binding='weak-binding' visibility='default-visibility' alias='_ZNSt12_Vector_baseIdSaIdEE12_Vector_implC1ERKS0_' is-defined='yes'/>
    <elf-symbol name='_ZNSt12_Vector_baseIdSaIdEE13_M_deallocateEPdm' type='func-type' binding='weak-binding' visibility='default-visibility' is-defined='yes'/>
    <elf-symbol name='_ZNSt12_Vector_baseIdSaIdEE17_M_create_storageEm' type='func-type' binding='weak-binding' visibility='default-visibility' is-defined='yes'/>
    <elf-symbol name='_ZNSt12_Vector_baseIdSaIdEE17_Vector_impl_dataC1Ev' type='func-type' binding='weak-binding' visibility='default-visibility' is-defined='yes'/>
    <elf-symbol name='_ZNSt12_Vector_baseIdSaIdEE17_Vector_impl_dataC2Ev' type='func-type' binding='weak-binding' visibility='default-visibility' alias='_ZNSt12_Vector_baseIdSaIdEE17_Vector_impl_dataC1Ev' is-defined='yes'/>
    <elf-symbol name='_ZNSt12_Vector_baseIdSaIdEE19_M_get_Tp_allocatorEv' type='func-type' binding='weak-binding' visibility='default-visibility' is-defined='yes'/>
    <elf-symbol name='_ZNSt12_Vector_baseIdSaIdEEC1EmRKS0_' type='func-type' binding='weak-binding' visibility='default-visibility' alias='_ZNSt12_Vector_baseIdSaIdEEC2EmRKS0_' is-defined='yes'/>
    <elf-symbol name='_ZNSt12_Vector_baseIdSaIdEEC2EmRKS0_' type='func-type' binding='weak-binding' visibility='default-visibility' is-defined='yes'/>
    <elf-symbol name='_ZNSt12_Vector_baseIdSaIdEED1Ev' type='func-type' binding='weak-binding' visibility='default-visibility' is-defined='yes'/>
    <elf-symbol name='_ZNSt12_Vector_baseIdSaIdEED2Ev' type='func-type' binding='weak-binding' visibility='default-visibility' alias='_ZNSt12_Vector_baseIdSaIdEED1Ev' is-defined='yes'/>
    <elf-symbol name='_ZNSt13_Rb_tree_nodeISt4pairIKNSt7__cxx1112basic_stringIcSt11char_traitsIcESaIcEEES6_EE9_M_valptrEv' type='func-type' binding='weak-binding' visibility='default-visibility' is-defined='yes'/>
    <elf-symbol name='_ZNSt13move_iteratorIPN10prometheus12ClientMetric5LabelEEC1ES3_' type='func-type' binding='weak-binding' visibility='default-visibility' is-defined='yes'/>
    <elf-symbol name='_ZNSt13move_iteratorIPN10prometheus12ClientMetric5LabelEEC2ES3_' type='func-type' binding='weak-binding' visibility='default-visibility' alias='_ZNSt13move_iteratorIPN10prometheus12ClientMetric5LabelEEC1ES3_' is-defined='yes'/>
    <elf-symbol name='_ZNSt13move_iteratorIPN10prometheus12ClientMetric5LabelEEppEv' type='func-type' binding='weak-binding' visibility='default-visibility' is-defined='yes'/>
    <elf-symbol name='_ZNSt13move_iteratorIPN10prometheus12ClientMetric6BucketEEC1ES3_' type='func-type' binding='weak-binding' visibility='default-visibility' is-defined='yes'/>
    <elf-symbol name='_ZNSt13move_iteratorIPN10prometheus12ClientMetric6BucketEEC2ES3_' type='func-type' binding='weak-binding' visibility='default-visibility' alias='_ZNSt13move_iteratorIPN10prometheus12ClientMetric6BucketEEC1ES3_' is-defined='yes'/>
    <elf-symbol name='_ZNSt13move_iteratorIPN10prometheus12ClientMetric6BucketEEppEv' type='func-type' binding='weak-binding' visibility='default-visibility' is-defined='yes'/>
    <elf-symbol name='_ZNSt13move_iteratorIPN10prometheus12ClientMetric8QuantileEEC1ES3_' type='func-type' binding='weak-binding' visibility='default-visibility' is-defined='yes'/>
    <elf-symbol name='_ZNSt13move_iteratorIPN10prometheus12ClientMetric8QuantileEEC2ES3_' type='func-type' binding='weak-binding' visibility='default-visibility' alias='_ZNSt13move_iteratorIPN10prometheus12ClientMetric8QuantileEEC1ES3_' is-defined='yes'/>
    <elf-symbol name='_ZNSt13move_iteratorIPN10prometheus12ClientMetric8QuantileEEppEv' type='func-type' binding='weak-binding' visibility='default-visibility' is-defined='yes'/>
    <elf-symbol name='_ZNSt13move_iteratorIPN10prometheus12ClientMetricEEC1ES2_' type='func-type' binding='weak-binding' visibility='default-visibility' alias='_ZNSt13move_iteratorIPN10prometheus12ClientMetricEEC2ES2_' is-defined='yes'/>
    <elf-symbol name='_ZNSt13move_iteratorIPN10prometheus12ClientMetricEEC2ES2_' type='func-type' binding='weak-binding' visibility='default-visibility' is-defined='yes'/>
    <elf-symbol name='_ZNSt13move_iteratorIPN10prometheus12ClientMetricEEppEv' type='func-type' binding='weak-binding' visibility='default-visibility' is-defined='yes'/>
    <elf-symbol name='_ZNSt13move_iteratorIPN10prometheus12MetricFamilyEEC1ES2_' type='func-type' binding='weak-binding' visibility='default-visibility' alias='_ZNSt13move_iteratorIPN10prometheus12MetricFamilyEEC2ES2_' is-defined='yes'/>
    <elf-symbol name='_ZNSt13move_iteratorIPN10prometheus12MetricFamilyEEC2ES2_' type='func-type' binding='weak-binding' visibility='default-visibility' is-defined='yes'/>
    <elf-symbol name='_ZNSt13move_iteratorIPN10prometheus12MetricFamilyEEppEv' type='func-type' binding='weak-binding' visibility='default-visibility' is-defined='yes'/>
    <elf-symbol name='_ZNSt13move_iteratorIPN10prometheus6detail13CKMSQuantiles4ItemEEC1ES4_' type='func-type' binding='weak-binding' visibility='default-visibility' is-defined='yes'/>
    <elf-symbol name='_ZNSt13move_iteratorIPN10prometheus6detail13CKMSQuantiles4ItemEEC2ES4_' type='func-type' binding='weak-binding' visibility='default-visibility' alias='_ZNSt13move_iteratorIPN10prometheus6detail13CKMSQuantiles4ItemEEC1ES4_' is-defined='yes'/>
    <elf-symbol name='_ZNSt13move_iteratorIPN10prometheus6detail13CKMSQuantiles4ItemEEppEv' type='func-type' binding='weak-binding' visibility='default-visibility' is-defined='yes'/>
    <elf-symbol name='_ZNSt13unordered_mapIPN10prometheus5GaugeEmSt4hashIS2_ESt8equal_toIS2_ESaISt4pairIKS2_mEEE2atERS8_' type='func-type' binding='weak-binding' visibility='default-visibility' is-defined='yes'/>
    <elf-symbol name='_ZNSt13unordered_mapIPN10prometheus5GaugeEmSt4hashIS2_ESt8equal_toIS2_ESaISt4pairIKS2_mEEE5eraseERS8_' type='func-type' binding='weak-binding' visibility='default-visibility' is-defined='yes'/>
    <elf-symbol name='_ZNSt13unordered_mapIPN10prometheus5GaugeEmSt4hashIS2_ESt8equal_toIS2_ESaISt4pairIKS2_mEEE6insertEOS9_' type='func-type' binding='weak-binding' visibility='default-visibility' is-defined='yes'/>
    <elf-symbol name='_ZNSt13unordered_mapIPN10prometheus7CounterEmSt4hashIS2_ESt8equal_toIS2_ESaISt4pairIKS2_mEEE2atERS8_' type='func-type' binding='weak-binding' visibility='default-visibility' is-defined='yes'/>
    <elf-symbol name='_ZNSt13unordered_mapIPN10prometheus7CounterEmSt4hashIS2_ESt8equal_toIS2_ESaISt4pairIKS2_mEEE5eraseERS8_' type='func-type' binding='weak-binding' visibility='default-visibility' is-defined='yes'/>
    <elf-symbol name='_ZNSt13unordered_mapIPN10prometheus7CounterEmSt4hashIS2_ESt8equal_toIS2_ESaISt4pairIKS2_mEEE6insertEOS9_' type='func-type' binding='weak-binding' visibility='default-visibility' is-defined='yes'/>
    <elf-symbol name='_ZNSt13unordered_mapIPN10prometheus7SummaryEmSt4hashIS2_ESt8equal_toIS2_ESaISt4pairIKS2_mEEE2atERS8_' type='func-type' binding='weak-binding' visibility='default-visibility' is-defined='yes'/>
    <elf-symbol name='_ZNSt13unordered_mapIPN10prometheus7SummaryEmSt4hashIS2_ESt8equal_toIS2_ESaISt4pairIKS2_mEEE5eraseERS8_' type='func-type' binding='weak-binding' visibility='default-visibility' is-defined='yes'/>
    <elf-symbol name='_ZNSt13unordered_mapIPN10prometheus7SummaryEmSt4hashIS2_ESt8equal_toIS2_ESaISt4pairIKS2_mEEE6insertEOS9_' type='func-type' binding='weak-binding' visibility='default-visibility' is-defined='yes'/>
    <elf-symbol name='_ZNSt13unordered_mapIPN10prometheus9HistogramEmSt4hashIS2_ESt8equal_toIS2_ESaISt4pairIKS2_mEEE2atERS8_' type='func-type' binding='weak-binding' visibility='default-visibility' is-defined='yes'/>
    <elf-symbol name='_ZNSt13unordered_mapIPN10prometheus9HistogramEmSt4hashIS2_ESt8equal_toIS2_ESaISt4pairIKS2_mEEE5eraseERS8_' type='func-type' binding='weak-binding' visibility='default-visibility' is-defined='yes'/>
    <elf-symbol name='_ZNSt13unordered_mapIPN10prometheus9HistogramEmSt4hashIS2_ESt8equal_toIS2_ESaISt4pairIKS2_mEEE6insertEOS9_' type='func-type' binding='weak-binding' visibility='default-visibility' is-defined='yes'/>
    <elf-symbol name='_ZNSt13unordered_mapImSt10unique_ptrIN10prometheus5GaugeESt14default_deleteIS2_EESt4hashImESt8equal_toImESaISt4pairIKmS5_EEE3endEv' type='func-type' binding='weak-binding' visibility='default-visibility' is-defined='yes'/>
    <elf-symbol name='_ZNSt13unordered_mapImSt10unique_ptrIN10prometheus5GaugeESt14default_deleteIS2_EESt4hashImESt8equal_toImESaISt4pairIKmS5_EEE4findERSB_' type='func-type' binding='weak-binding' visibility='default-visibility' is-defined='yes'/>
    <elf-symbol name='_ZNSt13unordered_mapImSt10unique_ptrIN10prometheus5GaugeESt14default_deleteIS2_EESt4hashImESt8equal_toImESaISt4pairIKmS5_EEE5eraseERSB_' type='func-type' binding='weak-binding' visibility='default-visibility' is-defined='yes'/>
    <elf-symbol name='_ZNSt13unordered_mapImSt10unique_ptrIN10prometheus5GaugeESt14default_deleteIS2_EESt4hashImESt8equal_toImESaISt4pairIKmS5_EEE6insertISA_ImS5_EEENSt9enable_ifIXsrSt16is_constructibleISC_JOT_EE5valueESA_INSt8__detail14_Node_iteratorISC_Lb0ELb0EEEbEE4typeESK_' type='func-type' binding='weak-binding' visibility='default-visibility' is-defined='yes'/>
    <elf-symbol name='_ZNSt13unordered_mapImSt10unique_ptrIN10prometheus7CounterESt14default_deleteIS2_EESt4hashImESt8equal_toImESaISt4pairIKmS5_EEE3endEv' type='func-type' binding='weak-binding' visibility='default-visibility' is-defined='yes'/>
    <elf-symbol name='_ZNSt13unordered_mapImSt10unique_ptrIN10prometheus7CounterESt14default_deleteIS2_EESt4hashImESt8equal_toImESaISt4pairIKmS5_EEE4findERSB_' type='func-type' binding='weak-binding' visibility='default-visibility' is-defined='yes'/>
    <elf-symbol name='_ZNSt13unordered_mapImSt10unique_ptrIN10prometheus7CounterESt14default_deleteIS2_EESt4hashImESt8equal_toImESaISt4pairIKmS5_EEE5eraseERSB_' type='func-type' binding='weak-binding' visibility='default-visibility' is-defined='yes'/>
    <elf-symbol name='_ZNSt13unordered_mapImSt10unique_ptrIN10prometheus7CounterESt14default_deleteIS2_EESt4hashImESt8equal_toImESaISt4pairIKmS5_EEE6insertISA_ImS5_EEENSt9enable_ifIXsrSt16is_constructibleISC_JOT_EE5valueESA_INSt8__detail14_Node_iteratorISC_Lb0ELb0EEEbEE4typeESK_' type='func-type' binding='weak-binding' visibility='default-visibility' is-defined='yes'/>
    <elf-symbol name='_ZNSt13unordered_mapImSt10unique_ptrIN10prometheus7SummaryESt14default_deleteIS2_EESt4hashImESt8equal_toImESaISt4pairIKmS5_EEE3endEv' type='func-type' binding='weak-binding' visibility='default-visibility' is-defined='yes'/>
    <elf-symbol name='_ZNSt13unordered_mapImSt10unique_ptrIN10prometheus7SummaryESt14default_deleteIS2_EESt4hashImESt8equal_toImESaISt4pairIKmS5_EEE4findERSB_' type='func-type' binding='weak-binding' visibility='default-visibility' is-defined='yes'/>
    <elf-symbol name='_ZNSt13unordered_mapImSt10unique_ptrIN10prometheus7SummaryESt14default_deleteIS2_EESt4hashImESt8equal_toImESaISt4pairIKmS5_EEE5eraseERSB_' type='func-type' binding='weak-binding' visibility='default-visibility' is-defined='yes'/>
    <elf-symbol name='_ZNSt13unordered_mapImSt10unique_ptrIN10prometheus7SummaryESt14default_deleteIS2_EESt4hashImESt8equal_toImESaISt4pairIKmS5_EEE6insertISA_ImS5_EEENSt9enable_ifIXsrSt16is_constructibleISC_JOT_EE5valueESA_INSt8__detail14_Node_iteratorISC_Lb0ELb0EEEbEE4typeESK_' type='func-type' binding='weak-binding' visibility='default-visibility' is-defined='yes'/>
    <elf-symbol name='_ZNSt13unordered_mapImSt10unique_ptrIN10prometheus9HistogramESt14default_deleteIS2_EESt4hashImESt8equal_toImESaISt4pairIKmS5_EEE3endEv' type='func-type' binding='weak-binding' visibility='default-visibility' is-defined='yes'/>
    <elf-symbol name='_ZNSt13unordered_mapImSt10unique_ptrIN10prometheus9HistogramESt14default_deleteIS2_EESt4hashImESt8equal_toImESaISt4pairIKmS5_EEE4findERSB_' type='func-type' binding='weak-binding' visibility='default-visibility' is-defined='yes'/>
    <elf-symbol name='_ZNSt13unordered_mapImSt10unique_ptrIN10prometheus9HistogramESt14default_deleteIS2_EESt4hashImESt8equal_toImESaISt4pairIKmS5_EEE5eraseERSB_' type='func-type' binding='weak-binding' visibility='default-visibility' is-defined='yes'/>
    <elf-symbol name='_ZNSt13unordered_mapImSt10unique_ptrIN10prometheus9HistogramESt14default_deleteIS2_EESt4hashImESt8equal_toImESaISt4pairIKmS5_EEE6insertISA_ImS5_EEENSt9enable_ifIXsrSt16is_constructibleISC_JOT_EE5valueESA_INSt8__detail14_Node_iteratorISC_Lb0ELb0EEEbEE4typeESK_' type='func-type' binding='weak-binding' visibility='default-visibility' is-defined='yes'/>
    <elf-symbol name='_ZNSt13unordered_mapImSt3mapINSt7__cxx1112basic_stringIcSt11char_traitsIcESaIcEEES6_St4lessIS6_ESaISt4pairIKS6_S6_EEESt4hashImESt8equal_toImESaIS9_IKmSD_EEE3endEv' type='func-type' binding='weak-binding' visibility='default-visibility' is-defined='yes'/>
    <elf-symbol name='_ZNSt13unordered_mapImSt3mapINSt7__cxx1112basic_stringIcSt11char_traitsIcESaIcEEES6_St4lessIS6_ESaISt4pairIKS6_S6_EEESt4hashImESt8equal_toImESaIS9_IKmSD_EEE4findERSI_' type='func-type' binding='weak-binding' visibility='default-visibility' is-defined='yes'/>
    <elf-symbol name='_ZNSt13unordered_mapImSt3mapINSt7__cxx1112basic_stringIcSt11char_traitsIcESaIcEEES6_St4lessIS6_ESaISt4pairIKS6_S6_EEESt4hashImESt8equal_toImESaIS9_IKmSD_EEE5eraseERSI_' type='func-type' binding='weak-binding' visibility='default-visibility' is-defined='yes'/>
    <elf-symbol name='_ZNSt13unordered_mapImSt3mapINSt7__cxx1112basic_stringIcSt11char_traitsIcESaIcEEES6_St4lessIS6_ESaISt4pairIKS6_S6_EEESt4hashImESt8equal_toImESaIS9_IKmSD_EEE6insertEOSJ_' type='func-type' binding='weak-binding' visibility='default-visibility' is-defined='yes'/>
    <elf-symbol name='_ZNSt14__array_traitsIcLm128EE6_S_ptrERA128_Kc' type='func-type' binding='weak-binding' visibility='default-visibility' is-defined='yes'/>
    <elf-symbol name='_ZNSt14__array_traitsIdLm500EE6_S_ptrERA500_Kd' type='func-type' binding='weak-binding' visibility='default-visibility' is-defined='yes'/>
    <elf-symbol name='_ZNSt14__array_traitsIdLm500EE6_S_refERA500_Kdm' type='func-type' binding='weak-binding' visibility='default-visibility' is-defined='yes'/>
    <elf-symbol name='_ZNSt14pointer_traitsIPNSt8__detail10_Hash_nodeISt4pairIKPN10prometheus5GaugeEmELb0EEEE10pointer_toERS8_' type='func-type' binding='weak-binding' visibility='default-visibility' is-defined='yes'/>
    <elf-symbol name='_ZNSt14pointer_traitsIPNSt8__detail10_Hash_nodeISt4pairIKPN10prometheus7CounterEmELb0EEEE10pointer_toERS8_' type='func-type' binding='weak-binding' visibility='default-visibility' is-defined='yes'/>
    <elf-symbol name='_ZNSt14pointer_traitsIPNSt8__detail10_Hash_nodeISt4pairIKPN10prometheus7SummaryEmELb0EEEE10pointer_toERS8_' type='func-type' binding='weak-binding' visibility='default-visibility' is-defined='yes'/>
    <elf-symbol name='_ZNSt14pointer_traitsIPNSt8__detail10_Hash_nodeISt4pairIKPN10prometheus9HistogramEmELb0EEEE10pointer_toERS8_' type='func-type' binding='weak-binding' visibility='default-visibility' is-defined='yes'/>
    <elf-symbol name='_ZNSt14pointer_traitsIPNSt8__detail10_Hash_nodeISt4pairIKmSt10unique_ptrIN10prometheus5GaugeESt14default_deleteIS6_EEELb0EEEE10pointer_toERSB_' type='func-type' binding='weak-binding' visibility='default-visibility' is-defined='yes'/>
    <elf-symbol name='_ZNSt14pointer_traitsIPNSt8__detail10_Hash_nodeISt4pairIKmSt10unique_ptrIN10prometheus7CounterESt14default_deleteIS6_EEELb0EEEE10pointer_toERSB_' type='func-type' binding='weak-binding' visibility='default-visibility' is-defined='yes'/>
    <elf-symbol name='_ZNSt14pointer_traitsIPNSt8__detail10_Hash_nodeISt4pairIKmSt10unique_ptrIN10prometheus7SummaryESt14default_deleteIS6_EEELb0EEEE10pointer_toERSB_' type='func-type' binding='weak-binding' visibility='default-visibility' is-defined='yes'/>
    <elf-symbol name='_ZNSt14pointer_traitsIPNSt8__detail10_Hash_nodeISt4pairIKmSt10unique_ptrIN10prometheus9HistogramESt14default_deleteIS6_EEELb0EEEE10pointer_toERSB_' type='func-type' binding='weak-binding' visibility='default-visibility' is-defined='yes'/>
    <elf-symbol name='_ZNSt14pointer_traitsIPNSt8__detail10_Hash_nodeISt4pairIKmSt3mapINSt7__cxx1112basic_stringIcSt11char_traitsIcESaIcEEESA_St4lessISA_ESaIS2_IKSA_SA_EEEELb0EEEE10pointer_toERSI_' type='func-type' binding='weak-binding' visibility='default-visibility' is-defined='yes'/>
    <elf-symbol name='_ZNSt14pointer_traitsIPPNSt8__detail15_Hash_node_baseEE10pointer_toERS2_' type='func-type' binding='weak-binding' visibility='default-visibility' is-defined='yes'/>
    <elf-symbol name='_ZNSt15__tuple_compareISt5tupleIJRKNSt7__cxx1112basic_stringIcSt11char_traitsIcESaIcEEERKSt3mapIS6_S6_St4lessIS6_ESaISt4pairIS7_S6_EEEEESI_Lm0ELm2EE4__eqERKSI_SL_' type='func-type' binding='weak-binding' visibility='default-visibility' is-defined='yes'/>
    <elf-symbol name='_ZNSt15__tuple_compareISt5tupleIJRKNSt7__cxx1112basic_stringIcSt11char_traitsIcESaIcEEERKSt3mapIS6_S6_St4lessIS6_ESaISt4pairIS7_S6_EEEEESI_Lm1ELm2EE4__eqERKSI_SL_' type='func-type' binding='weak-binding' visibility='default-visibility' is-defined='yes'/>
    <elf-symbol name='_ZNSt15__tuple_compareISt5tupleIJRKNSt7__cxx1112basic_stringIcSt11char_traitsIcESaIcEEERKSt3mapIS6_S6_St4lessIS6_ESaISt4pairIS7_S6_EEEEESI_Lm2ELm2EE4__eqERKSI_SL_' type='func-type' binding='weak-binding' visibility='default-visibility' is-defined='yes'/>
    <elf-symbol name='_ZNSt15__uniq_ptr_implIN10prometheus5GaugeESt14default_deleteIS1_EE10_M_deleterEv' type='func-type' binding='weak-binding' visibility='default-visibility' is-defined='yes'/>
    <elf-symbol name='_ZNSt15__uniq_ptr_implIN10prometheus5GaugeESt14default_deleteIS1_EE6_M_ptrEv' type='func-type' binding='weak-binding' visibility='default-visibility' is-defined='yes'/>
    <elf-symbol name='_ZNSt15__uniq_ptr_implIN10prometheus5GaugeESt14default_deleteIS1_EEC1IS3_EEPS1_OT_' type='func-type' binding='weak-binding' visibility='default-visibility' alias='_ZNSt15__uniq_ptr_implIN10prometheus5GaugeESt14default_deleteIS1_EEC2IS3_EEPS1_OT_' is-defined='yes'/>
    <elf-symbol name='_ZNSt15__uniq_ptr_implIN10prometheus5GaugeESt14default_deleteIS1_EEC2IS3_EEPS1_OT_' type='func-type' binding='weak-binding' visibility='default-visibility' is-defined='yes'/>
    <elf-symbol name='_ZNSt15__uniq_ptr_implIN10prometheus7CounterESt14default_deleteIS1_EE10_M_deleterEv' type='func-type' binding='weak-binding' visibility='default-visibility' is-defined='yes'/>
    <elf-symbol name='_ZNSt15__uniq_ptr_implIN10prometheus7CounterESt14default_deleteIS1_EE6_M_ptrEv' type='func-type' binding='weak-binding' visibility='default-visibility' is-defined='yes'/>
    <elf-symbol name='_ZNSt15__uniq_ptr_implIN10prometheus7CounterESt14default_deleteIS1_EEC1IS3_EEPS1_OT_' type='func-type' binding='weak-binding' visibility='default-visibility' alias='_ZNSt15__uniq_ptr_implIN10prometheus7CounterESt14default_deleteIS1_EEC2IS3_EEPS1_OT_' is-defined='yes'/>
    <elf-symbol name='_ZNSt15__uniq_ptr_implIN10prometheus7CounterESt14default_deleteIS1_EEC2IS3_EEPS1_OT_' type='func-type' binding='weak-binding' visibility='default-visibility' is-defined='yes'/>
    <elf-symbol name='_ZNSt15__uniq_ptr_implIN10prometheus7SummaryESt14default_deleteIS1_EE10_M_deleterEv' type='func-type' binding='weak-binding' visibility='default-visibility' is-defined='yes'/>
    <elf-symbol name='_ZNSt15__uniq_ptr_implIN10prometheus7SummaryESt14default_deleteIS1_EE6_M_ptrEv' type='func-type' binding='weak-binding' visibility='default-visibility' is-defined='yes'/>
    <elf-symbol name='_ZNSt15__uniq_ptr_implIN10prometheus7SummaryESt14default_deleteIS1_EEC1IS3_EEPS1_OT_' type='func-type' binding='weak-binding' visibility='default-visibility' alias='_ZNSt15__uniq_ptr_implIN10prometheus7SummaryESt14default_deleteIS1_EEC2IS3_EEPS1_OT_' is-defined='yes'/>
    <elf-symbol name='_ZNSt15__uniq_ptr_implIN10prometheus7SummaryESt14default_deleteIS1_EEC2IS3_EEPS1_OT_' type='func-type' binding='weak-binding' visibility='default-visibility' is-defined='yes'/>
    <elf-symbol name='_ZNSt15__uniq_ptr_implIN10prometheus9HistogramESt14default_deleteIS1_EE10_M_deleterEv' type='func-type' binding='weak-binding' visibility='default-visibility' is-defined='yes'/>
    <elf-symbol name='_ZNSt15__uniq_ptr_implIN10prometheus9HistogramESt14default_deleteIS1_EE6_M_ptrEv' type='func-type' binding='weak-binding' visibility='default-visibility' is-defined='yes'/>
    <elf-symbol name='_ZNSt15__uniq_ptr_implIN10prometheus9HistogramESt14default_deleteIS1_EEC1IS3_EEPS1_OT_' type='func-type' binding='weak-binding' visibility='default-visibility' alias='_ZNSt15__uniq_ptr_implIN10prometheus9HistogramESt14default_deleteIS1_EEC2IS3_EEPS1_OT_' is-defined='yes'/>
    <elf-symbol name='_ZNSt15__uniq_ptr_implIN10prometheus9HistogramESt14default_deleteIS1_EEC2IS3_EEPS1_OT_' type='func-type' binding='weak-binding' visibility='default-visibility' is-defined='yes'/>
    <elf-symbol name='_ZNSt16allocator_traitsISaIN10prometheus12ClientMetric5LabelEEE10deallocateERS3_PS2_m' type='func-type' binding='weak-binding' visibility='default-visibility' is-defined='yes'/>
    <elf-symbol name='_ZNSt16allocator_traitsISaIN10prometheus12ClientMetric5LabelEEE37select_on_container_copy_constructionERKS3_' type='func-type' binding='weak-binding' visibility='default-visibility' is-defined='yes'/>
    <elf-symbol name='_ZNSt16allocator_traitsISaIN10prometheus12ClientMetric5LabelEEE7destroyIS2_EEvRS3_PT_' type='func-type' binding='weak-binding' visibility='default-visibility' is-defined='yes'/>
    <elf-symbol name='_ZNSt16allocator_traitsISaIN10prometheus12ClientMetric5LabelEEE8allocateERS3_m' type='func-type' binding='weak-binding' visibility='default-visibility' is-defined='yes'/>
    <elf-symbol name='_ZNSt16allocator_traitsISaIN10prometheus12ClientMetric5LabelEEE8max_sizeERKS3_' type='func-type' binding='weak-binding' visibility='default-visibility' is-defined='yes'/>
    <elf-symbol name='_ZNSt16allocator_traitsISaIN10prometheus12ClientMetric5LabelEEE9constructIS2_JS2_EEEvRS3_PT_DpOT0_' type='func-type' binding='weak-binding' visibility='default-visibility' is-defined='yes'/>
    <elf-symbol name='_ZNSt16allocator_traitsISaIN10prometheus12ClientMetric6BucketEEE10deallocateERS3_PS2_m' type='func-type' binding='weak-binding' visibility='default-visibility' is-defined='yes'/>
    <elf-symbol name='_ZNSt16allocator_traitsISaIN10prometheus12ClientMetric6BucketEEE37select_on_container_copy_constructionERKS3_' type='func-type' binding='weak-binding' visibility='default-visibility' is-defined='yes'/>
    <elf-symbol name='_ZNSt16allocator_traitsISaIN10prometheus12ClientMetric6BucketEEE7destroyIS2_EEvRS3_PT_' type='func-type' binding='weak-binding' visibility='default-visibility' is-defined='yes'/>
    <elf-symbol name='_ZNSt16allocator_traitsISaIN10prometheus12ClientMetric6BucketEEE8allocateERS3_m' type='func-type' binding='weak-binding' visibility='default-visibility' is-defined='yes'/>
    <elf-symbol name='_ZNSt16allocator_traitsISaIN10prometheus12ClientMetric6BucketEEE8max_sizeERKS3_' type='func-type' binding='weak-binding' visibility='default-visibility' is-defined='yes'/>
    <elf-symbol name='_ZNSt16allocator_traitsISaIN10prometheus12ClientMetric6BucketEEE9constructIS2_JS2_EEEvRS3_PT_DpOT0_' type='func-type' binding='weak-binding' visibility='default-visibility' is-defined='yes'/>
    <elf-symbol name='_ZNSt16allocator_traitsISaIN10prometheus12ClientMetric8QuantileEEE10deallocateERS3_PS2_m' type='func-type' binding='weak-binding' visibility='default-visibility' is-defined='yes'/>
    <elf-symbol name='_ZNSt16allocator_traitsISaIN10prometheus12ClientMetric8QuantileEEE37select_on_container_copy_constructionERKS3_' type='func-type' binding='weak-binding' visibility='default-visibility' is-defined='yes'/>
    <elf-symbol name='_ZNSt16allocator_traitsISaIN10prometheus12ClientMetric8QuantileEEE7destroyIS2_EEvRS3_PT_' type='func-type' binding='weak-binding' visibility='default-visibility' is-defined='yes'/>
    <elf-symbol name='_ZNSt16allocator_traitsISaIN10prometheus12ClientMetric8QuantileEEE8allocateERS3_m' type='func-type' binding='weak-binding' visibility='default-visibility' is-defined='yes'/>
    <elf-symbol name='_ZNSt16allocator_traitsISaIN10prometheus12ClientMetric8QuantileEEE8max_sizeERKS3_' type='func-type' binding='weak-binding' visibility='default-visibility' is-defined='yes'/>
    <elf-symbol name='_ZNSt16allocator_traitsISaIN10prometheus12ClientMetric8QuantileEEE9constructIS2_JS2_EEEvRS3_PT_DpOT0_' type='func-type' binding='weak-binding' visibility='default-visibility' is-defined='yes'/>
    <elf-symbol name='_ZNSt16allocator_traitsISaIN10prometheus12ClientMetricEEE10deallocateERS2_PS1_m' type='func-type' binding='weak-binding' visibility='default-visibility' is-defined='yes'/>
    <elf-symbol name='_ZNSt16allocator_traitsISaIN10prometheus12ClientMetricEEE37select_on_container_copy_constructionERKS2_' type='func-type' binding='weak-binding' visibility='default-visibility' is-defined='yes'/>
    <elf-symbol name='_ZNSt16allocator_traitsISaIN10prometheus12ClientMetricEEE7destroyIS1_EEvRS2_PT_' type='func-type' binding='weak-binding' visibility='default-visibility' is-defined='yes'/>
    <elf-symbol name='_ZNSt16allocator_traitsISaIN10prometheus12ClientMetricEEE8allocateERS2_m' type='func-type' binding='weak-binding' visibility='default-visibility' is-defined='yes'/>
    <elf-symbol name='_ZNSt16allocator_traitsISaIN10prometheus12ClientMetricEEE8max_sizeERKS2_' type='func-type' binding='weak-binding' visibility='default-visibility' is-defined='yes'/>
    <elf-symbol name='_ZNSt16allocator_traitsISaIN10prometheus12ClientMetricEEE9constructIS1_JS1_EEEvRS2_PT_DpOT0_' type='func-type' binding='weak-binding' visibility='default-visibility' is-defined='yes'/>
    <elf-symbol name='_ZNSt16allocator_traitsISaIN10prometheus12MetricFamilyEEE10deallocateERS2_PS1_m' type='func-type' binding='weak-binding' visibility='default-visibility' is-defined='yes'/>
    <elf-symbol name='_ZNSt16allocator_traitsISaIN10prometheus12MetricFamilyEEE8allocateERS2_m' type='func-type' binding='weak-binding' visibility='default-visibility' is-defined='yes'/>
    <elf-symbol name='_ZNSt16allocator_traitsISaIN10prometheus12MetricFamilyEEE8max_sizeERKS2_' type='func-type' binding='weak-binding' visibility='default-visibility' is-defined='yes'/>
    <elf-symbol name='_ZNSt16allocator_traitsISaIN10prometheus6detail13CKMSQuantiles4ItemEEE10deallocateERS4_PS3_m' type='func-type' binding='weak-binding' visibility='default-visibility' is-defined='yes'/>
    <elf-symbol name='_ZNSt16allocator_traitsISaIN10prometheus6detail13CKMSQuantiles4ItemEEE37select_on_container_copy_constructionERKS4_' type='func-type' binding='weak-binding' visibility='default-visibility' is-defined='yes'/>
    <elf-symbol name='_ZNSt16allocator_traitsISaIN10prometheus6detail13CKMSQuantiles4ItemEEE7destroyIS3_EEvRS4_PT_' type='func-type' binding='weak-binding' visibility='default-visibility' is-defined='yes'/>
    <elf-symbol name='_ZNSt16allocator_traitsISaIN10prometheus6detail13CKMSQuantiles4ItemEEE8allocateERS4_m' type='func-type' binding='weak-binding' visibility='default-visibility' is-defined='yes'/>
    <elf-symbol name='_ZNSt16allocator_traitsISaIN10prometheus6detail13CKMSQuantiles4ItemEEE8max_sizeERKS4_' type='func-type' binding='weak-binding' visibility='default-visibility' is-defined='yes'/>
    <elf-symbol name='_ZNSt16allocator_traitsISaIN10prometheus6detail13CKMSQuantiles4ItemEEE9constructIS3_JRdiRiEEEvRS4_PT_DpOT0_' type='func-type' binding='weak-binding' visibility='default-visibility' is-defined='yes'/>
    <elf-symbol name='_ZNSt16allocator_traitsISaIN10prometheus6detail13CKMSQuantiles4ItemEEE9constructIS3_JRdiiEEEvRS4_PT_DpOT0_' type='func-type' binding='weak-binding' visibility='default-visibility' is-defined='yes'/>
    <elf-symbol name='_ZNSt16allocator_traitsISaIN10prometheus6detail13CKMSQuantiles4ItemEEE9constructIS3_JS3_EEEvRS4_PT_DpOT0_' type='func-type' binding='weak-binding' visibility='default-visibility' is-defined='yes'/>
    <elf-symbol name='_ZNSt16allocator_traitsISaIN10prometheus6detail13CKMSQuantiles8QuantileEEE10deallocateERS4_PS3_m' type='func-type' binding='weak-binding' visibility='default-visibility' is-defined='yes'/>
    <elf-symbol name='_ZNSt16allocator_traitsISaIN10prometheus6detail13CKMSQuantiles8QuantileEEE37select_on_container_copy_constructionERKS4_' type='func-type' binding='weak-binding' visibility='default-visibility' is-defined='yes'/>
    <elf-symbol name='_ZNSt16allocator_traitsISaIN10prometheus6detail13CKMSQuantiles8QuantileEEE8allocateERS4_m' type='func-type' binding='weak-binding' visibility='default-visibility' is-defined='yes'/>
    <elf-symbol name='_ZNSt16allocator_traitsISaIN10prometheus6detail13CKMSQuantilesEEE10deallocateERS3_PS2_m' type='func-type' binding='weak-binding' visibility='default-visibility' is-defined='yes'/>
    <elf-symbol name='_ZNSt16allocator_traitsISaIN10prometheus6detail13CKMSQuantilesEEE8allocateERS3_m' type='func-type' binding='weak-binding' visibility='default-visibility' is-defined='yes'/>
    <elf-symbol name='_ZNSt16allocator_traitsISaIN10prometheus6detail13CKMSQuantilesEEE8max_sizeERKS3_' type='func-type' binding='weak-binding' visibility='default-visibility' is-defined='yes'/>
    <elf-symbol name='_ZNSt16allocator_traitsISaIN10prometheus7CounterEEE10deallocateERS2_PS1_m' type='func-type' binding='weak-binding' visibility='default-visibility' is-defined='yes'/>
    <elf-symbol name='_ZNSt16allocator_traitsISaIN10prometheus7CounterEEE8allocateERS2_m' type='func-type' binding='weak-binding' visibility='default-visibility' is-defined='yes'/>
    <elf-symbol name='_ZNSt16allocator_traitsISaIN10prometheus7CounterEEE8max_sizeERKS2_' type='func-type' binding='weak-binding' visibility='default-visibility' is-defined='yes'/>
    <elf-symbol name='_ZNSt16allocator_traitsISaINSt8__detail10_Hash_nodeISt4pairIKPN10prometheus5GaugeEmELb0EEEEE10deallocateERS9_PS8_m' type='func-type' binding='weak-binding' visibility='default-visibility' is-defined='yes'/>
    <elf-symbol name='_ZNSt16allocator_traitsISaINSt8__detail10_Hash_nodeISt4pairIKPN10prometheus5GaugeEmELb0EEEEE7destroyIS7_EEvRS9_PT_' type='func-type' binding='weak-binding' visibility='default-visibility' is-defined='yes'/>
    <elf-symbol name='_ZNSt16allocator_traitsISaINSt8__detail10_Hash_nodeISt4pairIKPN10prometheus5GaugeEmELb0EEEEE8allocateERS9_m' type='func-type' binding='weak-binding' visibility='default-visibility' is-defined='yes'/>
    <elf-symbol name='_ZNSt16allocator_traitsISaINSt8__detail10_Hash_nodeISt4pairIKPN10prometheus5GaugeEmELb0EEEEE9constructIS7_JS7_EEEvRS9_PT_DpOT0_' type='func-type' binding='weak-binding' visibility='default-visibility' is-defined='yes'/>
    <elf-symbol name='_ZNSt16allocator_traitsISaINSt8__detail10_Hash_nodeISt4pairIKPN10prometheus7CounterEmELb0EEEEE10deallocateERS9_PS8_m' type='func-type' binding='weak-binding' visibility='default-visibility' is-defined='yes'/>
    <elf-symbol name='_ZNSt16allocator_traitsISaINSt8__detail10_Hash_nodeISt4pairIKPN10prometheus7CounterEmELb0EEEEE7destroyIS7_EEvRS9_PT_' type='func-type' binding='weak-binding' visibility='default-visibility' is-defined='yes'/>
    <elf-symbol name='_ZNSt16allocator_traitsISaINSt8__detail10_Hash_nodeISt4pairIKPN10prometheus7CounterEmELb0EEEEE8allocateERS9_m' type='func-type' binding='weak-binding' visibility='default-visibility' is-defined='yes'/>
    <elf-symbol name='_ZNSt16allocator_traitsISaINSt8__detail10_Hash_nodeISt4pairIKPN10prometheus7CounterEmELb0EEEEE9constructIS7_JS7_EEEvRS9_PT_DpOT0_' type='func-type' binding='weak-binding' visibility='default-visibility' is-defined='yes'/>
    <elf-symbol name='_ZNSt16allocator_traitsISaINSt8__detail10_Hash_nodeISt4pairIKPN10prometheus7SummaryEmELb0EEEEE10deallocateERS9_PS8_m' type='func-type' binding='weak-binding' visibility='default-visibility' is-defined='yes'/>
    <elf-symbol name='_ZNSt16allocator_traitsISaINSt8__detail10_Hash_nodeISt4pairIKPN10prometheus7SummaryEmELb0EEEEE7destroyIS7_EEvRS9_PT_' type='func-type' binding='weak-binding' visibility='default-visibility' is-defined='yes'/>
    <elf-symbol name='_ZNSt16allocator_traitsISaINSt8__detail10_Hash_nodeISt4pairIKPN10prometheus7SummaryEmELb0EEEEE8allocateERS9_m' type='func-type' binding='weak-binding' visibility='default-visibility' is-defined='yes'/>
    <elf-symbol name='_ZNSt16allocator_traitsISaINSt8__detail10_Hash_nodeISt4pairIKPN10prometheus7SummaryEmELb0EEEEE9constructIS7_JS7_EEEvRS9_PT_DpOT0_' type='func-type' binding='weak-binding' visibility='default-visibility' is-defined='yes'/>
    <elf-symbol name='_ZNSt16allocator_traitsISaINSt8__detail10_Hash_nodeISt4pairIKPN10prometheus9HistogramEmELb0EEEEE10deallocateERS9_PS8_m' type='func-type' binding='weak-binding' visibility='default-visibility' is-defined='yes'/>
    <elf-symbol name='_ZNSt16allocator_traitsISaINSt8__detail10_Hash_nodeISt4pairIKPN10prometheus9HistogramEmELb0EEEEE7destroyIS7_EEvRS9_PT_' type='func-type' binding='weak-binding' visibility='default-visibility' is-defined='yes'/>
    <elf-symbol name='_ZNSt16allocator_traitsISaINSt8__detail10_Hash_nodeISt4pairIKPN10prometheus9HistogramEmELb0EEEEE8allocateERS9_m' type='func-type' binding='weak-binding' visibility='default-visibility' is-defined='yes'/>
    <elf-symbol name='_ZNSt16allocator_traitsISaINSt8__detail10_Hash_nodeISt4pairIKPN10prometheus9HistogramEmELb0EEEEE9constructIS7_JS7_EEEvRS9_PT_DpOT0_' type='func-type' binding='weak-binding' visibility='default-visibility' is-defined='yes'/>
    <elf-symbol name='_ZNSt16allocator_traitsISaINSt8__detail10_Hash_nodeISt4pairIKmSt10unique_ptrIN10prometheus5GaugeESt14default_deleteIS6_EEELb0EEEEE10deallocateERSC_PSB_m' type='func-type' binding='weak-binding' visibility='default-visibility' is-defined='yes'/>
    <elf-symbol name='_ZNSt16allocator_traitsISaINSt8__detail10_Hash_nodeISt4pairIKmSt10unique_ptrIN10prometheus5GaugeESt14default_deleteIS6_EEELb0EEEEE7destroyISA_EEvRSC_PT_' type='func-type' binding='weak-binding' visibility='default-visibility' is-defined='yes'/>
    <elf-symbol name='_ZNSt16allocator_traitsISaINSt8__detail10_Hash_nodeISt4pairIKmSt10unique_ptrIN10prometheus5GaugeESt14default_deleteIS6_EEELb0EEEEE8allocateERSC_m' type='func-type' binding='weak-binding' visibility='default-visibility' is-defined='yes'/>
    <elf-symbol name='_ZNSt16allocator_traitsISaINSt8__detail10_Hash_nodeISt4pairIKmSt10unique_ptrIN10prometheus5GaugeESt14default_deleteIS6_EEELb0EEEEE9constructISA_JS2_ImS9_EEEEvRSC_PT_DpOT0_' type='func-type' binding='weak-binding' visibility='default-visibility' is-defined='yes'/>
    <elf-symbol name='_ZNSt16allocator_traitsISaINSt8__detail10_Hash_nodeISt4pairIKmSt10unique_ptrIN10prometheus7CounterESt14default_deleteIS6_EEELb0EEEEE10deallocateERSC_PSB_m' type='func-type' binding='weak-binding' visibility='default-visibility' is-defined='yes'/>
    <elf-symbol name='_ZNSt16allocator_traitsISaINSt8__detail10_Hash_nodeISt4pairIKmSt10unique_ptrIN10prometheus7CounterESt14default_deleteIS6_EEELb0EEEEE7destroyISA_EEvRSC_PT_' type='func-type' binding='weak-binding' visibility='default-visibility' is-defined='yes'/>
    <elf-symbol name='_ZNSt16allocator_traitsISaINSt8__detail10_Hash_nodeISt4pairIKmSt10unique_ptrIN10prometheus7CounterESt14default_deleteIS6_EEELb0EEEEE8allocateERSC_m' type='func-type' binding='weak-binding' visibility='default-visibility' is-defined='yes'/>
    <elf-symbol name='_ZNSt16allocator_traitsISaINSt8__detail10_Hash_nodeISt4pairIKmSt10unique_ptrIN10prometheus7CounterESt14default_deleteIS6_EEELb0EEEEE9constructISA_JS2_ImS9_EEEEvRSC_PT_DpOT0_' type='func-type' binding='weak-binding' visibility='default-visibility' is-defined='yes'/>
    <elf-symbol name='_ZNSt16allocator_traitsISaINSt8__detail10_Hash_nodeISt4pairIKmSt10unique_ptrIN10prometheus7SummaryESt14default_deleteIS6_EEELb0EEEEE10deallocateERSC_PSB_m' type='func-type' binding='weak-binding' visibility='default-visibility' is-defined='yes'/>
    <elf-symbol name='_ZNSt16allocator_traitsISaINSt8__detail10_Hash_nodeISt4pairIKmSt10unique_ptrIN10prometheus7SummaryESt14default_deleteIS6_EEELb0EEEEE7destroyISA_EEvRSC_PT_' type='func-type' binding='weak-binding' visibility='default-visibility' is-defined='yes'/>
    <elf-symbol name='_ZNSt16allocator_traitsISaINSt8__detail10_Hash_nodeISt4pairIKmSt10unique_ptrIN10prometheus7SummaryESt14default_deleteIS6_EEELb0EEEEE8allocateERSC_m' type='func-type' binding='weak-binding' visibility='default-visibility' is-defined='yes'/>
    <elf-symbol name='_ZNSt16allocator_traitsISaINSt8__detail10_Hash_nodeISt4pairIKmSt10unique_ptrIN10prometheus7SummaryESt14default_deleteIS6_EEELb0EEEEE9constructISA_JS2_ImS9_EEEEvRSC_PT_DpOT0_' type='func-type' binding='weak-binding' visibility='default-visibility' is-defined='yes'/>
    <elf-symbol name='_ZNSt16allocator_traitsISaINSt8__detail10_Hash_nodeISt4pairIKmSt10unique_ptrIN10prometheus9HistogramESt14default_deleteIS6_EEELb0EEEEE10deallocateERSC_PSB_m' type='func-type' binding='weak-binding' visibility='default-visibility' is-defined='yes'/>
    <elf-symbol name='_ZNSt16allocator_traitsISaINSt8__detail10_Hash_nodeISt4pairIKmSt10unique_ptrIN10prometheus9HistogramESt14default_deleteIS6_EEELb0EEEEE7destroyISA_EEvRSC_PT_' type='func-type' binding='weak-binding' visibility='default-visibility' is-defined='yes'/>
    <elf-symbol name='_ZNSt16allocator_traitsISaINSt8__detail10_Hash_nodeISt4pairIKmSt10unique_ptrIN10prometheus9HistogramESt14default_deleteIS6_EEELb0EEEEE8allocateERSC_m' type='func-type' binding='weak-binding' visibility='default-visibility' is-defined='yes'/>
    <elf-symbol name='_ZNSt16allocator_traitsISaINSt8__detail10_Hash_nodeISt4pairIKmSt10unique_ptrIN10prometheus9HistogramESt14default_deleteIS6_EEELb0EEEEE9constructISA_JS2_ImS9_EEEEvRSC_PT_DpOT0_' type='func-type' binding='weak-binding' visibility='default-visibility' is-defined='yes'/>
    <elf-symbol name='_ZNSt16allocator_traitsISaINSt8__detail10_Hash_nodeISt4pairIKmSt3mapINSt7__cxx1112basic_stringIcSt11char_traitsIcESaIcEEESA_St4lessISA_ESaIS2_IKSA_SA_EEEELb0EEEEE10deallocateERSJ_PSI_m' type='func-type' binding='weak-binding' visibility='default-visibility' is-defined='yes'/>
    <elf-symbol name='_ZNSt16allocator_traitsISaINSt8__detail10_Hash_nodeISt4pairIKmSt3mapINSt7__cxx1112basic_stringIcSt11char_traitsIcESaIcEEESA_St4lessISA_ESaIS2_IKSA_SA_EEEELb0EEEEE7destroyISH_EEvRSJ_PT_' type='func-type' binding='weak-binding' visibility='default-visibility' is-defined='yes'/>
    <elf-symbol name='_ZNSt16allocator_traitsISaINSt8__detail10_Hash_nodeISt4pairIKmSt3mapINSt7__cxx1112basic_stringIcSt11char_traitsIcESaIcEEESA_St4lessISA_ESaIS2_IKSA_SA_EEEELb0EEEEE8allocateERSJ_m' type='func-type' binding='weak-binding' visibility='default-visibility' is-defined='yes'/>
    <elf-symbol name='_ZNSt16allocator_traitsISaINSt8__detail10_Hash_nodeISt4pairIKmSt3mapINSt7__cxx1112basic_stringIcSt11char_traitsIcESaIcEEESA_St4lessISA_ESaIS2_IKSA_SA_EEEELb0EEEEE9constructISH_JSH_EEEvRSJ_PT_DpOT0_' type='func-type' binding='weak-binding' visibility='default-visibility' is-defined='yes'/>
    <elf-symbol name='_ZNSt16allocator_traitsISaIPNSt8__detail15_Hash_node_baseEEE10deallocateERS3_PS2_m' type='func-type' binding='weak-binding' visibility='default-visibility' is-defined='yes'/>
    <elf-symbol name='_ZNSt16allocator_traitsISaIPNSt8__detail15_Hash_node_baseEEE8allocateERS3_m' type='func-type' binding='weak-binding' visibility='default-visibility' is-defined='yes'/>
    <elf-symbol name='_ZNSt16allocator_traitsISaISt13_Rb_tree_nodeISt4pairIKNSt7__cxx1112basic_stringIcSt11char_traitsIcESaIcEEES7_EEEE10deallocateERSB_PSA_m' type='func-type' binding='weak-binding' visibility='default-visibility' is-defined='yes'/>
    <elf-symbol name='_ZNSt16allocator_traitsISaISt13_Rb_tree_nodeISt4pairIKNSt7__cxx1112basic_stringIcSt11char_traitsIcESaIcEEES7_EEEE37select_on_container_copy_constructionERKSB_' type='func-type' binding='weak-binding' visibility='default-visibility' is-defined='yes'/>
    <elf-symbol name='_ZNSt16allocator_traitsISaISt13_Rb_tree_nodeISt4pairIKNSt7__cxx1112basic_stringIcSt11char_traitsIcESaIcEEES7_EEEE7destroyIS9_EEvRSB_PT_' type='func-type' binding='weak-binding' visibility='default-visibility' is-defined='yes'/>
    <elf-symbol name='_ZNSt16allocator_traitsISaISt13_Rb_tree_nodeISt4pairIKNSt7__cxx1112basic_stringIcSt11char_traitsIcESaIcEEES7_EEEE8allocateERSB_m' type='func-type' binding='weak-binding' visibility='default-visibility' is-defined='yes'/>
    <elf-symbol name='_ZNSt16allocator_traitsISaISt13_Rb_tree_nodeISt4pairIKNSt7__cxx1112basic_stringIcSt11char_traitsIcESaIcEEES7_EEEE9constructIS9_JRKS9_EEEvRSB_PT_DpOT0_' type='func-type' binding='weak-binding' visibility='default-visibility' is-defined='yes'/>
    <elf-symbol name='_ZNSt16allocator_traitsISaIdEE10deallocateERS0_Pdm' type='func-type' binding='weak-binding' visibility='default-visibility' is-defined='yes'/>
    <elf-symbol name='_ZNSt16allocator_traitsISaIdEE37select_on_container_copy_constructionERKS0_' type='func-type' binding='weak-binding' visibility='default-visibility' is-defined='yes'/>
    <elf-symbol name='_ZNSt16allocator_traitsISaIdEE8allocateERS0_m' type='func-type' binding='weak-binding' visibility='default-visibility' is-defined='yes'/>
    <elf-symbol name='_ZNSt17reference_wrapperIKSt6vectorIN10prometheus6detail13CKMSQuantiles8QuantileESaIS4_EEE6_S_funERS7_' type='func-type' binding='weak-binding' visibility='default-visibility' is-defined='yes'/>
    <elf-symbol name='_ZNSt17reference_wrapperIKSt6vectorIN10prometheus6detail13CKMSQuantiles8QuantileESaIS4_EEEC1IRS7_vPS7_EEOT_' type='func-type' binding='weak-binding' visibility='default-visibility' alias='_ZNSt17reference_wrapperIKSt6vectorIN10prometheus6detail13CKMSQuantiles8QuantileESaIS4_EEEC2IRS7_vPS7_EEOT_' is-defined='yes'/>
    <elf-symbol name='_ZNSt17reference_wrapperIKSt6vectorIN10prometheus6detail13CKMSQuantiles8QuantileESaIS4_EEEC2IRS7_vPS7_EEOT_' type='func-type' binding='weak-binding' visibility='default-visibility' is-defined='yes'/>
    <elf-symbol name='_ZNSt20_Rb_tree_key_compareISt4lessINSt7__cxx1112basic_stringIcSt11char_traitsIcESaIcEEEEEC1EOS8_' type='func-type' binding='weak-binding' visibility='default-visibility' alias='_ZNSt20_Rb_tree_key_compareISt4lessINSt7__cxx1112basic_stringIcSt11char_traitsIcESaIcEEEEEC2EOS8_' is-defined='yes'/>
    <elf-symbol name='_ZNSt20_Rb_tree_key_compareISt4lessINSt7__cxx1112basic_stringIcSt11char_traitsIcESaIcEEEEEC1ERKS7_' type='func-type' binding='weak-binding' visibility='default-visibility' is-defined='yes'/>
    <elf-symbol name='_ZNSt20_Rb_tree_key_compareISt4lessINSt7__cxx1112basic_stringIcSt11char_traitsIcESaIcEEEEEC1Ev' type='func-type' binding='weak-binding' visibility='default-visibility' alias='_ZNSt20_Rb_tree_key_compareISt4lessINSt7__cxx1112basic_stringIcSt11char_traitsIcESaIcEEEEEC2Ev' is-defined='yes'/>
    <elf-symbol name='_ZNSt20_Rb_tree_key_compareISt4lessINSt7__cxx1112basic_stringIcSt11char_traitsIcESaIcEEEEEC2EOS8_' type='func-type' binding='weak-binding' visibility='default-visibility' is-defined='yes'/>
    <elf-symbol name='_ZNSt20_Rb_tree_key_compareISt4lessINSt7__cxx1112basic_stringIcSt11char_traitsIcESaIcEEEEEC2ERKS7_' type='func-type' binding='weak-binding' visibility='default-visibility' alias='_ZNSt20_Rb_tree_key_compareISt4lessINSt7__cxx1112basic_stringIcSt11char_traitsIcESaIcEEEEEC1ERKS7_' is-defined='yes'/>
    <elf-symbol name='_ZNSt20_Rb_tree_key_compareISt4lessINSt7__cxx1112basic_stringIcSt11char_traitsIcESaIcEEEEEC2Ev' type='func-type' binding='weak-binding' visibility='default-visibility' is-defined='yes'/>
    <elf-symbol name='_ZNSt20__copy_move_backwardILb1ELb0ESt26random_access_iterator_tagE13__copy_move_bIPN10prometheus12MetricFamilyES5_EET0_T_S7_S6_' type='func-type' binding='weak-binding' visibility='default-visibility' is-defined='yes'/>
    <elf-symbol name='_ZNSt20__copy_move_backwardILb1ELb1ESt26random_access_iterator_tagE13__copy_move_bIN10prometheus6detail13CKMSQuantiles4ItemEEEPT_PKS7_SA_S8_' type='func-type' binding='weak-binding' visibility='default-visibility' is-defined='yes'/>
    <elf-symbol name='_ZNSt20__copy_move_backwardILb1ELb1ESt26random_access_iterator_tagE13__copy_move_bIdEEPT_PKS3_S6_S4_' type='func-type' binding='weak-binding' visibility='default-visibility' is-defined='yes'/>
    <elf-symbol name='_ZNSt20__uninitialized_copyILb0EE13__uninit_copyIN9__gnu_cxx17__normal_iteratorIPKN10prometheus12ClientMetric5LabelESt6vectorIS6_SaIS6_EEEEPS6_EET0_T_SF_SE_' type='func-type' binding='weak-binding' visibility='default-visibility' is-defined='yes'/>
    <elf-symbol name='_ZNSt20__uninitialized_copyILb0EE13__uninit_copyIN9__gnu_cxx17__normal_iteratorIPKN10prometheus12ClientMetric6BucketESt6vectorIS6_SaIS6_EEEEPS6_EET0_T_SF_SE_' type='func-type' binding='weak-binding' visibility='default-visibility' is-defined='yes'/>
    <elf-symbol name='_ZNSt20__uninitialized_copyILb0EE13__uninit_copyIN9__gnu_cxx17__normal_iteratorIPKN10prometheus12ClientMetric8QuantileESt6vectorIS6_SaIS6_EEEEPS6_EET0_T_SF_SE_' type='func-type' binding='weak-binding' visibility='default-visibility' is-defined='yes'/>
    <elf-symbol name='_ZNSt20__uninitialized_copyILb0EE13__uninit_copyIN9__gnu_cxx17__normal_iteratorIPKN10prometheus12ClientMetricESt6vectorIS5_SaIS5_EEEEPS5_EET0_T_SE_SD_' type='func-type' binding='weak-binding' visibility='default-visibility' is-defined='yes'/>
    <elf-symbol name='_ZNSt20__uninitialized_copyILb0EE13__uninit_copyIN9__gnu_cxx17__normal_iteratorIPKN10prometheus6detail13CKMSQuantiles4ItemESt6vectorIS7_SaIS7_EEEEPS7_EET0_T_SG_SF_' type='func-type' binding='weak-binding' visibility='default-visibility' is-defined='yes'/>
    <elf-symbol name='_ZNSt20__uninitialized_copyILb0EE13__uninit_copyIN9__gnu_cxx17__normal_iteratorIPKN10prometheus6detail13CKMSQuantiles8QuantileESt6vectorIS7_SaIS7_EEEEPS7_EET0_T_SG_SF_' type='func-type' binding='weak-binding' visibility='default-visibility' is-defined='yes'/>
    <elf-symbol name='_ZNSt20__uninitialized_copyILb0EE13__uninit_copyIPKN10prometheus12MetricFamilyEPS3_EET0_T_S8_S7_' type='func-type' binding='weak-binding' visibility='default-visibility' is-defined='yes'/>
    <elf-symbol name='_ZNSt20__uninitialized_copyILb0EE13__uninit_copyISt13move_iteratorIPN10prometheus12ClientMetric5LabelEES6_EET0_T_S9_S8_' type='func-type' binding='weak-binding' visibility='default-visibility' is-defined='yes'/>
    <elf-symbol name='_ZNSt20__uninitialized_copyILb0EE13__uninit_copyISt13move_iteratorIPN10prometheus12ClientMetric6BucketEES6_EET0_T_S9_S8_' type='func-type' binding='weak-binding' visibility='default-visibility' is-defined='yes'/>
    <elf-symbol name='_ZNSt20__uninitialized_copyILb0EE13__uninit_copyISt13move_iteratorIPN10prometheus12ClientMetric8QuantileEES6_EET0_T_S9_S8_' type='func-type' binding='weak-binding' visibility='default-visibility' is-defined='yes'/>
    <elf-symbol name='_ZNSt20__uninitialized_copyILb0EE13__uninit_copyISt13move_iteratorIPN10prometheus12ClientMetricEES5_EET0_T_S8_S7_' type='func-type' binding='weak-binding' visibility='default-visibility' is-defined='yes'/>
    <elf-symbol name='_ZNSt20__uninitialized_copyILb0EE13__uninit_copyISt13move_iteratorIPN10prometheus12MetricFamilyEES5_EET0_T_S8_S7_' type='func-type' binding='weak-binding' visibility='default-visibility' is-defined='yes'/>
    <elf-symbol name='_ZNSt20__uninitialized_copyILb0EE13__uninit_copyISt13move_iteratorIPN10prometheus6detail13CKMSQuantiles4ItemEES7_EET0_T_SA_S9_' type='func-type' binding='weak-binding' visibility='default-visibility' is-defined='yes'/>
    <elf-symbol name='_ZNSt20__uninitialized_copyILb1EE13__uninit_copyIN9__gnu_cxx17__normal_iteratorIPKdSt6vectorIdSaIdEEEEPdEET0_T_SC_SB_' type='func-type' binding='weak-binding' visibility='default-visibility' is-defined='yes'/>
    <elf-symbol name='_ZNSt22__uninitialized_fill_nILb0EE15__uninit_fill_nIPN10prometheus6detail13CKMSQuantilesEmS4_EET_S6_T0_RKT1_' type='func-type' binding='weak-binding' visibility='default-visibility' is-defined='yes'/>
    <elf-symbol name='_ZNSt23_Rb_tree_const_iteratorISt4pairIKNSt7__cxx1112basic_stringIcSt11char_traitsIcESaIcEEES6_EEC1EPKSt18_Rb_tree_node_base' type='func-type' binding='weak-binding' visibility='default-visibility' alias='_ZNSt23_Rb_tree_const_iteratorISt4pairIKNSt7__cxx1112basic_stringIcSt11char_traitsIcESaIcEEES6_EEC2EPKSt18_Rb_tree_node_base' is-defined='yes'/>
    <elf-symbol name='_ZNSt23_Rb_tree_const_iteratorISt4pairIKNSt7__cxx1112basic_stringIcSt11char_traitsIcESaIcEEES6_EEC2EPKSt18_Rb_tree_node_base' type='func-type' binding='weak-binding' visibility='default-visibility' is-defined='yes'/>
    <elf-symbol name='_ZNSt23_Rb_tree_const_iteratorISt4pairIKNSt7__cxx1112basic_stringIcSt11char_traitsIcESaIcEEES6_EEppEv' type='func-type' binding='weak-binding' visibility='default-visibility' is-defined='yes'/>
    <elf-symbol name='_ZNSt27__uninitialized_default_n_1ILb0EE18__uninit_default_nIPN10prometheus7CounterEmEET_S5_T0_' type='func-type' binding='weak-binding' visibility='default-visibility' is-defined='yes'/>
    <elf-symbol name='_ZNSt4pairIKPN10prometheus5GaugeEmEC1IS2_RmLb1EEEOT_OT0_' type='func-type' binding='weak-binding' visibility='default-visibility' is-defined='yes'/>
    <elf-symbol name='_ZNSt4pairIKPN10prometheus5GaugeEmEC2IS2_RmLb1EEEOT_OT0_' type='func-type' binding='weak-binding' visibility='default-visibility' alias='_ZNSt4pairIKPN10prometheus5GaugeEmEC1IS2_RmLb1EEEOT_OT0_' is-defined='yes'/>
    <elf-symbol name='_ZNSt4pairIKPN10prometheus7CounterEmEC1IS2_RmLb1EEEOT_OT0_' type='func-type' binding='weak-binding' visibility='default-visibility' alias='_ZNSt4pairIKPN10prometheus7CounterEmEC2IS2_RmLb1EEEOT_OT0_' is-defined='yes'/>
    <elf-symbol name='_ZNSt4pairIKPN10prometheus7CounterEmEC2IS2_RmLb1EEEOT_OT0_' type='func-type' binding='weak-binding' visibility='default-visibility' is-defined='yes'/>
    <elf-symbol name='_ZNSt4pairIKPN10prometheus7SummaryEmEC1IS2_RmLb1EEEOT_OT0_' type='func-type' binding='weak-binding' visibility='default-visibility' is-defined='yes'/>
    <elf-symbol name='_ZNSt4pairIKPN10prometheus7SummaryEmEC2IS2_RmLb1EEEOT_OT0_' type='func-type' binding='weak-binding' visibility='default-visibility' alias='_ZNSt4pairIKPN10prometheus7SummaryEmEC1IS2_RmLb1EEEOT_OT0_' is-defined='yes'/>
    <elf-symbol name='_ZNSt4pairIKPN10prometheus9HistogramEmEC1IS2_RmLb1EEEOT_OT0_' type='func-type' binding='weak-binding' visibility='default-visibility' alias='_ZNSt4pairIKPN10prometheus9HistogramEmEC2IS2_RmLb1EEEOT_OT0_' is-defined='yes'/>
    <elf-symbol name='_ZNSt4pairIKPN10prometheus9HistogramEmEC2IS2_RmLb1EEEOT_OT0_' type='func-type' binding='weak-binding' visibility='default-visibility' is-defined='yes'/>
    <elf-symbol name='_ZNSt4pairIKmSt10unique_ptrIN10prometheus5GaugeESt14default_deleteIS3_EEEC1ImS6_Lb1EEEOS_IT_T0_E' type='func-type' binding='weak-binding' visibility='default-visibility' is-defined='yes'/>
    <elf-symbol name='_ZNSt4pairIKmSt10unique_ptrIN10prometheus5GaugeESt14default_deleteIS3_EEEC2ImS6_Lb1EEEOS_IT_T0_E' type='func-type' binding='weak-binding' visibility='default-visibility' alias='_ZNSt4pairIKmSt10unique_ptrIN10prometheus5GaugeESt14default_deleteIS3_EEEC1ImS6_Lb1EEEOS_IT_T0_E' is-defined='yes'/>
    <elf-symbol name='_ZNSt4pairIKmSt10unique_ptrIN10prometheus7CounterESt14default_deleteIS3_EEEC1ImS6_Lb1EEEOS_IT_T0_E' type='func-type' binding='weak-binding' visibility='default-visibility' is-defined='yes'/>
    <elf-symbol name='_ZNSt4pairIKmSt10unique_ptrIN10prometheus7CounterESt14default_deleteIS3_EEEC2ImS6_Lb1EEEOS_IT_T0_E' type='func-type' binding='weak-binding' visibility='default-visibility' alias='_ZNSt4pairIKmSt10unique_ptrIN10prometheus7CounterESt14default_deleteIS3_EEEC1ImS6_Lb1EEEOS_IT_T0_E' is-defined='yes'/>
    <elf-symbol name='_ZNSt4pairIKmSt10unique_ptrIN10prometheus7SummaryESt14default_deleteIS3_EEEC1ImS6_Lb1EEEOS_IT_T0_E' type='func-type' binding='weak-binding' visibility='default-visibility' is-defined='yes'/>
    <elf-symbol name='_ZNSt4pairIKmSt10unique_ptrIN10prometheus7SummaryESt14default_deleteIS3_EEEC2ImS6_Lb1EEEOS_IT_T0_E' type='func-type' binding='weak-binding' visibility='default-visibility' alias='_ZNSt4pairIKmSt10unique_ptrIN10prometheus7SummaryESt14default_deleteIS3_EEEC1ImS6_Lb1EEEOS_IT_T0_E' is-defined='yes'/>
    <elf-symbol name='_ZNSt4pairIKmSt10unique_ptrIN10prometheus9HistogramESt14default_deleteIS3_EEEC1ImS6_Lb1EEEOS_IT_T0_E' type='func-type' binding='weak-binding' visibility='default-visibility' is-defined='yes'/>
    <elf-symbol name='_ZNSt4pairIKmSt10unique_ptrIN10prometheus9HistogramESt14default_deleteIS3_EEEC2ImS6_Lb1EEEOS_IT_T0_E' type='func-type' binding='weak-binding' visibility='default-visibility' alias='_ZNSt4pairIKmSt10unique_ptrIN10prometheus9HistogramESt14default_deleteIS3_EEEC1ImS6_Lb1EEEOS_IT_T0_E' is-defined='yes'/>
    <elf-symbol name='_ZNSt4pairIKmSt3mapINSt7__cxx1112basic_stringIcSt11char_traitsIcESaIcEEES7_St4lessIS7_ESaIS_IKS7_S7_EEEEC1IRmLb1EEEOT_RKSD_' type='func-type' binding='weak-binding' visibility='default-visibility' is-defined='yes'/>
    <elf-symbol name='_ZNSt4pairIKmSt3mapINSt7__cxx1112basic_stringIcSt11char_traitsIcESaIcEEES7_St4lessIS7_ESaIS_IKS7_S7_EEEEC2IRmLb1EEEOT_RKSD_' type='func-type' binding='weak-binding' visibility='default-visibility' alias='_ZNSt4pairIKmSt3mapINSt7__cxx1112basic_stringIcSt11char_traitsIcESaIcEEES7_St4lessIS7_ESaIS_IKS7_S7_EEEEC1IRmLb1EEEOT_RKSD_' is-defined='yes'/>
    <elf-symbol name='_ZNSt4pairINSt7__cxx1112basic_stringIcSt11char_traitsIcESaIcEEES5_EC1IKS5_S5_Lb1EEERKS_IT_T0_E' type='func-type' binding='weak-binding' visibility='default-visibility' is-defined='yes'/>
    <elf-symbol name='_ZNSt4pairINSt7__cxx1112basic_stringIcSt11char_traitsIcESaIcEEES5_EC2IKS5_S5_Lb1EEERKS_IT_T0_E' type='func-type' binding='weak-binding' visibility='default-visibility' alias='_ZNSt4pairINSt7__cxx1112basic_stringIcSt11char_traitsIcESaIcEEES5_EC1IKS5_S5_Lb1EEERKS_IT_T0_E' is-defined='yes'/>
    <elf-symbol name='_ZNSt4pairINSt8__detail14_Node_iteratorIS_IKPN10prometheus5GaugeEmELb0ELb0EEEbEC1IS7_bLb1EEEOT_OT0_' type='func-type' binding='weak-binding' visibility='default-visibility' is-defined='yes'/>
    <elf-symbol name='_ZNSt4pairINSt8__detail14_Node_iteratorIS_IKPN10prometheus5GaugeEmELb0ELb0EEEbEC2IS7_bLb1EEEOT_OT0_' type='func-type' binding='weak-binding' visibility='default-visibility' alias='_ZNSt4pairINSt8__detail14_Node_iteratorIS_IKPN10prometheus5GaugeEmELb0ELb0EEEbEC1IS7_bLb1EEEOT_OT0_' is-defined='yes'/>
    <elf-symbol name='_ZNSt4pairINSt8__detail14_Node_iteratorIS_IKPN10prometheus7CounterEmELb0ELb0EEEbEC1IS7_bLb1EEEOT_OT0_' type='func-type' binding='weak-binding' visibility='default-visibility' alias='_ZNSt4pairINSt8__detail14_Node_iteratorIS_IKPN10prometheus7CounterEmELb0ELb0EEEbEC2IS7_bLb1EEEOT_OT0_' is-defined='yes'/>
    <elf-symbol name='_ZNSt4pairINSt8__detail14_Node_iteratorIS_IKPN10prometheus7CounterEmELb0ELb0EEEbEC2IS7_bLb1EEEOT_OT0_' type='func-type' binding='weak-binding' visibility='default-visibility' is-defined='yes'/>
    <elf-symbol name='_ZNSt4pairINSt8__detail14_Node_iteratorIS_IKPN10prometheus7SummaryEmELb0ELb0EEEbEC1IS7_bLb1EEEOT_OT0_' type='func-type' binding='weak-binding' visibility='default-visibility' alias='_ZNSt4pairINSt8__detail14_Node_iteratorIS_IKPN10prometheus7SummaryEmELb0ELb0EEEbEC2IS7_bLb1EEEOT_OT0_' is-defined='yes'/>
    <elf-symbol name='_ZNSt4pairINSt8__detail14_Node_iteratorIS_IKPN10prometheus7SummaryEmELb0ELb0EEEbEC2IS7_bLb1EEEOT_OT0_' type='func-type' binding='weak-binding' visibility='default-visibility' is-defined='yes'/>
    <elf-symbol name='_ZNSt4pairINSt8__detail14_Node_iteratorIS_IKPN10prometheus9HistogramEmELb0ELb0EEEbEC1IS7_bLb1EEEOT_OT0_' type='func-type' binding='weak-binding' visibility='default-visibility' is-defined='yes'/>
    <elf-symbol name='_ZNSt4pairINSt8__detail14_Node_iteratorIS_IKPN10prometheus9HistogramEmELb0ELb0EEEbEC2IS7_bLb1EEEOT_OT0_' type='func-type' binding='weak-binding' visibility='default-visibility' alias='_ZNSt4pairINSt8__detail14_Node_iteratorIS_IKPN10prometheus9HistogramEmELb0ELb0EEEbEC1IS7_bLb1EEEOT_OT0_' is-defined='yes'/>
    <elf-symbol name='_ZNSt4pairINSt8__detail14_Node_iteratorIS_IKmSt10unique_ptrIN10prometheus5GaugeESt14default_deleteIS5_EEELb0ELb0EEEbEC1ISA_bLb1EEEOT_OT0_' type='func-type' binding='weak-binding' visibility='default-visibility' is-defined='yes'/>
    <elf-symbol name='_ZNSt4pairINSt8__detail14_Node_iteratorIS_IKmSt10unique_ptrIN10prometheus5GaugeESt14default_deleteIS5_EEELb0ELb0EEEbEC2ISA_bLb1EEEOT_OT0_' type='func-type' binding='weak-binding' visibility='default-visibility' alias='_ZNSt4pairINSt8__detail14_Node_iteratorIS_IKmSt10unique_ptrIN10prometheus5GaugeESt14default_deleteIS5_EEELb0ELb0EEEbEC1ISA_bLb1EEEOT_OT0_' is-defined='yes'/>
    <elf-symbol name='_ZNSt4pairINSt8__detail14_Node_iteratorIS_IKmSt10unique_ptrIN10prometheus7CounterESt14default_deleteIS5_EEELb0ELb0EEEbEC1ISA_bLb1EEEOT_OT0_' type='func-type' binding='weak-binding' visibility='default-visibility' is-defined='yes'/>
    <elf-symbol name='_ZNSt4pairINSt8__detail14_Node_iteratorIS_IKmSt10unique_ptrIN10prometheus7CounterESt14default_deleteIS5_EEELb0ELb0EEEbEC2ISA_bLb1EEEOT_OT0_' type='func-type' binding='weak-binding' visibility='default-visibility' alias='_ZNSt4pairINSt8__detail14_Node_iteratorIS_IKmSt10unique_ptrIN10prometheus7CounterESt14default_deleteIS5_EEELb0ELb0EEEbEC1ISA_bLb1EEEOT_OT0_' is-defined='yes'/>
    <elf-symbol name='_ZNSt4pairINSt8__detail14_Node_iteratorIS_IKmSt10unique_ptrIN10prometheus7SummaryESt14default_deleteIS5_EEELb0ELb0EEEbEC1ISA_bLb1EEEOT_OT0_' type='func-type' binding='weak-binding' visibility='default-visibility' is-defined='yes'/>
    <elf-symbol name='_ZNSt4pairINSt8__detail14_Node_iteratorIS_IKmSt10unique_ptrIN10prometheus7SummaryESt14default_deleteIS5_EEELb0ELb0EEEbEC2ISA_bLb1EEEOT_OT0_' type='func-type' binding='weak-binding' visibility='default-visibility' alias='_ZNSt4pairINSt8__detail14_Node_iteratorIS_IKmSt10unique_ptrIN10prometheus7SummaryESt14default_deleteIS5_EEELb0ELb0EEEbEC1ISA_bLb1EEEOT_OT0_' is-defined='yes'/>
    <elf-symbol name='_ZNSt4pairINSt8__detail14_Node_iteratorIS_IKmSt10unique_ptrIN10prometheus9HistogramESt14default_deleteIS5_EEELb0ELb0EEEbEC1ISA_bLb1EEEOT_OT0_' type='func-type' binding='weak-binding' visibility='default-visibility' is-defined='yes'/>
    <elf-symbol name='_ZNSt4pairINSt8__detail14_Node_iteratorIS_IKmSt10unique_ptrIN10prometheus9HistogramESt14default_deleteIS5_EEELb0ELb0EEEbEC2ISA_bLb1EEEOT_OT0_' type='func-type' binding='weak-binding' visibility='default-visibility' alias='_ZNSt4pairINSt8__detail14_Node_iteratorIS_IKmSt10unique_ptrIN10prometheus9HistogramESt14default_deleteIS5_EEELb0ELb0EEEbEC1ISA_bLb1EEEOT_OT0_' is-defined='yes'/>
    <elf-symbol name='_ZNSt4pairINSt8__detail14_Node_iteratorIS_IKmSt3mapINSt7__cxx1112basic_stringIcSt11char_traitsIcESaIcEEES9_St4lessIS9_ESaIS_IKS9_S9_EEEELb0ELb0EEEbEC1ISH_bLb1EEEOT_OT0_' type='func-type' binding='weak-binding' visibility='default-visibility' is-defined='yes'/>
    <elf-symbol name='_ZNSt4pairINSt8__detail14_Node_iteratorIS_IKmSt3mapINSt7__cxx1112basic_stringIcSt11char_traitsIcESaIcEEES9_St4lessIS9_ESaIS_IKS9_S9_EEEELb0ELb0EEEbEC2ISH_bLb1EEEOT_OT0_' type='func-type' binding='weak-binding' visibility='default-visibility' alias='_ZNSt4pairINSt8__detail14_Node_iteratorIS_IKmSt3mapINSt7__cxx1112basic_stringIcSt11char_traitsIcESaIcEEES9_St4lessIS9_ESaIS_IKS9_S9_EEEELb0ELb0EEEbEC1ISH_bLb1EEEOT_OT0_' is-defined='yes'/>
    <elf-symbol name='_ZNSt4pairImSt10unique_ptrIN10prometheus5GaugeESt14default_deleteIS2_EEEC1IRmS5_Lb1EEEOT_OT0_' type='func-type' binding='weak-binding' visibility='default-visibility' alias='_ZNSt4pairImSt10unique_ptrIN10prometheus5GaugeESt14default_deleteIS2_EEEC2IRmS5_Lb1EEEOT_OT0_' is-defined='yes'/>
    <elf-symbol name='_ZNSt4pairImSt10unique_ptrIN10prometheus5GaugeESt14default_deleteIS2_EEEC2IRmS5_Lb1EEEOT_OT0_' type='func-type' binding='weak-binding' visibility='default-visibility' is-defined='yes'/>
    <elf-symbol name='_ZNSt4pairImSt10unique_ptrIN10prometheus7CounterESt14default_deleteIS2_EEEC1IRmS5_Lb1EEEOT_OT0_' type='func-type' binding='weak-binding' visibility='default-visibility' alias='_ZNSt4pairImSt10unique_ptrIN10prometheus7CounterESt14default_deleteIS2_EEEC2IRmS5_Lb1EEEOT_OT0_' is-defined='yes'/>
    <elf-symbol name='_ZNSt4pairImSt10unique_ptrIN10prometheus7CounterESt14default_deleteIS2_EEEC2IRmS5_Lb1EEEOT_OT0_' type='func-type' binding='weak-binding' visibility='default-visibility' is-defined='yes'/>
    <elf-symbol name='_ZNSt4pairImSt10unique_ptrIN10prometheus7SummaryESt14default_deleteIS2_EEEC1IRmS5_Lb1EEEOT_OT0_' type='func-type' binding='weak-binding' visibility='default-visibility' alias='_ZNSt4pairImSt10unique_ptrIN10prometheus7SummaryESt14default_deleteIS2_EEEC2IRmS5_Lb1EEEOT_OT0_' is-defined='yes'/>
    <elf-symbol name='_ZNSt4pairImSt10unique_ptrIN10prometheus7SummaryESt14default_deleteIS2_EEEC2IRmS5_Lb1EEEOT_OT0_' type='func-type' binding='weak-binding' visibility='default-visibility' is-defined='yes'/>
    <elf-symbol name='_ZNSt4pairImSt10unique_ptrIN10prometheus9HistogramESt14default_deleteIS2_EEEC1IRmS5_Lb1EEEOT_OT0_' type='func-type' binding='weak-binding' visibility='default-visibility' alias='_ZNSt4pairImSt10unique_ptrIN10prometheus9HistogramESt14default_deleteIS2_EEEC2IRmS5_Lb1EEEOT_OT0_' is-defined='yes'/>
    <elf-symbol name='_ZNSt4pairImSt10unique_ptrIN10prometheus9HistogramESt14default_deleteIS2_EEEC2IRmS5_Lb1EEEOT_OT0_' type='func-type' binding='weak-binding' visibility='default-visibility' is-defined='yes'/>
    <elf-symbol name='_ZNSt5arrayIcLm128EE4dataEv' type='func-type' binding='weak-binding' visibility='default-visibility' is-defined='yes'/>
    <elf-symbol name='_ZNSt5arrayIdLm500EE4dataEv' type='func-type' binding='weak-binding' visibility='default-visibility' is-defined='yes'/>
    <elf-symbol name='_ZNSt5arrayIdLm500EE5beginEv' type='func-type' binding='weak-binding' visibility='default-visibility' is-defined='yes'/>
    <elf-symbol name='_ZNSt5arrayIdLm500EEixEm' type='func-type' binding='weak-binding' visibility='default-visibility' is-defined='yes'/>
    <elf-symbol name='_ZNSt5tupleIJPN10prometheus5GaugeESt14default_deleteIS1_EEEC1IRS2_S4_Lb1EEEOT_OT0_' type='func-type' binding='weak-binding' visibility='default-visibility' alias='_ZNSt5tupleIJPN10prometheus5GaugeESt14default_deleteIS1_EEEC2IRS2_S4_Lb1EEEOT_OT0_' is-defined='yes'/>
    <elf-symbol name='_ZNSt5tupleIJPN10prometheus5GaugeESt14default_deleteIS1_EEEC2IRS2_S4_Lb1EEEOT_OT0_' type='func-type' binding='weak-binding' visibility='default-visibility' is-defined='yes'/>
    <elf-symbol name='_ZNSt5tupleIJPN10prometheus7CounterESt14default_deleteIS1_EEEC1IRS2_S4_Lb1EEEOT_OT0_' type='func-type' binding='weak-binding' visibility='default-visibility' is-defined='yes'/>
    <elf-symbol name='_ZNSt5tupleIJPN10prometheus7CounterESt14default_deleteIS1_EEEC2IRS2_S4_Lb1EEEOT_OT0_' type='func-type' binding='weak-binding' visibility='default-visibility' alias='_ZNSt5tupleIJPN10prometheus7CounterESt14default_deleteIS1_EEEC1IRS2_S4_Lb1EEEOT_OT0_' is-defined='yes'/>
    <elf-symbol name='_ZNSt5tupleIJPN10prometheus7SummaryESt14default_deleteIS1_EEEC1IRS2_S4_Lb1EEEOT_OT0_' type='func-type' binding='weak-binding' visibility='default-visibility' is-defined='yes'/>
    <elf-symbol name='_ZNSt5tupleIJPN10prometheus7SummaryESt14default_deleteIS1_EEEC2IRS2_S4_Lb1EEEOT_OT0_' type='func-type' binding='weak-binding' visibility='default-visibility' alias='_ZNSt5tupleIJPN10prometheus7SummaryESt14default_deleteIS1_EEEC1IRS2_S4_Lb1EEEOT_OT0_' is-defined='yes'/>
    <elf-symbol name='_ZNSt5tupleIJPN10prometheus9HistogramESt14default_deleteIS1_EEEC1IRS2_S4_Lb1EEEOT_OT0_' type='func-type' binding='weak-binding' visibility='default-visibility' alias='_ZNSt5tupleIJPN10prometheus9HistogramESt14default_deleteIS1_EEEC2IRS2_S4_Lb1EEEOT_OT0_' is-defined='yes'/>
    <elf-symbol name='_ZNSt5tupleIJPN10prometheus9HistogramESt14default_deleteIS1_EEEC2IRS2_S4_Lb1EEEOT_OT0_' type='func-type' binding='weak-binding' visibility='default-visibility' is-defined='yes'/>
    <elf-symbol name='_ZNSt5tupleIJRKNSt7__cxx1112basic_stringIcSt11char_traitsIcESaIcEEERKSt3mapIS5_S5_St4lessIS5_ESaISt4pairIS6_S5_EEEEEC1IvLb1EEES7_SG_' type='func-type' binding='weak-binding' visibility='default-visibility' alias='_ZNSt5tupleIJRKNSt7__cxx1112basic_stringIcSt11char_traitsIcESaIcEEERKSt3mapIS5_S5_St4lessIS5_ESaISt4pairIS6_S5_EEEEEC2IvLb1EEES7_SG_' is-defined='yes'/>
    <elf-symbol name='_ZNSt5tupleIJRKNSt7__cxx1112basic_stringIcSt11char_traitsIcESaIcEEERKSt3mapIS5_S5_St4lessIS5_ESaISt4pairIS6_S5_EEEEEC2IvLb1EEES7_SG_' type='func-type' binding='weak-binding' visibility='default-visibility' is-defined='yes'/>
    <elf-symbol name='_ZNSt6atomicIdE21compare_exchange_weakERddSt12memory_order' type='func-type' binding='weak-binding' visibility='default-visibility' is-defined='yes'/>
    <elf-symbol name='_ZNSt6atomicIdE21compare_exchange_weakERddSt12memory_orderS2_' type='func-type' binding='weak-binding' visibility='default-visibility' is-defined='yes'/>
    <elf-symbol name='_ZNSt6atomicIdE5storeEdSt12memory_order' type='func-type' binding='weak-binding' visibility='default-visibility' is-defined='yes'/>
    <elf-symbol name='_ZNSt6atomicIdEC1Ed' type='func-type' binding='weak-binding' visibility='default-visibility' is-defined='yes'/>
    <elf-symbol name='_ZNSt6atomicIdEC2Ed' type='func-type' binding='weak-binding' visibility='default-visibility' alias='_ZNSt6atomicIdEC1Ed' is-defined='yes'/>
    <elf-symbol name='_ZNSt6chrono10time_pointINS_3_V212steady_clockENS_8durationIlSt5ratioILl1ELl1000000000EEEEEpLERKS6_' type='func-type' binding='weak-binding' visibility='default-visibility' is-defined='yes'/>
    <elf-symbol name='_ZNSt6chrono13duration_castINS_8durationIlSt5ratioILl1ELl1000000000EEEElS2_ILl1ELl1000EEEENSt9enable_ifIXsrNS_13__is_durationIT_EE5valueES8_E4typeERKNS1_IT0_T1_EE' type='func-type' binding='weak-binding' visibility='default-visibility' is-defined='yes'/>
    <elf-symbol name='_ZNSt6chrono20__duration_cast_implINS_8durationIlSt5ratioILl1ELl1000000000EEEES2_ILl1000000ELl1EElLb0ELb1EE6__castIlS2_ILl1ELl1000EEEES4_RKNS1_IT_T0_EE' type='func-type' binding='weak-binding' visibility='default-visibility' is-defined='yes'/>
    <elf-symbol name='_ZNSt6chrono8durationIlSt5ratioILl1ELl1000000000EEEC1IlS1_ILl1ELl1000EEvEERKNS0_IT_T0_EE' type='func-type' binding='weak-binding' visibility='default-visibility' alias='_ZNSt6chrono8durationIlSt5ratioILl1ELl1000000000EEEC2IlS1_ILl1ELl1000EEvEERKNS0_IT_T0_EE' is-defined='yes'/>
    <elf-symbol name='_ZNSt6chrono8durationIlSt5ratioILl1ELl1000000000EEEC1IlvEERKT_' type='func-type' binding='weak-binding' visibility='default-visibility' is-defined='yes'/>
    <elf-symbol name='_ZNSt6chrono8durationIlSt5ratioILl1ELl1000000000EEEC2IlS1_ILl1ELl1000EEvEERKNS0_IT_T0_EE' type='func-type' binding='weak-binding' visibility='default-visibility' is-defined='yes'/>
    <elf-symbol name='_ZNSt6chrono8durationIlSt5ratioILl1ELl1000000000EEEmIERKS3_' type='func-type' binding='weak-binding' visibility='default-visibility' is-defined='yes'/>
    <elf-symbol name='_ZNSt6chrono8durationIlSt5ratioILl1ELl1000000000EEEpLERKS3_' type='func-type' binding='weak-binding' visibility='default-visibility' is-defined='yes'/>
    <elf-symbol name='_ZNSt6chronodvIlSt5ratioILl1ELl1000000000EEiEENS_8durationINSt9enable_ifIXsrSt14is_convertibleIRKNS4_IXntsrNS_13__is_durationIT1_EE5valueES7_E4typeENSt11common_typeIJT_SA_EE4typeEE5valueESG_E4typeET0_EERKNS3_ISE_SK_EERKS7_' type='func-type' binding='weak-binding' visibility='default-visibility' is-defined='yes'/>
    <elf-symbol name='_ZNSt6chronogtIlSt5ratioILl1ELl1000000000EElS2_EEbRKNS_8durationIT_T0_EERKNS3_IT1_T2_EE' type='func-type' binding='weak-binding' visibility='default-visibility' is-defined='yes'/>
    <elf-symbol name='_ZNSt6chronoltIlSt5ratioILl1ELl1000000000EElS2_EEbRKNS_8durationIT_T0_EERKNS3_IT1_T2_EE' type='func-type' binding='weak-binding' visibility='default-visibility' is-defined='yes'/>
    <elf-symbol name='_ZNSt6chronomiINS_3_V212steady_clockENS_8durationIlSt5ratioILl1ELl1000000000EEEES6_EENSt11common_typeIJT0_T1_EE4typeERKNS_10time_pointIT_S8_EERKNSC_ISD_S9_EE' type='func-type' binding='weak-binding' visibility='default-visibility' is-defined='yes'/>
    <elf-symbol name='_ZNSt6chronomiIlSt5ratioILl1ELl1000000000EElS2_EENSt11common_typeIJNS_8durationIT_T0_EENS4_IT1_T2_EEEE4typeERKS7_RKSA_' type='func-type' binding='weak-binding' visibility='default-visibility' is-defined='yes'/>
    <elf-symbol name='_ZNSt6vectorIN10prometheus12ClientMetric5LabelESaIS2_EE11_S_max_sizeERKS3_' type='func-type' binding='weak-binding' visibility='default-visibility' is-defined='yes'/>
    <elf-symbol name='_ZNSt6vectorIN10prometheus12ClientMetric5LabelESaIS2_EE11_S_relocateEPS2_S5_S5_RS3_' type='func-type' binding='weak-binding' visibility='default-visibility' is-defined='yes'/>
    <elf-symbol name='_ZNSt6vectorIN10prometheus12ClientMetric5LabelESaIS2_EE12emplace_backIJS2_EEEvDpOT_' type='func-type' binding='weak-binding' visibility='default-visibility' is-defined='yes'/>
    <elf-symbol name='_ZNSt6vectorIN10prometheus12ClientMetric5LabelESaIS2_EE14_S_do_relocateEPS2_S5_S5_RS3_St17integral_constantIbLb1EE' type='func-type' binding='weak-binding' visibility='default-visibility' is-defined='yes'/>
    <elf-symbol name='_ZNSt6vectorIN10prometheus12ClientMetric5LabelESaIS2_EE15_S_use_relocateEv' type='func-type' binding='weak-binding' visibility='default-visibility' is-defined='yes'/>
    <elf-symbol name='_ZNSt6vectorIN10prometheus12ClientMetric5LabelESaIS2_EE17_M_realloc_insertIJS2_EEEvN9__gnu_cxx17__normal_iteratorIPS2_S4_EEDpOT_' type='func-type' binding='weak-binding' visibility='default-visibility' is-defined='yes'/>
    <elf-symbol name='_ZNSt6vectorIN10prometheus12ClientMetric5LabelESaIS2_EE19_S_nothrow_relocateESt17integral_constantIbLb1EE' type='func-type' binding='weak-binding' visibility='default-visibility' is-defined='yes'/>
    <elf-symbol name='_ZNSt6vectorIN10prometheus12ClientMetric5LabelESaIS2_EE3endEv' type='func-type' binding='weak-binding' visibility='default-visibility' is-defined='yes'/>
    <elf-symbol name='_ZNSt6vectorIN10prometheus12ClientMetric5LabelESaIS2_EE5beginEv' type='func-type' binding='weak-binding' visibility='default-visibility' is-defined='yes'/>
    <elf-symbol name='_ZNSt6vectorIN10prometheus12ClientMetric5LabelESaIS2_EE9push_backEOS2_' type='func-type' binding='weak-binding' visibility='default-visibility' is-defined='yes'/>
    <elf-symbol name='_ZNSt6vectorIN10prometheus12ClientMetric5LabelESaIS2_EEC1ERKS4_' type='func-type' binding='weak-binding' visibility='default-visibility' alias='_ZNSt6vectorIN10prometheus12ClientMetric5LabelESaIS2_EEC2ERKS4_' is-defined='yes'/>
    <elf-symbol name='_ZNSt6vectorIN10prometheus12ClientMetric5LabelESaIS2_EEC2ERKS4_' type='func-type' binding='weak-binding' visibility='default-visibility' is-defined='yes'/>
    <elf-symbol name='_ZNSt6vectorIN10prometheus12ClientMetric5LabelESaIS2_EED1Ev' type='func-type' binding='weak-binding' visibility='default-visibility' is-defined='yes'/>
    <elf-symbol name='_ZNSt6vectorIN10prometheus12ClientMetric5LabelESaIS2_EED2Ev' type='func-type' binding='weak-binding' visibility='default-visibility' alias='_ZNSt6vectorIN10prometheus12ClientMetric5LabelESaIS2_EED1Ev' is-defined='yes'/>
    <elf-symbol name='_ZNSt6vectorIN10prometheus12ClientMetric6BucketESaIS2_EE11_S_max_sizeERKS3_' type='func-type' binding='weak-binding' visibility='default-visibility' is-defined='yes'/>
    <elf-symbol name='_ZNSt6vectorIN10prometheus12ClientMetric6BucketESaIS2_EE11_S_relocateEPS2_S5_S5_RS3_' type='func-type' binding='weak-binding' visibility='default-visibility' is-defined='yes'/>
    <elf-symbol name='_ZNSt6vectorIN10prometheus12ClientMetric6BucketESaIS2_EE12emplace_backIJS2_EEEvDpOT_' type='func-type' binding='weak-binding' visibility='default-visibility' is-defined='yes'/>
    <elf-symbol name='_ZNSt6vectorIN10prometheus12ClientMetric6BucketESaIS2_EE14_S_do_relocateEPS2_S5_S5_RS3_St17integral_constantIbLb1EE' type='func-type' binding='weak-binding' visibility='default-visibility' is-defined='yes'/>
    <elf-symbol name='_ZNSt6vectorIN10prometheus12ClientMetric6BucketESaIS2_EE15_S_use_relocateEv' type='func-type' binding='weak-binding' visibility='default-visibility' is-defined='yes'/>
    <elf-symbol name='_ZNSt6vectorIN10prometheus12ClientMetric6BucketESaIS2_EE17_M_realloc_insertIJS2_EEEvN9__gnu_cxx17__normal_iteratorIPS2_S4_EEDpOT_' type='func-type' binding='weak-binding' visibility='default-visibility' is-defined='yes'/>
    <elf-symbol name='_ZNSt6vectorIN10prometheus12ClientMetric6BucketESaIS2_EE19_S_nothrow_relocateESt17integral_constantIbLb1EE' type='func-type' binding='weak-binding' visibility='default-visibility' is-defined='yes'/>
    <elf-symbol name='_ZNSt6vectorIN10prometheus12ClientMetric6BucketESaIS2_EE3endEv' type='func-type' binding='weak-binding' visibility='default-visibility' is-defined='yes'/>
    <elf-symbol name='_ZNSt6vectorIN10prometheus12ClientMetric6BucketESaIS2_EE5beginEv' type='func-type' binding='weak-binding' visibility='default-visibility' is-defined='yes'/>
    <elf-symbol name='_ZNSt6vectorIN10prometheus12ClientMetric6BucketESaIS2_EE9push_backEOS2_' type='func-type' binding='weak-binding' visibility='default-visibility' is-defined='yes'/>
    <elf-symbol name='_ZNSt6vectorIN10prometheus12ClientMetric6BucketESaIS2_EEC1ERKS4_' type='func-type' binding='weak-binding' visibility='default-visibility' is-defined='yes'/>
    <elf-symbol name='_ZNSt6vectorIN10prometheus12ClientMetric6BucketESaIS2_EEC2ERKS4_' type='func-type' binding='weak-binding' visibility='default-visibility' alias='_ZNSt6vectorIN10prometheus12ClientMetric6BucketESaIS2_EEC1ERKS4_' is-defined='yes'/>
    <elf-symbol name='_ZNSt6vectorIN10prometheus12ClientMetric6BucketESaIS2_EED1Ev' type='func-type' binding='weak-binding' visibility='default-visibility' is-defined='yes'/>
    <elf-symbol name='_ZNSt6vectorIN10prometheus12ClientMetric6BucketESaIS2_EED2Ev' type='func-type' binding='weak-binding' visibility='default-visibility' alias='_ZNSt6vectorIN10prometheus12ClientMetric6BucketESaIS2_EED1Ev' is-defined='yes'/>
    <elf-symbol name='_ZNSt6vectorIN10prometheus12ClientMetric8QuantileESaIS2_EE11_S_max_sizeERKS3_' type='func-type' binding='weak-binding' visibility='default-visibility' is-defined='yes'/>
    <elf-symbol name='_ZNSt6vectorIN10prometheus12ClientMetric8QuantileESaIS2_EE11_S_relocateEPS2_S5_S5_RS3_' type='func-type' binding='weak-binding' visibility='default-visibility' is-defined='yes'/>
    <elf-symbol name='_ZNSt6vectorIN10prometheus12ClientMetric8QuantileESaIS2_EE12emplace_backIJS2_EEEvDpOT_' type='func-type' binding='weak-binding' visibility='default-visibility' is-defined='yes'/>
    <elf-symbol name='_ZNSt6vectorIN10prometheus12ClientMetric8QuantileESaIS2_EE14_S_do_relocateEPS2_S5_S5_RS3_St17integral_constantIbLb1EE' type='func-type' binding='weak-binding' visibility='default-visibility' is-defined='yes'/>
    <elf-symbol name='_ZNSt6vectorIN10prometheus12ClientMetric8QuantileESaIS2_EE15_S_use_relocateEv' type='func-type' binding='weak-binding' visibility='default-visibility' is-defined='yes'/>
    <elf-symbol name='_ZNSt6vectorIN10prometheus12ClientMetric8QuantileESaIS2_EE17_M_realloc_insertIJS2_EEEvN9__gnu_cxx17__normal_iteratorIPS2_S4_EEDpOT_' type='func-type' binding='weak-binding' visibility='default-visibility' is-defined='yes'/>
    <elf-symbol name='_ZNSt6vectorIN10prometheus12ClientMetric8QuantileESaIS2_EE19_S_nothrow_relocateESt17integral_constantIbLb1EE' type='func-type' binding='weak-binding' visibility='default-visibility' is-defined='yes'/>
    <elf-symbol name='_ZNSt6vectorIN10prometheus12ClientMetric8QuantileESaIS2_EE3endEv' type='func-type' binding='weak-binding' visibility='default-visibility' is-defined='yes'/>
    <elf-symbol name='_ZNSt6vectorIN10prometheus12ClientMetric8QuantileESaIS2_EE5beginEv' type='func-type' binding='weak-binding' visibility='default-visibility' is-defined='yes'/>
    <elf-symbol name='_ZNSt6vectorIN10prometheus12ClientMetric8QuantileESaIS2_EE9push_backEOS2_' type='func-type' binding='weak-binding' visibility='default-visibility' is-defined='yes'/>
    <elf-symbol name='_ZNSt6vectorIN10prometheus12ClientMetric8QuantileESaIS2_EEC1ERKS4_' type='func-type' binding='weak-binding' visibility='default-visibility' is-defined='yes'/>
    <elf-symbol name='_ZNSt6vectorIN10prometheus12ClientMetric8QuantileESaIS2_EEC2ERKS4_' type='func-type' binding='weak-binding' visibility='default-visibility' alias='_ZNSt6vectorIN10prometheus12ClientMetric8QuantileESaIS2_EEC1ERKS4_' is-defined='yes'/>
    <elf-symbol name='_ZNSt6vectorIN10prometheus12ClientMetric8QuantileESaIS2_EED1Ev' type='func-type' binding='weak-binding' visibility='default-visibility' alias='_ZNSt6vectorIN10prometheus12ClientMetric8QuantileESaIS2_EED2Ev' is-defined='yes'/>
    <elf-symbol name='_ZNSt6vectorIN10prometheus12ClientMetric8QuantileESaIS2_EED2Ev' type='func-type' binding='weak-binding' visibility='default-visibility' is-defined='yes'/>
    <elf-symbol name='_ZNSt6vectorIN10prometheus12ClientMetricESaIS1_EE11_S_max_sizeERKS2_' type='func-type' binding='weak-binding' visibility='default-visibility' is-defined='yes'/>
    <elf-symbol name='_ZNSt6vectorIN10prometheus12ClientMetricESaIS1_EE11_S_relocateEPS1_S4_S4_RS2_' type='func-type' binding='weak-binding' visibility='default-visibility' is-defined='yes'/>
    <elf-symbol name='_ZNSt6vectorIN10prometheus12ClientMetricESaIS1_EE12emplace_backIJS1_EEEvDpOT_' type='func-type' binding='weak-binding' visibility='default-visibility' is-defined='yes'/>
    <elf-symbol name='_ZNSt6vectorIN10prometheus12ClientMetricESaIS1_EE14_M_move_assignEOS3_St17integral_constantIbLb1EE' type='func-type' binding='weak-binding' visibility='default-visibility' is-defined='yes'/>
    <elf-symbol name='_ZNSt6vectorIN10prometheus12ClientMetricESaIS1_EE14_S_do_relocateEPS1_S4_S4_RS2_St17integral_constantIbLb1EE' type='func-type' binding='weak-binding' visibility='default-visibility' is-defined='yes'/>
    <elf-symbol name='_ZNSt6vectorIN10prometheus12ClientMetricESaIS1_EE15_S_use_relocateEv' type='func-type' binding='weak-binding' visibility='default-visibility' is-defined='yes'/>
    <elf-symbol name='_ZNSt6vectorIN10prometheus12ClientMetricESaIS1_EE17_M_realloc_insertIJS1_EEEvN9__gnu_cxx17__normal_iteratorIPS1_S3_EEDpOT_' type='func-type' binding='weak-binding' visibility='default-visibility' is-defined='yes'/>
    <elf-symbol name='_ZNSt6vectorIN10prometheus12ClientMetricESaIS1_EE19_S_nothrow_relocateESt17integral_constantIbLb1EE' type='func-type' binding='weak-binding' visibility='default-visibility' is-defined='yes'/>
    <elf-symbol name='_ZNSt6vectorIN10prometheus12ClientMetricESaIS1_EE3endEv' type='func-type' binding='weak-binding' visibility='default-visibility' is-defined='yes'/>
    <elf-symbol name='_ZNSt6vectorIN10prometheus12ClientMetricESaIS1_EE5beginEv' type='func-type' binding='weak-binding' visibility='default-visibility' is-defined='yes'/>
    <elf-symbol name='_ZNSt6vectorIN10prometheus12ClientMetricESaIS1_EE9push_backEOS1_' type='func-type' binding='weak-binding' visibility='default-visibility' is-defined='yes'/>
    <elf-symbol name='_ZNSt6vectorIN10prometheus12ClientMetricESaIS1_EEC1ERKS2_' type='func-type' binding='weak-binding' visibility='default-visibility' is-defined='yes'/>
    <elf-symbol name='_ZNSt6vectorIN10prometheus12ClientMetricESaIS1_EEC1ERKS3_' type='func-type' binding='weak-binding' visibility='default-visibility' is-defined='yes'/>
    <elf-symbol name='_ZNSt6vectorIN10prometheus12ClientMetricESaIS1_EEC2ERKS2_' type='func-type' binding='weak-binding' visibility='default-visibility' alias='_ZNSt6vectorIN10prometheus12ClientMetricESaIS1_EEC1ERKS2_' is-defined='yes'/>
    <elf-symbol name='_ZNSt6vectorIN10prometheus12ClientMetricESaIS1_EEC2ERKS3_' type='func-type' binding='weak-binding' visibility='default-visibility' alias='_ZNSt6vectorIN10prometheus12ClientMetricESaIS1_EEC1ERKS3_' is-defined='yes'/>
    <elf-symbol name='_ZNSt6vectorIN10prometheus12ClientMetricESaIS1_EED1Ev' type='func-type' binding='weak-binding' visibility='default-visibility' alias='_ZNSt6vectorIN10prometheus12ClientMetricESaIS1_EED2Ev' is-defined='yes'/>
    <elf-symbol name='_ZNSt6vectorIN10prometheus12ClientMetricESaIS1_EED2Ev' type='func-type' binding='weak-binding' visibility='default-visibility' is-defined='yes'/>
    <elf-symbol name='_ZNSt6vectorIN10prometheus12ClientMetricESaIS1_EEaSEOS3_' type='func-type' binding='weak-binding' visibility='default-visibility' is-defined='yes'/>
    <elf-symbol name='_ZNSt6vectorIN10prometheus12MetricFamilyESaIS1_EE11_S_max_sizeERKS2_' type='func-type' binding='weak-binding' visibility='default-visibility' is-defined='yes'/>
    <elf-symbol name='_ZNSt6vectorIN10prometheus12MetricFamilyESaIS1_EE17_S_check_init_lenEmRKS2_' type='func-type' binding='weak-binding' visibility='default-visibility' is-defined='yes'/>
    <elf-symbol name='_ZNSt6vectorIN10prometheus12MetricFamilyESaIS1_EE19_M_range_initializeIPKS1_EEvT_S7_St20forward_iterator_tag' type='func-type' binding='weak-binding' visibility='default-visibility' is-defined='yes'/>
    <elf-symbol name='_ZNSt6vectorIN10prometheus12MetricFamilyESaIS1_EE3endEv' type='func-type' binding='weak-binding' visibility='default-visibility' is-defined='yes'/>
    <elf-symbol name='_ZNSt6vectorIN10prometheus12MetricFamilyESaIS1_EE5beginEv' type='func-type' binding='weak-binding' visibility='default-visibility' is-defined='yes'/>
    <elf-symbol name='_ZNSt6vectorIN10prometheus12MetricFamilyESaIS1_EEC1ESt16initializer_listIS1_ERKS2_' type='func-type' binding='weak-binding' visibility='default-visibility' alias='_ZNSt6vectorIN10prometheus12MetricFamilyESaIS1_EEC2ESt16initializer_listIS1_ERKS2_' is-defined='yes'/>
    <elf-symbol name='_ZNSt6vectorIN10prometheus12MetricFamilyESaIS1_EEC2ESt16initializer_listIS1_ERKS2_' type='func-type' binding='weak-binding' visibility='default-visibility' is-defined='yes'/>
    <elf-symbol name='_ZNSt6vectorIN10prometheus12MetricFamilyESaIS1_EED1Ev' type='func-type' binding='weak-binding' visibility='default-visibility' is-defined='yes'/>
    <elf-symbol name='_ZNSt6vectorIN10prometheus12MetricFamilyESaIS1_EED2Ev' type='func-type' binding='weak-binding' visibility='default-visibility' alias='_ZNSt6vectorIN10prometheus12MetricFamilyESaIS1_EED1Ev' is-defined='yes'/>
    <elf-symbol name='_ZNSt6vectorIN10prometheus6detail13CKMSQuantiles4ItemESaIS3_EE11_S_max_sizeERKS4_' type='func-type' binding='weak-binding' visibility='default-visibility' is-defined='yes'/>
    <elf-symbol name='_ZNSt6vectorIN10prometheus6detail13CKMSQuantiles4ItemESaIS3_EE11_S_relocateEPS3_S6_S6_RS4_' type='func-type' binding='weak-binding' visibility='default-visibility' is-defined='yes'/>
    <elf-symbol name='_ZNSt6vectorIN10prometheus6detail13CKMSQuantiles4ItemESaIS3_EE12emplace_backIJRdiiEEEvDpOT_' type='func-type' binding='weak-binding' visibility='default-visibility' is-defined='yes'/>
    <elf-symbol name='_ZNSt6vectorIN10prometheus6detail13CKMSQuantiles4ItemESaIS3_EE13_M_insert_auxIS3_EEvN9__gnu_cxx17__normal_iteratorIPS3_S5_EEOT_' type='func-type' binding='weak-binding' visibility='default-visibility' is-defined='yes'/>
    <elf-symbol name='_ZNSt6vectorIN10prometheus6detail13CKMSQuantiles4ItemESaIS3_EE14_M_emplace_auxIJRdiRiEEEN9__gnu_cxx17__normal_iteratorIPS3_S5_EENSA_IPKS3_S5_EEDpOT_' type='func-type' binding='weak-binding' visibility='default-visibility' is-defined='yes'/>
    <elf-symbol name='_ZNSt6vectorIN10prometheus6detail13CKMSQuantiles4ItemESaIS3_EE14_S_do_relocateEPS3_S6_S6_RS4_St17integral_constantIbLb1EE' type='func-type' binding='weak-binding' visibility='default-visibility' is-defined='yes'/>
    <elf-symbol name='_ZNSt6vectorIN10prometheus6detail13CKMSQuantiles4ItemESaIS3_EE15_M_erase_at_endEPS3_' type='func-type' binding='weak-binding' visibility='default-visibility' is-defined='yes'/>
    <elf-symbol name='_ZNSt6vectorIN10prometheus6detail13CKMSQuantiles4ItemESaIS3_EE15_S_use_relocateEv' type='func-type' binding='weak-binding' visibility='default-visibility' is-defined='yes'/>
    <elf-symbol name='_ZNSt6vectorIN10prometheus6detail13CKMSQuantiles4ItemESaIS3_EE16_Temporary_value6_M_ptrEv' type='func-type' binding='weak-binding' visibility='default-visibility' is-defined='yes'/>
    <elf-symbol name='_ZNSt6vectorIN10prometheus6detail13CKMSQuantiles4ItemESaIS3_EE16_Temporary_value6_M_valEv' type='func-type' binding='weak-binding' visibility='default-visibility' is-defined='yes'/>
    <elf-symbol name='_ZNSt6vectorIN10prometheus6detail13CKMSQuantiles4ItemESaIS3_EE16_Temporary_valueC1IJRdiRiEEEPS5_DpOT_' type='func-type' binding='weak-binding' visibility='default-visibility' is-defined='yes'/>
    <elf-symbol name='_ZNSt6vectorIN10prometheus6detail13CKMSQuantiles4ItemESaIS3_EE16_Temporary_valueC2IJRdiRiEEEPS5_DpOT_' type='func-type' binding='weak-binding' visibility='default-visibility' alias='_ZNSt6vectorIN10prometheus6detail13CKMSQuantiles4ItemESaIS3_EE16_Temporary_valueC1IJRdiRiEEEPS5_DpOT_' is-defined='yes'/>
    <elf-symbol name='_ZNSt6vectorIN10prometheus6detail13CKMSQuantiles4ItemESaIS3_EE16_Temporary_valueD1Ev' type='func-type' binding='weak-binding' visibility='default-visibility' is-defined='yes'/>
    <elf-symbol name='_ZNSt6vectorIN10prometheus6detail13CKMSQuantiles4ItemESaIS3_EE16_Temporary_valueD2Ev' type='func-type' binding='weak-binding' visibility='default-visibility' alias='_ZNSt6vectorIN10prometheus6detail13CKMSQuantiles4ItemESaIS3_EE16_Temporary_valueD1Ev' is-defined='yes'/>
    <elf-symbol name='_ZNSt6vectorIN10prometheus6detail13CKMSQuantiles4ItemESaIS3_EE17_M_realloc_insertIJRdiRiEEEvN9__gnu_cxx17__normal_iteratorIPS3_S5_EEDpOT_' type='func-type' binding='weak-binding' visibility='default-visibility' is-defined='yes'/>
    <elf-symbol name='_ZNSt6vectorIN10prometheus6detail13CKMSQuantiles4ItemESaIS3_EE17_M_realloc_insertIJRdiiEEEvN9__gnu_cxx17__normal_iteratorIPS3_S5_EEDpOT_' type='func-type' binding='weak-binding' visibility='default-visibility' is-defined='yes'/>
    <elf-symbol name='_ZNSt6vectorIN10prometheus6detail13CKMSQuantiles4ItemESaIS3_EE19_S_nothrow_relocateESt17integral_constantIbLb1EE' type='func-type' binding='weak-binding' visibility='default-visibility' is-defined='yes'/>
    <elf-symbol name='_ZNSt6vectorIN10prometheus6detail13CKMSQuantiles4ItemESaIS3_EE3endEv' type='func-type' binding='weak-binding' visibility='default-visibility' is-defined='yes'/>
    <elf-symbol name='_ZNSt6vectorIN10prometheus6detail13CKMSQuantiles4ItemESaIS3_EE4backEv' type='func-type' binding='weak-binding' visibility='default-visibility' is-defined='yes'/>
    <elf-symbol name='_ZNSt6vectorIN10prometheus6detail13CKMSQuantiles4ItemESaIS3_EE5beginEv' type='func-type' binding='weak-binding' visibility='default-visibility' is-defined='yes'/>
    <elf-symbol name='_ZNSt6vectorIN10prometheus6detail13CKMSQuantiles4ItemESaIS3_EE5clearEv' type='func-type' binding='weak-binding' visibility='default-visibility' is-defined='yes'/>
    <elf-symbol name='_ZNSt6vectorIN10prometheus6detail13CKMSQuantiles4ItemESaIS3_EE5eraseEN9__gnu_cxx17__normal_iteratorIPKS3_S5_EE' type='func-type' binding='weak-binding' visibility='default-visibility' is-defined='yes'/>
    <elf-symbol name='_ZNSt6vectorIN10prometheus6detail13CKMSQuantiles4ItemESaIS3_EE7emplaceIJRdiRiEEEN9__gnu_cxx17__normal_iteratorIPS3_S5_EENSA_IPKS3_S5_EEDpOT_' type='func-type' binding='weak-binding' visibility='default-visibility' is-defined='yes'/>
    <elf-symbol name='_ZNSt6vectorIN10prometheus6detail13CKMSQuantiles4ItemESaIS3_EE8_M_eraseEN9__gnu_cxx17__normal_iteratorIPS3_S5_EE' type='func-type' binding='weak-binding' visibility='default-visibility' is-defined='yes'/>
    <elf-symbol name='_ZNSt6vectorIN10prometheus6detail13CKMSQuantiles4ItemESaIS3_EEC1ERKS5_' type='func-type' binding='weak-binding' visibility='default-visibility' alias='_ZNSt6vectorIN10prometheus6detail13CKMSQuantiles4ItemESaIS3_EEC2ERKS5_' is-defined='yes'/>
    <elf-symbol name='_ZNSt6vectorIN10prometheus6detail13CKMSQuantiles4ItemESaIS3_EEC2ERKS5_' type='func-type' binding='weak-binding' visibility='default-visibility' is-defined='yes'/>
    <elf-symbol name='_ZNSt6vectorIN10prometheus6detail13CKMSQuantiles4ItemESaIS3_EED1Ev' type='func-type' binding='weak-binding' visibility='default-visibility' alias='_ZNSt6vectorIN10prometheus6detail13CKMSQuantiles4ItemESaIS3_EED2Ev' is-defined='yes'/>
    <elf-symbol name='_ZNSt6vectorIN10prometheus6detail13CKMSQuantiles4ItemESaIS3_EED2Ev' type='func-type' binding='weak-binding' visibility='default-visibility' is-defined='yes'/>
    <elf-symbol name='_ZNSt6vectorIN10prometheus6detail13CKMSQuantiles4ItemESaIS3_EEixEm' type='func-type' binding='weak-binding' visibility='default-visibility' is-defined='yes'/>
    <elf-symbol name='_ZNSt6vectorIN10prometheus6detail13CKMSQuantiles8QuantileESaIS3_EEC1ERKS5_' type='func-type' binding='weak-binding' visibility='default-visibility' is-defined='yes'/>
    <elf-symbol name='_ZNSt6vectorIN10prometheus6detail13CKMSQuantiles8QuantileESaIS3_EEC2ERKS5_' type='func-type' binding='weak-binding' visibility='default-visibility' alias='_ZNSt6vectorIN10prometheus6detail13CKMSQuantiles8QuantileESaIS3_EEC1ERKS5_' is-defined='yes'/>
    <elf-symbol name='_ZNSt6vectorIN10prometheus6detail13CKMSQuantiles8QuantileESaIS3_EED1Ev' type='func-type' binding='weak-binding' visibility='default-visibility' alias='_ZNSt6vectorIN10prometheus6detail13CKMSQuantiles8QuantileESaIS3_EED2Ev' is-defined='yes'/>
    <elf-symbol name='_ZNSt6vectorIN10prometheus6detail13CKMSQuantiles8QuantileESaIS3_EED2Ev' type='func-type' binding='weak-binding' visibility='default-visibility' is-defined='yes'/>
    <elf-symbol name='_ZNSt6vectorIN10prometheus6detail13CKMSQuantilesESaIS2_EE11_S_max_sizeERKS3_' type='func-type' binding='weak-binding' visibility='default-visibility' is-defined='yes'/>
    <elf-symbol name='_ZNSt6vectorIN10prometheus6detail13CKMSQuantilesESaIS2_EE17_S_check_init_lenEmRKS3_' type='func-type' binding='weak-binding' visibility='default-visibility' is-defined='yes'/>
    <elf-symbol name='_ZNSt6vectorIN10prometheus6detail13CKMSQuantilesESaIS2_EE18_M_fill_initializeEmRKS2_' type='func-type' binding='weak-binding' visibility='default-visibility' is-defined='yes'/>
    <elf-symbol name='_ZNSt6vectorIN10prometheus6detail13CKMSQuantilesESaIS2_EE3endEv' type='func-type' binding='weak-binding' visibility='default-visibility' is-defined='yes'/>
    <elf-symbol name='_ZNSt6vectorIN10prometheus6detail13CKMSQuantilesESaIS2_EE5beginEv' type='func-type' binding='weak-binding' visibility='default-visibility' is-defined='yes'/>
    <elf-symbol name='_ZNSt6vectorIN10prometheus6detail13CKMSQuantilesESaIS2_EEC1EmRKS2_RKS3_' type='func-type' binding='weak-binding' visibility='default-visibility' alias='_ZNSt6vectorIN10prometheus6detail13CKMSQuantilesESaIS2_EEC2EmRKS2_RKS3_' is-defined='yes'/>
    <elf-symbol name='_ZNSt6vectorIN10prometheus6detail13CKMSQuantilesESaIS2_EEC2EmRKS2_RKS3_' type='func-type' binding='weak-binding' visibility='default-visibility' is-defined='yes'/>
    <elf-symbol name='_ZNSt6vectorIN10prometheus6detail13CKMSQuantilesESaIS2_EED1Ev' type='func-type' binding='weak-binding' visibility='default-visibility' alias='_ZNSt6vectorIN10prometheus6detail13CKMSQuantilesESaIS2_EED2Ev' is-defined='yes'/>
    <elf-symbol name='_ZNSt6vectorIN10prometheus6detail13CKMSQuantilesESaIS2_EED2Ev' type='func-type' binding='weak-binding' visibility='default-visibility' is-defined='yes'/>
    <elf-symbol name='_ZNSt6vectorIN10prometheus6detail13CKMSQuantilesESaIS2_EEixEm' type='func-type' binding='weak-binding' visibility='default-visibility' is-defined='yes'/>
    <elf-symbol name='_ZNSt6vectorIN10prometheus7CounterESaIS1_EE11_S_max_sizeERKS2_' type='func-type' binding='weak-binding' visibility='default-visibility' is-defined='yes'/>
    <elf-symbol name='_ZNSt6vectorIN10prometheus7CounterESaIS1_EE17_S_check_init_lenEmRKS2_' type='func-type' binding='weak-binding' visibility='default-visibility' is-defined='yes'/>
    <elf-symbol name='_ZNSt6vectorIN10prometheus7CounterESaIS1_EE21_M_default_initializeEm' type='func-type' binding='weak-binding' visibility='default-visibility' is-defined='yes'/>
    <elf-symbol name='_ZNSt6vectorIN10prometheus7CounterESaIS1_EEC1EmRKS2_' type='func-type' binding='weak-binding' visibility='default-visibility' is-defined='yes'/>
    <elf-symbol name='_ZNSt6vectorIN10prometheus7CounterESaIS1_EEC2EmRKS2_' type='func-type' binding='weak-binding' visibility='default-visibility' alias='_ZNSt6vectorIN10prometheus7CounterESaIS1_EEC1EmRKS2_' is-defined='yes'/>
    <elf-symbol name='_ZNSt6vectorIN10prometheus7CounterESaIS1_EED1Ev' type='func-type' binding='weak-binding' visibility='default-visibility' is-defined='yes'/>
    <elf-symbol name='_ZNSt6vectorIN10prometheus7CounterESaIS1_EED2Ev' type='func-type' binding='weak-binding' visibility='default-visibility' alias='_ZNSt6vectorIN10prometheus7CounterESaIS1_EED1Ev' is-defined='yes'/>
    <elf-symbol name='_ZNSt6vectorIN10prometheus7CounterESaIS1_EEixEm' type='func-type' binding='weak-binding' visibility='default-visibility' is-defined='yes'/>
    <elf-symbol name='_ZNSt6vectorIdSaIdEEC1ERKS1_' type='func-type' binding='weak-binding' visibility='default-visibility' alias='_ZNSt6vectorIdSaIdEEC2ERKS1_' is-defined='yes'/>
    <elf-symbol name='_ZNSt6vectorIdSaIdEEC2ERKS1_' type='func-type' binding='weak-binding' visibility='default-visibility' is-defined='yes'/>
    <elf-symbol name='_ZNSt6vectorIdSaIdEED1Ev' type='func-type' binding='weak-binding' visibility='default-visibility' is-defined='yes'/>
    <elf-symbol name='_ZNSt6vectorIdSaIdEED2Ev' type='func-type' binding='weak-binding' visibility='default-visibility' alias='_ZNSt6vectorIdSaIdEED1Ev' is-defined='yes'/>
    <elf-symbol name='_ZNSt7__equalILb0EE5equalISt23_Rb_tree_const_iteratorISt4pairIKNSt7__cxx1112basic_stringIcSt11char_traitsIcESaIcEEES9_EESC_EEbT_SD_T0_' type='func-type' binding='weak-binding' visibility='default-visibility' is-defined='yes'/>
    <elf-symbol name='_ZNSt8_Rb_treeINSt7__cxx1112basic_stringIcSt11char_traitsIcESaIcEEESt4pairIKS5_S5_ESt10_Select1stIS8_ESt4lessIS5_ESaIS8_EE10_S_maximumEPSt18_Rb_tree_node_base' type='func-type' binding='weak-binding' visibility='default-visibility' is-defined='yes'/>
    <elf-symbol name='_ZNSt8_Rb_treeINSt7__cxx1112basic_stringIcSt11char_traitsIcESaIcEEESt4pairIKS5_S5_ESt10_Select1stIS8_ESt4lessIS5_ESaIS8_EE10_S_minimumEPSt18_Rb_tree_node_base' type='func-type' binding='weak-binding' visibility='default-visibility' is-defined='yes'/>
    <elf-symbol name='_ZNSt8_Rb_treeINSt7__cxx1112basic_stringIcSt11char_traitsIcESaIcEEESt4pairIKS5_S5_ESt10_Select1stIS8_ESt4lessIS5_ESaIS8_EE11_Alloc_nodeC1ERSE_' type='func-type' binding='weak-binding' visibility='default-visibility' is-defined='yes'/>
    <elf-symbol name='_ZNSt8_Rb_treeINSt7__cxx1112basic_stringIcSt11char_traitsIcESaIcEEESt4pairIKS5_S5_ESt10_Select1stIS8_ESt4lessIS5_ESaIS8_EE11_Alloc_nodeC2ERSE_' type='func-type' binding='weak-binding' visibility='default-visibility' alias='_ZNSt8_Rb_treeINSt7__cxx1112basic_stringIcSt11char_traitsIcESaIcEEESt4pairIKS5_S5_ESt10_Select1stIS8_ESt4lessIS5_ESaIS8_EE11_Alloc_nodeC1ERSE_' is-defined='yes'/>
    <elf-symbol name='_ZNSt8_Rb_treeINSt7__cxx1112basic_stringIcSt11char_traitsIcESaIcEEESt4pairIKS5_S5_ESt10_Select1stIS8_ESt4lessIS5_ESaIS8_EE11_M_get_nodeEv' type='func-type' binding='weak-binding' visibility='default-visibility' is-defined='yes'/>
    <elf-symbol name='_ZNSt8_Rb_treeINSt7__cxx1112basic_stringIcSt11char_traitsIcESaIcEEESt4pairIKS5_S5_ESt10_Select1stIS8_ESt4lessIS5_ESaIS8_EE11_M_leftmostEv' type='func-type' binding='weak-binding' visibility='default-visibility' is-defined='yes'/>
    <elf-symbol name='_ZNSt8_Rb_treeINSt7__cxx1112basic_stringIcSt11char_traitsIcESaIcEEESt4pairIKS5_S5_ESt10_Select1stIS8_ESt4lessIS5_ESaIS8_EE11_M_put_nodeEPSt13_Rb_tree_nodeIS8_E' type='func-type' binding='weak-binding' visibility='default-visibility' is-defined='yes'/>
    <elf-symbol name='_ZNSt8_Rb_treeINSt7__cxx1112basic_stringIcSt11char_traitsIcESaIcEEESt4pairIKS5_S5_ESt10_Select1stIS8_ESt4lessIS5_ESaIS8_EE12_M_drop_nodeEPSt13_Rb_tree_nodeIS8_E' type='func-type' binding='weak-binding' visibility='default-visibility' is-defined='yes'/>
    <elf-symbol name='_ZNSt8_Rb_treeINSt7__cxx1112basic_stringIcSt11char_traitsIcESaIcEEESt4pairIKS5_S5_ESt10_Select1stIS8_ESt4lessIS5_ESaIS8_EE12_M_rightmostEv' type='func-type' binding='weak-binding' visibility='default-visibility' is-defined='yes'/>
    <elf-symbol name='_ZNSt8_Rb_treeINSt7__cxx1112basic_stringIcSt11char_traitsIcESaIcEEESt4pairIKS5_S5_ESt10_Select1stIS8_ESt4lessIS5_ESaIS8_EE13_M_clone_nodeINSE_11_Alloc_nodeEEEPSt13_Rb_tree_nodeIS8_EPKSI_RT_' type='func-type' binding='weak-binding' visibility='default-visibility' is-defined='yes'/>
    <elf-symbol name='_ZNSt8_Rb_treeINSt7__cxx1112basic_stringIcSt11char_traitsIcESaIcEEESt4pairIKS5_S5_ESt10_Select1stIS8_ESt4lessIS5_ESaIS8_EE13_M_clone_nodeINSE_20_Reuse_or_alloc_nodeEEEPSt13_Rb_tree_nodeIS8_EPKSI_RT_' type='func-type' binding='weak-binding' visibility='default-visibility' is-defined='yes'/>
    <elf-symbol name='_ZNSt8_Rb_treeINSt7__cxx1112basic_stringIcSt11char_traitsIcESaIcEEESt4pairIKS5_S5_ESt10_Select1stIS8_ESt4lessIS5_ESaIS8_EE13_Rb_tree_implISC_Lb1EEC1ERKSG_' type='func-type' binding='weak-binding' visibility='default-visibility' alias='_ZNSt8_Rb_treeINSt7__cxx1112basic_stringIcSt11char_traitsIcESaIcEEESt4pairIKS5_S5_ESt10_Select1stIS8_ESt4lessIS5_ESaIS8_EE13_Rb_tree_implISC_Lb1EEC2ERKSG_' is-defined='yes'/>
    <elf-symbol name='_ZNSt8_Rb_treeINSt7__cxx1112basic_stringIcSt11char_traitsIcESaIcEEESt4pairIKS5_S5_ESt10_Select1stIS8_ESt4lessIS5_ESaIS8_EE13_Rb_tree_implISC_Lb1EEC1Ev' type='func-type' binding='weak-binding' visibility='default-visibility' is-defined='yes'/>
    <elf-symbol name='_ZNSt8_Rb_treeINSt7__cxx1112basic_stringIcSt11char_traitsIcESaIcEEESt4pairIKS5_S5_ESt10_Select1stIS8_ESt4lessIS5_ESaIS8_EE13_Rb_tree_implISC_Lb1EEC2ERKSG_' type='func-type' binding='weak-binding' visibility='default-visibility' is-defined='yes'/>
    <elf-symbol name='_ZNSt8_Rb_treeINSt7__cxx1112basic_stringIcSt11char_traitsIcESaIcEEESt4pairIKS5_S5_ESt10_Select1stIS8_ESt4lessIS5_ESaIS8_EE13_Rb_tree_implISC_Lb1EEC2Ev' type='func-type' binding='weak-binding' visibility='default-visibility' alias='_ZNSt8_Rb_treeINSt7__cxx1112basic_stringIcSt11char_traitsIcESaIcEEESt4pairIKS5_S5_ESt10_Select1stIS8_ESt4lessIS5_ESaIS8_EE13_Rb_tree_implISC_Lb1EEC1Ev' is-defined='yes'/>
    <elf-symbol name='_ZNSt8_Rb_treeINSt7__cxx1112basic_stringIcSt11char_traitsIcESaIcEEESt4pairIKS5_S5_ESt10_Select1stIS8_ESt4lessIS5_ESaIS8_EE14_M_create_nodeIJRKS8_EEEPSt13_Rb_tree_nodeIS8_EDpOT_' type='func-type' binding='weak-binding' visibility='default-visibility' is-defined='yes'/>
    <elf-symbol name='_ZNSt8_Rb_treeINSt7__cxx1112basic_stringIcSt11char_traitsIcESaIcEEESt4pairIKS5_S5_ESt10_Select1stIS8_ESt4lessIS5_ESaIS8_EE15_M_destroy_nodeEPSt13_Rb_tree_nodeIS8_E' type='func-type' binding='weak-binding' visibility='default-visibility' is-defined='yes'/>
    <elf-symbol name='_ZNSt8_Rb_treeINSt7__cxx1112basic_stringIcSt11char_traitsIcESaIcEEESt4pairIKS5_S5_ESt10_Select1stIS8_ESt4lessIS5_ESaIS8_EE17_M_construct_nodeIJRKS8_EEEvPSt13_Rb_tree_nodeIS8_EDpOT_' type='func-type' binding='weak-binding' visibility='default-visibility' is-defined='yes'/>
    <elf-symbol name='_ZNSt8_Rb_treeINSt7__cxx1112basic_stringIcSt11char_traitsIcESaIcEEESt4pairIKS5_S5_ESt10_Select1stIS8_ESt4lessIS5_ESaIS8_EE20_Reuse_or_alloc_node10_M_extractEv' type='func-type' binding='weak-binding' visibility='default-visibility' is-defined='yes'/>
    <elf-symbol name='_ZNSt8_Rb_treeINSt7__cxx1112basic_stringIcSt11char_traitsIcESaIcEEESt4pairIKS5_S5_ESt10_Select1stIS8_ESt4lessIS5_ESaIS8_EE20_Reuse_or_alloc_nodeC1ERSE_' type='func-type' binding='weak-binding' visibility='default-visibility' alias='_ZNSt8_Rb_treeINSt7__cxx1112basic_stringIcSt11char_traitsIcESaIcEEESt4pairIKS5_S5_ESt10_Select1stIS8_ESt4lessIS5_ESaIS8_EE20_Reuse_or_alloc_nodeC2ERSE_' is-defined='yes'/>
    <elf-symbol name='_ZNSt8_Rb_treeINSt7__cxx1112basic_stringIcSt11char_traitsIcESaIcEEESt4pairIKS5_S5_ESt10_Select1stIS8_ESt4lessIS5_ESaIS8_EE20_Reuse_or_alloc_nodeC2ERSE_' type='func-type' binding='weak-binding' visibility='default-visibility' is-defined='yes'/>
    <elf-symbol name='_ZNSt8_Rb_treeINSt7__cxx1112basic_stringIcSt11char_traitsIcESaIcEEESt4pairIKS5_S5_ESt10_Select1stIS8_ESt4lessIS5_ESaIS8_EE20_Reuse_or_alloc_nodeD1Ev' type='func-type' binding='weak-binding' visibility='default-visibility' is-defined='yes'/>
    <elf-symbol name='_ZNSt8_Rb_treeINSt7__cxx1112basic_stringIcSt11char_traitsIcESaIcEEESt4pairIKS5_S5_ESt10_Select1stIS8_ESt4lessIS5_ESaIS8_EE20_Reuse_or_alloc_nodeD2Ev' type='func-type' binding='weak-binding' visibility='default-visibility' alias='_ZNSt8_Rb_treeINSt7__cxx1112basic_stringIcSt11char_traitsIcESaIcEEESt4pairIKS5_S5_ESt10_Select1stIS8_ESt4lessIS5_ESaIS8_EE20_Reuse_or_alloc_nodeD1Ev' is-defined='yes'/>
    <elf-symbol name='_ZNSt8_Rb_treeINSt7__cxx1112basic_stringIcSt11char_traitsIcESaIcEEESt4pairIKS5_S5_ESt10_Select1stIS8_ESt4lessIS5_ESaIS8_EE20_Reuse_or_alloc_nodeclIRKS8_EEPSt13_Rb_tree_nodeIS8_EOT_' type='func-type' binding='weak-binding' visibility='default-visibility' is-defined='yes'/>
    <elf-symbol name='_ZNSt8_Rb_treeINSt7__cxx1112basic_stringIcSt11char_traitsIcESaIcEEESt4pairIKS5_S5_ESt10_Select1stIS8_ESt4lessIS5_ESaIS8_EE21_M_get_Node_allocatorEv' type='func-type' binding='weak-binding' visibility='default-visibility' is-defined='yes'/>
    <elf-symbol name='_ZNSt8_Rb_treeINSt7__cxx1112basic_stringIcSt11char_traitsIcESaIcEEESt4pairIKS5_S5_ESt10_Select1stIS8_ESt4lessIS5_ESaIS8_EE5clearEv' type='func-type' binding='weak-binding' visibility='default-visibility' is-defined='yes'/>
    <elf-symbol name='_ZNSt8_Rb_treeINSt7__cxx1112basic_stringIcSt11char_traitsIcESaIcEEESt4pairIKS5_S5_ESt10_Select1stIS8_ESt4lessIS5_ESaIS8_EE6_M_endEv' type='func-type' binding='weak-binding' visibility='default-visibility' is-defined='yes'/>
    <elf-symbol name='_ZNSt8_Rb_treeINSt7__cxx1112basic_stringIcSt11char_traitsIcESaIcEEESt4pairIKS5_S5_ESt10_Select1stIS8_ESt4lessIS5_ESaIS8_EE6_S_keyEPKSt13_Rb_tree_nodeIS8_E' type='func-type' binding='weak-binding' visibility='default-visibility' is-defined='yes'/>
    <elf-symbol name='_ZNSt8_Rb_treeINSt7__cxx1112basic_stringIcSt11char_traitsIcESaIcEEESt4pairIKS5_S5_ESt10_Select1stIS8_ESt4lessIS5_ESaIS8_EE6_S_keyEPKSt18_Rb_tree_node_base' type='func-type' binding='weak-binding' visibility='default-visibility' is-defined='yes'/>
    <elf-symbol name='_ZNSt8_Rb_treeINSt7__cxx1112basic_stringIcSt11char_traitsIcESaIcEEESt4pairIKS5_S5_ESt10_Select1stIS8_ESt4lessIS5_ESaIS8_EE7_M_copyERKSE_' type='func-type' binding='weak-binding' visibility='default-visibility' is-defined='yes'/>
    <elf-symbol name='_ZNSt8_Rb_treeINSt7__cxx1112basic_stringIcSt11char_traitsIcESaIcEEESt4pairIKS5_S5_ESt10_Select1stIS8_ESt4lessIS5_ESaIS8_EE7_M_copyINSE_11_Alloc_nodeEEEPSt13_Rb_tree_nodeIS8_EPKSI_PSt18_Rb_tree_node_baseRT_' type='func-type' binding='weak-binding' visibility='default-visibility' is-defined='yes'/>
    <elf-symbol name='_ZNSt8_Rb_treeINSt7__cxx1112basic_stringIcSt11char_traitsIcESaIcEEESt4pairIKS5_S5_ESt10_Select1stIS8_ESt4lessIS5_ESaIS8_EE7_M_copyINSE_11_Alloc_nodeEEEPSt13_Rb_tree_nodeIS8_ERKSE_RT_' type='func-type' binding='weak-binding' visibility='default-visibility' is-defined='yes'/>
    <elf-symbol name='_ZNSt8_Rb_treeINSt7__cxx1112basic_stringIcSt11char_traitsIcESaIcEEESt4pairIKS5_S5_ESt10_Select1stIS8_ESt4lessIS5_ESaIS8_EE7_M_copyINSE_20_Reuse_or_alloc_nodeEEEPSt13_Rb_tree_nodeIS8_EPKSI_PSt18_Rb_tree_node_baseRT_' type='func-type' binding='weak-binding' visibility='default-visibility' is-defined='yes'/>
    <elf-symbol name='_ZNSt8_Rb_treeINSt7__cxx1112basic_stringIcSt11char_traitsIcESaIcEEESt4pairIKS5_S5_ESt10_Select1stIS8_ESt4lessIS5_ESaIS8_EE7_M_copyINSE_20_Reuse_or_alloc_nodeEEEPSt13_Rb_tree_nodeIS8_ERKSE_RT_' type='func-type' binding='weak-binding' visibility='default-visibility' is-defined='yes'/>
    <elf-symbol name='_ZNSt8_Rb_treeINSt7__cxx1112basic_stringIcSt11char_traitsIcESaIcEEESt4pairIKS5_S5_ESt10_Select1stIS8_ESt4lessIS5_ESaIS8_EE7_M_rootEv' type='func-type' binding='weak-binding' visibility='default-visibility' is-defined='yes'/>
    <elf-symbol name='_ZNSt8_Rb_treeINSt7__cxx1112basic_stringIcSt11char_traitsIcESaIcEEESt4pairIKS5_S5_ESt10_Select1stIS8_ESt4lessIS5_ESaIS8_EE7_S_leftEPKSt18_Rb_tree_node_base' type='func-type' binding='weak-binding' visibility='default-visibility' is-defined='yes'/>
    <elf-symbol name='_ZNSt8_Rb_treeINSt7__cxx1112basic_stringIcSt11char_traitsIcESaIcEEESt4pairIKS5_S5_ESt10_Select1stIS8_ESt4lessIS5_ESaIS8_EE7_S_leftEPSt18_Rb_tree_node_base' type='func-type' binding='weak-binding' visibility='default-visibility' is-defined='yes'/>
    <elf-symbol name='_ZNSt8_Rb_treeINSt7__cxx1112basic_stringIcSt11char_traitsIcESaIcEEESt4pairIKS5_S5_ESt10_Select1stIS8_ESt4lessIS5_ESaIS8_EE8_M_beginEv' type='func-type' binding='weak-binding' visibility='default-visibility' is-defined='yes'/>
    <elf-symbol name='_ZNSt8_Rb_treeINSt7__cxx1112basic_stringIcSt11char_traitsIcESaIcEEESt4pairIKS5_S5_ESt10_Select1stIS8_ESt4lessIS5_ESaIS8_EE8_M_eraseEPSt13_Rb_tree_nodeIS8_E' type='func-type' binding='weak-binding' visibility='default-visibility' is-defined='yes'/>
    <elf-symbol name='_ZNSt8_Rb_treeINSt7__cxx1112basic_stringIcSt11char_traitsIcESaIcEEESt4pairIKS5_S5_ESt10_Select1stIS8_ESt4lessIS5_ESaIS8_EE8_S_rightEPKSt18_Rb_tree_node_base' type='func-type' binding='weak-binding' visibility='default-visibility' is-defined='yes'/>
    <elf-symbol name='_ZNSt8_Rb_treeINSt7__cxx1112basic_stringIcSt11char_traitsIcESaIcEEESt4pairIKS5_S5_ESt10_Select1stIS8_ESt4lessIS5_ESaIS8_EE8_S_rightEPSt18_Rb_tree_node_base' type='func-type' binding='weak-binding' visibility='default-visibility' is-defined='yes'/>
    <elf-symbol name='_ZNSt8_Rb_treeINSt7__cxx1112basic_stringIcSt11char_traitsIcESaIcEEESt4pairIKS5_S5_ESt10_Select1stIS8_ESt4lessIS5_ESaIS8_EEC1ERKSE_' type='func-type' binding='weak-binding' visibility='default-visibility' is-defined='yes'/>
    <elf-symbol name='_ZNSt8_Rb_treeINSt7__cxx1112basic_stringIcSt11char_traitsIcESaIcEEESt4pairIKS5_S5_ESt10_Select1stIS8_ESt4lessIS5_ESaIS8_EEC2ERKSE_' type='func-type' binding='weak-binding' visibility='default-visibility' alias='_ZNSt8_Rb_treeINSt7__cxx1112basic_stringIcSt11char_traitsIcESaIcEEESt4pairIKS5_S5_ESt10_Select1stIS8_ESt4lessIS5_ESaIS8_EEC1ERKSE_' is-defined='yes'/>
    <elf-symbol name='_ZNSt8_Rb_treeINSt7__cxx1112basic_stringIcSt11char_traitsIcESaIcEEESt4pairIKS5_S5_ESt10_Select1stIS8_ESt4lessIS5_ESaIS8_EED1Ev' type='func-type' binding='weak-binding' visibility='default-visibility' alias='_ZNSt8_Rb_treeINSt7__cxx1112basic_stringIcSt11char_traitsIcESaIcEEESt4pairIKS5_S5_ESt10_Select1stIS8_ESt4lessIS5_ESaIS8_EED2Ev' is-defined='yes'/>
    <elf-symbol name='_ZNSt8_Rb_treeINSt7__cxx1112basic_stringIcSt11char_traitsIcESaIcEEESt4pairIKS5_S5_ESt10_Select1stIS8_ESt4lessIS5_ESaIS8_EED2Ev' type='func-type' binding='weak-binding' visibility='default-visibility' is-defined='yes'/>
    <elf-symbol name='_ZNSt8_Rb_treeINSt7__cxx1112basic_stringIcSt11char_traitsIcESaIcEEESt4pairIKS5_S5_ESt10_Select1stIS8_ESt4lessIS5_ESaIS8_EEaSERKSE_' type='func-type' binding='weak-binding' visibility='default-visibility' is-defined='yes'/>
    <elf-symbol name='_ZNSt8__detail12_Insert_baseIPN10prometheus5GaugeESt4pairIKS3_mESaIS6_ENS_10_Select1stESt8equal_toIS3_ESt4hashIS3_ENS_18_Mod_range_hashingENS_20_Default_ranged_hashENS_20_Prime_rehash_policyENS_17_Hashtable_traitsILb0ELb0ELb1EEEE20_M_conjure_hashtableEv' type='func-type' binding='weak-binding' visibility='default-visibility' is-defined='yes'/>
    <elf-symbol name='_ZNSt8__detail12_Insert_baseIPN10prometheus7CounterESt4pairIKS3_mESaIS6_ENS_10_Select1stESt8equal_toIS3_ESt4hashIS3_ENS_18_Mod_range_hashingENS_20_Default_ranged_hashENS_20_Prime_rehash_policyENS_17_Hashtable_traitsILb0ELb0ELb1EEEE20_M_conjure_hashtableEv' type='func-type' binding='weak-binding' visibility='default-visibility' is-defined='yes'/>
    <elf-symbol name='_ZNSt8__detail12_Insert_baseIPN10prometheus7SummaryESt4pairIKS3_mESaIS6_ENS_10_Select1stESt8equal_toIS3_ESt4hashIS3_ENS_18_Mod_range_hashingENS_20_Default_ranged_hashENS_20_Prime_rehash_policyENS_17_Hashtable_traitsILb0ELb0ELb1EEEE20_M_conjure_hashtableEv' type='func-type' binding='weak-binding' visibility='default-visibility' is-defined='yes'/>
    <elf-symbol name='_ZNSt8__detail12_Insert_baseIPN10prometheus9HistogramESt4pairIKS3_mESaIS6_ENS_10_Select1stESt8equal_toIS3_ESt4hashIS3_ENS_18_Mod_range_hashingENS_20_Default_ranged_hashENS_20_Prime_rehash_policyENS_17_Hashtable_traitsILb0ELb0ELb1EEEE20_M_conjure_hashtableEv' type='func-type' binding='weak-binding' visibility='default-visibility' is-defined='yes'/>
    <elf-symbol name='_ZNSt8__detail12_Insert_baseImSt4pairIKmSt3mapINSt7__cxx1112basic_stringIcSt11char_traitsIcESaIcEEES9_St4lessIS9_ESaIS1_IKS9_S9_EEEESaISG_ENS_10_Select1stESt8equal_toImESt4hashImENS_18_Mod_range_hashingENS_20_Default_ranged_hashENS_20_Prime_rehash_policyENS_17_Hashtable_traitsILb0ELb0ELb1EEEE20_M_conjure_hashtableEv' type='func-type' binding='weak-binding' visibility='default-visibility' is-defined='yes'/>
    <elf-symbol name='_ZNSt8__detail13_Equal_helperIPN10prometheus5GaugeESt4pairIKS3_mENS_10_Select1stESt8equal_toIS3_EmLb0EE9_S_equalsERKS9_RKS7_RS5_mPNS_10_Hash_nodeIS6_Lb0EEE' type='func-type' binding='weak-binding' visibility='default-visibility' is-defined='yes'/>
    <elf-symbol name='_ZNSt8__detail13_Equal_helperIPN10prometheus7CounterESt4pairIKS3_mENS_10_Select1stESt8equal_toIS3_EmLb0EE9_S_equalsERKS9_RKS7_RS5_mPNS_10_Hash_nodeIS6_Lb0EEE' type='func-type' binding='weak-binding' visibility='default-visibility' is-defined='yes'/>
    <elf-symbol name='_ZNSt8__detail13_Equal_helperIPN10prometheus7SummaryESt4pairIKS3_mENS_10_Select1stESt8equal_toIS3_EmLb0EE9_S_equalsERKS9_RKS7_RS5_mPNS_10_Hash_nodeIS6_Lb0EEE' type='func-type' binding='weak-binding' visibility='default-visibility' is-defined='yes'/>
    <elf-symbol name='_ZNSt8__detail13_Equal_helperIPN10prometheus9HistogramESt4pairIKS3_mENS_10_Select1stESt8equal_toIS3_EmLb0EE9_S_equalsERKS9_RKS7_RS5_mPNS_10_Hash_nodeIS6_Lb0EEE' type='func-type' binding='weak-binding' visibility='default-visibility' is-defined='yes'/>
    <elf-symbol name='_ZNSt8__detail13_Equal_helperImSt4pairIKmSt10unique_ptrIN10prometheus5GaugeESt14default_deleteIS5_EEENS_10_Select1stESt8equal_toImEmLb0EE9_S_equalsERKSC_RKSA_RS2_mPNS_10_Hash_nodeIS9_Lb0EEE' type='func-type' binding='weak-binding' visibility='default-visibility' is-defined='yes'/>
    <elf-symbol name='_ZNSt8__detail13_Equal_helperImSt4pairIKmSt10unique_ptrIN10prometheus7CounterESt14default_deleteIS5_EEENS_10_Select1stESt8equal_toImEmLb0EE9_S_equalsERKSC_RKSA_RS2_mPNS_10_Hash_nodeIS9_Lb0EEE' type='func-type' binding='weak-binding' visibility='default-visibility' is-defined='yes'/>
    <elf-symbol name='_ZNSt8__detail13_Equal_helperImSt4pairIKmSt10unique_ptrIN10prometheus7SummaryESt14default_deleteIS5_EEENS_10_Select1stESt8equal_toImEmLb0EE9_S_equalsERKSC_RKSA_RS2_mPNS_10_Hash_nodeIS9_Lb0EEE' type='func-type' binding='weak-binding' visibility='default-visibility' is-defined='yes'/>
    <elf-symbol name='_ZNSt8__detail13_Equal_helperImSt4pairIKmSt10unique_ptrIN10prometheus9HistogramESt14default_deleteIS5_EEENS_10_Select1stESt8equal_toImEmLb0EE9_S_equalsERKSC_RKSA_RS2_mPNS_10_Hash_nodeIS9_Lb0EEE' type='func-type' binding='weak-binding' visibility='default-visibility' is-defined='yes'/>
    <elf-symbol name='_ZNSt8__detail13_Equal_helperImSt4pairIKmSt3mapINSt7__cxx1112basic_stringIcSt11char_traitsIcESaIcEEES9_St4lessIS9_ESaIS1_IKS9_S9_EEEENS_10_Select1stESt8equal_toImEmLb0EE9_S_equalsERKSJ_RKSH_RS2_mPNS_10_Hash_nodeISG_Lb0EEE' type='func-type' binding='weak-binding' visibility='default-visibility' is-defined='yes'/>
    <elf-symbol name='_ZNSt8__detail14_Node_iteratorISt4pairIKPN10prometheus5GaugeEmELb0ELb0EEC1EPNS_10_Hash_nodeIS6_Lb0EEE' type='func-type' binding='weak-binding' visibility='default-visibility' alias='_ZNSt8__detail14_Node_iteratorISt4pairIKPN10prometheus5GaugeEmELb0ELb0EEC2EPNS_10_Hash_nodeIS6_Lb0EEE' is-defined='yes'/>
    <elf-symbol name='_ZNSt8__detail14_Node_iteratorISt4pairIKPN10prometheus5GaugeEmELb0ELb0EEC2EPNS_10_Hash_nodeIS6_Lb0EEE' type='func-type' binding='weak-binding' visibility='default-visibility' is-defined='yes'/>
    <elf-symbol name='_ZNSt8__detail14_Node_iteratorISt4pairIKPN10prometheus7CounterEmELb0ELb0EEC1EPNS_10_Hash_nodeIS6_Lb0EEE' type='func-type' binding='weak-binding' visibility='default-visibility' alias='_ZNSt8__detail14_Node_iteratorISt4pairIKPN10prometheus7CounterEmELb0ELb0EEC2EPNS_10_Hash_nodeIS6_Lb0EEE' is-defined='yes'/>
    <elf-symbol name='_ZNSt8__detail14_Node_iteratorISt4pairIKPN10prometheus7CounterEmELb0ELb0EEC2EPNS_10_Hash_nodeIS6_Lb0EEE' type='func-type' binding='weak-binding' visibility='default-visibility' is-defined='yes'/>
    <elf-symbol name='_ZNSt8__detail14_Node_iteratorISt4pairIKPN10prometheus7SummaryEmELb0ELb0EEC1EPNS_10_Hash_nodeIS6_Lb0EEE' type='func-type' binding='weak-binding' visibility='default-visibility' alias='_ZNSt8__detail14_Node_iteratorISt4pairIKPN10prometheus7SummaryEmELb0ELb0EEC2EPNS_10_Hash_nodeIS6_Lb0EEE' is-defined='yes'/>
    <elf-symbol name='_ZNSt8__detail14_Node_iteratorISt4pairIKPN10prometheus7SummaryEmELb0ELb0EEC2EPNS_10_Hash_nodeIS6_Lb0EEE' type='func-type' binding='weak-binding' visibility='default-visibility' is-defined='yes'/>
    <elf-symbol name='_ZNSt8__detail14_Node_iteratorISt4pairIKPN10prometheus9HistogramEmELb0ELb0EEC1EPNS_10_Hash_nodeIS6_Lb0EEE' type='func-type' binding='weak-binding' visibility='default-visibility' alias='_ZNSt8__detail14_Node_iteratorISt4pairIKPN10prometheus9HistogramEmELb0ELb0EEC2EPNS_10_Hash_nodeIS6_Lb0EEE' is-defined='yes'/>
    <elf-symbol name='_ZNSt8__detail14_Node_iteratorISt4pairIKPN10prometheus9HistogramEmELb0ELb0EEC2EPNS_10_Hash_nodeIS6_Lb0EEE' type='func-type' binding='weak-binding' visibility='default-visibility' is-defined='yes'/>
    <elf-symbol name='_ZNSt8__detail14_Node_iteratorISt4pairIKmSt10unique_ptrIN10prometheus5GaugeESt14default_deleteIS5_EEELb0ELb0EEC1EPNS_10_Hash_nodeIS9_Lb0EEE' type='func-type' binding='weak-binding' visibility='default-visibility' alias='_ZNSt8__detail14_Node_iteratorISt4pairIKmSt10unique_ptrIN10prometheus5GaugeESt14default_deleteIS5_EEELb0ELb0EEC2EPNS_10_Hash_nodeIS9_Lb0EEE' is-defined='yes'/>
    <elf-symbol name='_ZNSt8__detail14_Node_iteratorISt4pairIKmSt10unique_ptrIN10prometheus5GaugeESt14default_deleteIS5_EEELb0ELb0EEC2EPNS_10_Hash_nodeIS9_Lb0EEE' type='func-type' binding='weak-binding' visibility='default-visibility' is-defined='yes'/>
    <elf-symbol name='_ZNSt8__detail14_Node_iteratorISt4pairIKmSt10unique_ptrIN10prometheus7CounterESt14default_deleteIS5_EEELb0ELb0EEC1EPNS_10_Hash_nodeIS9_Lb0EEE' type='func-type' binding='weak-binding' visibility='default-visibility' alias='_ZNSt8__detail14_Node_iteratorISt4pairIKmSt10unique_ptrIN10prometheus7CounterESt14default_deleteIS5_EEELb0ELb0EEC2EPNS_10_Hash_nodeIS9_Lb0EEE' is-defined='yes'/>
    <elf-symbol name='_ZNSt8__detail14_Node_iteratorISt4pairIKmSt10unique_ptrIN10prometheus7CounterESt14default_deleteIS5_EEELb0ELb0EEC2EPNS_10_Hash_nodeIS9_Lb0EEE' type='func-type' binding='weak-binding' visibility='default-visibility' is-defined='yes'/>
    <elf-symbol name='_ZNSt8__detail14_Node_iteratorISt4pairIKmSt10unique_ptrIN10prometheus7SummaryESt14default_deleteIS5_EEELb0ELb0EEC1EPNS_10_Hash_nodeIS9_Lb0EEE' type='func-type' binding='weak-binding' visibility='default-visibility' alias='_ZNSt8__detail14_Node_iteratorISt4pairIKmSt10unique_ptrIN10prometheus7SummaryESt14default_deleteIS5_EEELb0ELb0EEC2EPNS_10_Hash_nodeIS9_Lb0EEE' is-defined='yes'/>
    <elf-symbol name='_ZNSt8__detail14_Node_iteratorISt4pairIKmSt10unique_ptrIN10prometheus7SummaryESt14default_deleteIS5_EEELb0ELb0EEC2EPNS_10_Hash_nodeIS9_Lb0EEE' type='func-type' binding='weak-binding' visibility='default-visibility' is-defined='yes'/>
    <elf-symbol name='_ZNSt8__detail14_Node_iteratorISt4pairIKmSt10unique_ptrIN10prometheus9HistogramESt14default_deleteIS5_EEELb0ELb0EEC1EPNS_10_Hash_nodeIS9_Lb0EEE' type='func-type' binding='weak-binding' visibility='default-visibility' is-defined='yes'/>
    <elf-symbol name='_ZNSt8__detail14_Node_iteratorISt4pairIKmSt10unique_ptrIN10prometheus9HistogramESt14default_deleteIS5_EEELb0ELb0EEC2EPNS_10_Hash_nodeIS9_Lb0EEE' type='func-type' binding='weak-binding' visibility='default-visibility' alias='_ZNSt8__detail14_Node_iteratorISt4pairIKmSt10unique_ptrIN10prometheus9HistogramESt14default_deleteIS5_EEELb0ELb0EEC1EPNS_10_Hash_nodeIS9_Lb0EEE' is-defined='yes'/>
    <elf-symbol name='_ZNSt8__detail14_Node_iteratorISt4pairIKmSt3mapINSt7__cxx1112basic_stringIcSt11char_traitsIcESaIcEEES9_St4lessIS9_ESaIS1_IKS9_S9_EEEELb0ELb0EEC1EPNS_10_Hash_nodeISG_Lb0EEE' type='func-type' binding='weak-binding' visibility='default-visibility' alias='_ZNSt8__detail14_Node_iteratorISt4pairIKmSt3mapINSt7__cxx1112basic_stringIcSt11char_traitsIcESaIcEEES9_St4lessIS9_ESaIS1_IKS9_S9_EEEELb0ELb0EEC2EPNS_10_Hash_nodeISG_Lb0EEE' is-defined='yes'/>
    <elf-symbol name='_ZNSt8__detail14_Node_iteratorISt4pairIKmSt3mapINSt7__cxx1112basic_stringIcSt11char_traitsIcESaIcEEES9_St4lessIS9_ESaIS1_IKS9_S9_EEEELb0ELb0EEC2EPNS_10_Hash_nodeISG_Lb0EEE' type='func-type' binding='weak-binding' visibility='default-visibility' is-defined='yes'/>
    <elf-symbol name='_ZNSt8__detail15_Hash_code_baseIPN10prometheus5GaugeESt4pairIKS3_mENS_10_Select1stESt4hashIS3_ENS_18_Mod_range_hashingENS_20_Default_ranged_hashELb0EE10_M_extractEv' type='func-type' binding='weak-binding' visibility='default-visibility' is-defined='yes'/>
    <elf-symbol name='_ZNSt8__detail15_Hash_code_baseIPN10prometheus7CounterESt4pairIKS3_mENS_10_Select1stESt4hashIS3_ENS_18_Mod_range_hashingENS_20_Default_ranged_hashELb0EE10_M_extractEv' type='func-type' binding='weak-binding' visibility='default-visibility' is-defined='yes'/>
    <elf-symbol name='_ZNSt8__detail15_Hash_code_baseIPN10prometheus7SummaryESt4pairIKS3_mENS_10_Select1stESt4hashIS3_ENS_18_Mod_range_hashingENS_20_Default_ranged_hashELb0EE10_M_extractEv' type='func-type' binding='weak-binding' visibility='default-visibility' is-defined='yes'/>
    <elf-symbol name='_ZNSt8__detail15_Hash_code_baseIPN10prometheus9HistogramESt4pairIKS3_mENS_10_Select1stESt4hashIS3_ENS_18_Mod_range_hashingENS_20_Default_ranged_hashELb0EE10_M_extractEv' type='func-type' binding='weak-binding' visibility='default-visibility' is-defined='yes'/>
    <elf-symbol name='_ZNSt8__detail15_Hash_code_baseImSt4pairIKmSt10unique_ptrIN10prometheus5GaugeESt14default_deleteIS5_EEENS_10_Select1stESt4hashImENS_18_Mod_range_hashingENS_20_Default_ranged_hashELb0EE10_M_extractEv' type='func-type' binding='weak-binding' visibility='default-visibility' is-defined='yes'/>
    <elf-symbol name='_ZNSt8__detail15_Hash_code_baseImSt4pairIKmSt10unique_ptrIN10prometheus7CounterESt14default_deleteIS5_EEENS_10_Select1stESt4hashImENS_18_Mod_range_hashingENS_20_Default_ranged_hashELb0EE10_M_extractEv' type='func-type' binding='weak-binding' visibility='default-visibility' is-defined='yes'/>
    <elf-symbol name='_ZNSt8__detail15_Hash_code_baseImSt4pairIKmSt10unique_ptrIN10prometheus7SummaryESt14default_deleteIS5_EEENS_10_Select1stESt4hashImENS_18_Mod_range_hashingENS_20_Default_ranged_hashELb0EE10_M_extractEv' type='func-type' binding='weak-binding' visibility='default-visibility' is-defined='yes'/>
    <elf-symbol name='_ZNSt8__detail15_Hash_code_baseImSt4pairIKmSt10unique_ptrIN10prometheus9HistogramESt14default_deleteIS5_EEENS_10_Select1stESt4hashImENS_18_Mod_range_hashingENS_20_Default_ranged_hashELb0EE10_M_extractEv' type='func-type' binding='weak-binding' visibility='default-visibility' is-defined='yes'/>
    <elf-symbol name='_ZNSt8__detail15_Hash_code_baseImSt4pairIKmSt3mapINSt7__cxx1112basic_stringIcSt11char_traitsIcESaIcEEES9_St4lessIS9_ESaIS1_IKS9_S9_EEEENS_10_Select1stESt4hashImENS_18_Mod_range_hashingENS_20_Default_ranged_hashELb0EE10_M_extractEv' type='func-type' binding='weak-binding' visibility='default-visibility' is-defined='yes'/>
    <elf-symbol name='_ZNSt8__detail16_Hashtable_allocISaINS_10_Hash_nodeISt4pairIKPN10prometheus5GaugeEmELb0EEEEE16_M_allocate_nodeIJS7_EEEPS8_DpOT_' type='func-type' binding='weak-binding' visibility='default-visibility' is-defined='yes'/>
    <elf-symbol name='_ZNSt8__detail16_Hashtable_allocISaINS_10_Hash_nodeISt4pairIKPN10prometheus5GaugeEmELb0EEEEE17_M_node_allocatorEv' type='func-type' binding='weak-binding' visibility='default-visibility' is-defined='yes'/>
    <elf-symbol name='_ZNSt8__detail16_Hashtable_allocISaINS_10_Hash_nodeISt4pairIKPN10prometheus5GaugeEmELb0EEEEE18_M_deallocate_nodeEPS8_' type='func-type' binding='weak-binding' visibility='default-visibility' is-defined='yes'/>
    <elf-symbol name='_ZNSt8__detail16_Hashtable_allocISaINS_10_Hash_nodeISt4pairIKPN10prometheus5GaugeEmELb0EEEEE19_M_allocate_bucketsEm' type='func-type' binding='weak-binding' visibility='default-visibility' is-defined='yes'/>
    <elf-symbol name='_ZNSt8__detail16_Hashtable_allocISaINS_10_Hash_nodeISt4pairIKPN10prometheus5GaugeEmELb0EEEEE19_M_deallocate_nodesEPS8_' type='func-type' binding='weak-binding' visibility='default-visibility' is-defined='yes'/>
    <elf-symbol name='_ZNSt8__detail16_Hashtable_allocISaINS_10_Hash_nodeISt4pairIKPN10prometheus5GaugeEmELb0EEEEE21_M_deallocate_bucketsEPPNS_15_Hash_node_baseEm' type='func-type' binding='weak-binding' visibility='default-visibility' is-defined='yes'/>
    <elf-symbol name='_ZNSt8__detail16_Hashtable_allocISaINS_10_Hash_nodeISt4pairIKPN10prometheus5GaugeEmELb0EEEEE22_M_deallocate_node_ptrEPS8_' type='func-type' binding='weak-binding' visibility='default-visibility' is-defined='yes'/>
    <elf-symbol name='_ZNSt8__detail16_Hashtable_allocISaINS_10_Hash_nodeISt4pairIKPN10prometheus7CounterEmELb0EEEEE16_M_allocate_nodeIJS7_EEEPS8_DpOT_' type='func-type' binding='weak-binding' visibility='default-visibility' is-defined='yes'/>
    <elf-symbol name='_ZNSt8__detail16_Hashtable_allocISaINS_10_Hash_nodeISt4pairIKPN10prometheus7CounterEmELb0EEEEE17_M_node_allocatorEv' type='func-type' binding='weak-binding' visibility='default-visibility' is-defined='yes'/>
    <elf-symbol name='_ZNSt8__detail16_Hashtable_allocISaINS_10_Hash_nodeISt4pairIKPN10prometheus7CounterEmELb0EEEEE18_M_deallocate_nodeEPS8_' type='func-type' binding='weak-binding' visibility='default-visibility' is-defined='yes'/>
    <elf-symbol name='_ZNSt8__detail16_Hashtable_allocISaINS_10_Hash_nodeISt4pairIKPN10prometheus7CounterEmELb0EEEEE19_M_allocate_bucketsEm' type='func-type' binding='weak-binding' visibility='default-visibility' is-defined='yes'/>
    <elf-symbol name='_ZNSt8__detail16_Hashtable_allocISaINS_10_Hash_nodeISt4pairIKPN10prometheus7CounterEmELb0EEEEE19_M_deallocate_nodesEPS8_' type='func-type' binding='weak-binding' visibility='default-visibility' is-defined='yes'/>
    <elf-symbol name='_ZNSt8__detail16_Hashtable_allocISaINS_10_Hash_nodeISt4pairIKPN10prometheus7CounterEmELb0EEEEE21_M_deallocate_bucketsEPPNS_15_Hash_node_baseEm' type='func-type' binding='weak-binding' visibility='default-visibility' is-defined='yes'/>
    <elf-symbol name='_ZNSt8__detail16_Hashtable_allocISaINS_10_Hash_nodeISt4pairIKPN10prometheus7CounterEmELb0EEEEE22_M_deallocate_node_ptrEPS8_' type='func-type' binding='weak-binding' visibility='default-visibility' is-defined='yes'/>
    <elf-symbol name='_ZNSt8__detail16_Hashtable_allocISaINS_10_Hash_nodeISt4pairIKPN10prometheus7SummaryEmELb0EEEEE16_M_allocate_nodeIJS7_EEEPS8_DpOT_' type='func-type' binding='weak-binding' visibility='default-visibility' is-defined='yes'/>
    <elf-symbol name='_ZNSt8__detail16_Hashtable_allocISaINS_10_Hash_nodeISt4pairIKPN10prometheus7SummaryEmELb0EEEEE17_M_node_allocatorEv' type='func-type' binding='weak-binding' visibility='default-visibility' is-defined='yes'/>
    <elf-symbol name='_ZNSt8__detail16_Hashtable_allocISaINS_10_Hash_nodeISt4pairIKPN10prometheus7SummaryEmELb0EEEEE18_M_deallocate_nodeEPS8_' type='func-type' binding='weak-binding' visibility='default-visibility' is-defined='yes'/>
    <elf-symbol name='_ZNSt8__detail16_Hashtable_allocISaINS_10_Hash_nodeISt4pairIKPN10prometheus7SummaryEmELb0EEEEE19_M_allocate_bucketsEm' type='func-type' binding='weak-binding' visibility='default-visibility' is-defined='yes'/>
    <elf-symbol name='_ZNSt8__detail16_Hashtable_allocISaINS_10_Hash_nodeISt4pairIKPN10prometheus7SummaryEmELb0EEEEE19_M_deallocate_nodesEPS8_' type='func-type' binding='weak-binding' visibility='default-visibility' is-defined='yes'/>
    <elf-symbol name='_ZNSt8__detail16_Hashtable_allocISaINS_10_Hash_nodeISt4pairIKPN10prometheus7SummaryEmELb0EEEEE21_M_deallocate_bucketsEPPNS_15_Hash_node_baseEm' type='func-type' binding='weak-binding' visibility='default-visibility' is-defined='yes'/>
    <elf-symbol name='_ZNSt8__detail16_Hashtable_allocISaINS_10_Hash_nodeISt4pairIKPN10prometheus7SummaryEmELb0EEEEE22_M_deallocate_node_ptrEPS8_' type='func-type' binding='weak-binding' visibility='default-visibility' is-defined='yes'/>
    <elf-symbol name='_ZNSt8__detail16_Hashtable_allocISaINS_10_Hash_nodeISt4pairIKPN10prometheus9HistogramEmELb0EEEEE16_M_allocate_nodeIJS7_EEEPS8_DpOT_' type='func-type' binding='weak-binding' visibility='default-visibility' is-defined='yes'/>
    <elf-symbol name='_ZNSt8__detail16_Hashtable_allocISaINS_10_Hash_nodeISt4pairIKPN10prometheus9HistogramEmELb0EEEEE17_M_node_allocatorEv' type='func-type' binding='weak-binding' visibility='default-visibility' is-defined='yes'/>
    <elf-symbol name='_ZNSt8__detail16_Hashtable_allocISaINS_10_Hash_nodeISt4pairIKPN10prometheus9HistogramEmELb0EEEEE18_M_deallocate_nodeEPS8_' type='func-type' binding='weak-binding' visibility='default-visibility' is-defined='yes'/>
    <elf-symbol name='_ZNSt8__detail16_Hashtable_allocISaINS_10_Hash_nodeISt4pairIKPN10prometheus9HistogramEmELb0EEEEE19_M_allocate_bucketsEm' type='func-type' binding='weak-binding' visibility='default-visibility' is-defined='yes'/>
    <elf-symbol name='_ZNSt8__detail16_Hashtable_allocISaINS_10_Hash_nodeISt4pairIKPN10prometheus9HistogramEmELb0EEEEE19_M_deallocate_nodesEPS8_' type='func-type' binding='weak-binding' visibility='default-visibility' is-defined='yes'/>
    <elf-symbol name='_ZNSt8__detail16_Hashtable_allocISaINS_10_Hash_nodeISt4pairIKPN10prometheus9HistogramEmELb0EEEEE21_M_deallocate_bucketsEPPNS_15_Hash_node_baseEm' type='func-type' binding='weak-binding' visibility='default-visibility' is-defined='yes'/>
    <elf-symbol name='_ZNSt8__detail16_Hashtable_allocISaINS_10_Hash_nodeISt4pairIKPN10prometheus9HistogramEmELb0EEEEE22_M_deallocate_node_ptrEPS8_' type='func-type' binding='weak-binding' visibility='default-visibility' is-defined='yes'/>
    <elf-symbol name='_ZNSt8__detail16_Hashtable_allocISaINS_10_Hash_nodeISt4pairIKmSt10unique_ptrIN10prometheus5GaugeESt14default_deleteIS6_EEELb0EEEEE16_M_allocate_nodeIJS2_ImS9_EEEEPSB_DpOT_' type='func-type' binding='weak-binding' visibility='default-visibility' is-defined='yes'/>
    <elf-symbol name='_ZNSt8__detail16_Hashtable_allocISaINS_10_Hash_nodeISt4pairIKmSt10unique_ptrIN10prometheus5GaugeESt14default_deleteIS6_EEELb0EEEEE17_M_node_allocatorEv' type='func-type' binding='weak-binding' visibility='default-visibility' is-defined='yes'/>
    <elf-symbol name='_ZNSt8__detail16_Hashtable_allocISaINS_10_Hash_nodeISt4pairIKmSt10unique_ptrIN10prometheus5GaugeESt14default_deleteIS6_EEELb0EEEEE18_M_deallocate_nodeEPSB_' type='func-type' binding='weak-binding' visibility='default-visibility' is-defined='yes'/>
    <elf-symbol name='_ZNSt8__detail16_Hashtable_allocISaINS_10_Hash_nodeISt4pairIKmSt10unique_ptrIN10prometheus5GaugeESt14default_deleteIS6_EEELb0EEEEE19_M_allocate_bucketsEm' type='func-type' binding='weak-binding' visibility='default-visibility' is-defined='yes'/>
    <elf-symbol name='_ZNSt8__detail16_Hashtable_allocISaINS_10_Hash_nodeISt4pairIKmSt10unique_ptrIN10prometheus5GaugeESt14default_deleteIS6_EEELb0EEEEE19_M_deallocate_nodesEPSB_' type='func-type' binding='weak-binding' visibility='default-visibility' is-defined='yes'/>
    <elf-symbol name='_ZNSt8__detail16_Hashtable_allocISaINS_10_Hash_nodeISt4pairIKmSt10unique_ptrIN10prometheus5GaugeESt14default_deleteIS6_EEELb0EEEEE21_M_deallocate_bucketsEPPNS_15_Hash_node_baseEm' type='func-type' binding='weak-binding' visibility='default-visibility' is-defined='yes'/>
    <elf-symbol name='_ZNSt8__detail16_Hashtable_allocISaINS_10_Hash_nodeISt4pairIKmSt10unique_ptrIN10prometheus5GaugeESt14default_deleteIS6_EEELb0EEEEE22_M_deallocate_node_ptrEPSB_' type='func-type' binding='weak-binding' visibility='default-visibility' is-defined='yes'/>
    <elf-symbol name='_ZNSt8__detail16_Hashtable_allocISaINS_10_Hash_nodeISt4pairIKmSt10unique_ptrIN10prometheus7CounterESt14default_deleteIS6_EEELb0EEEEE16_M_allocate_nodeIJS2_ImS9_EEEEPSB_DpOT_' type='func-type' binding='weak-binding' visibility='default-visibility' is-defined='yes'/>
    <elf-symbol name='_ZNSt8__detail16_Hashtable_allocISaINS_10_Hash_nodeISt4pairIKmSt10unique_ptrIN10prometheus7CounterESt14default_deleteIS6_EEELb0EEEEE17_M_node_allocatorEv' type='func-type' binding='weak-binding' visibility='default-visibility' is-defined='yes'/>
    <elf-symbol name='_ZNSt8__detail16_Hashtable_allocISaINS_10_Hash_nodeISt4pairIKmSt10unique_ptrIN10prometheus7CounterESt14default_deleteIS6_EEELb0EEEEE18_M_deallocate_nodeEPSB_' type='func-type' binding='weak-binding' visibility='default-visibility' is-defined='yes'/>
    <elf-symbol name='_ZNSt8__detail16_Hashtable_allocISaINS_10_Hash_nodeISt4pairIKmSt10unique_ptrIN10prometheus7CounterESt14default_deleteIS6_EEELb0EEEEE19_M_allocate_bucketsEm' type='func-type' binding='weak-binding' visibility='default-visibility' is-defined='yes'/>
    <elf-symbol name='_ZNSt8__detail16_Hashtable_allocISaINS_10_Hash_nodeISt4pairIKmSt10unique_ptrIN10prometheus7CounterESt14default_deleteIS6_EEELb0EEEEE19_M_deallocate_nodesEPSB_' type='func-type' binding='weak-binding' visibility='default-visibility' is-defined='yes'/>
    <elf-symbol name='_ZNSt8__detail16_Hashtable_allocISaINS_10_Hash_nodeISt4pairIKmSt10unique_ptrIN10prometheus7CounterESt14default_deleteIS6_EEELb0EEEEE21_M_deallocate_bucketsEPPNS_15_Hash_node_baseEm' type='func-type' binding='weak-binding' visibility='default-visibility' is-defined='yes'/>
    <elf-symbol name='_ZNSt8__detail16_Hashtable_allocISaINS_10_Hash_nodeISt4pairIKmSt10unique_ptrIN10prometheus7CounterESt14default_deleteIS6_EEELb0EEEEE22_M_deallocate_node_ptrEPSB_' type='func-type' binding='weak-binding' visibility='default-visibility' is-defined='yes'/>
    <elf-symbol name='_ZNSt8__detail16_Hashtable_allocISaINS_10_Hash_nodeISt4pairIKmSt10unique_ptrIN10prometheus7SummaryESt14default_deleteIS6_EEELb0EEEEE16_M_allocate_nodeIJS2_ImS9_EEEEPSB_DpOT_' type='func-type' binding='weak-binding' visibility='default-visibility' is-defined='yes'/>
    <elf-symbol name='_ZNSt8__detail16_Hashtable_allocISaINS_10_Hash_nodeISt4pairIKmSt10unique_ptrIN10prometheus7SummaryESt14default_deleteIS6_EEELb0EEEEE17_M_node_allocatorEv' type='func-type' binding='weak-binding' visibility='default-visibility' is-defined='yes'/>
    <elf-symbol name='_ZNSt8__detail16_Hashtable_allocISaINS_10_Hash_nodeISt4pairIKmSt10unique_ptrIN10prometheus7SummaryESt14default_deleteIS6_EEELb0EEEEE18_M_deallocate_nodeEPSB_' type='func-type' binding='weak-binding' visibility='default-visibility' is-defined='yes'/>
    <elf-symbol name='_ZNSt8__detail16_Hashtable_allocISaINS_10_Hash_nodeISt4pairIKmSt10unique_ptrIN10prometheus7SummaryESt14default_deleteIS6_EEELb0EEEEE19_M_allocate_bucketsEm' type='func-type' binding='weak-binding' visibility='default-visibility' is-defined='yes'/>
    <elf-symbol name='_ZNSt8__detail16_Hashtable_allocISaINS_10_Hash_nodeISt4pairIKmSt10unique_ptrIN10prometheus7SummaryESt14default_deleteIS6_EEELb0EEEEE19_M_deallocate_nodesEPSB_' type='func-type' binding='weak-binding' visibility='default-visibility' is-defined='yes'/>
    <elf-symbol name='_ZNSt8__detail16_Hashtable_allocISaINS_10_Hash_nodeISt4pairIKmSt10unique_ptrIN10prometheus7SummaryESt14default_deleteIS6_EEELb0EEEEE21_M_deallocate_bucketsEPPNS_15_Hash_node_baseEm' type='func-type' binding='weak-binding' visibility='default-visibility' is-defined='yes'/>
    <elf-symbol name='_ZNSt8__detail16_Hashtable_allocISaINS_10_Hash_nodeISt4pairIKmSt10unique_ptrIN10prometheus7SummaryESt14default_deleteIS6_EEELb0EEEEE22_M_deallocate_node_ptrEPSB_' type='func-type' binding='weak-binding' visibility='default-visibility' is-defined='yes'/>
    <elf-symbol name='_ZNSt8__detail16_Hashtable_allocISaINS_10_Hash_nodeISt4pairIKmSt10unique_ptrIN10prometheus9HistogramESt14default_deleteIS6_EEELb0EEEEE16_M_allocate_nodeIJS2_ImS9_EEEEPSB_DpOT_' type='func-type' binding='weak-binding' visibility='default-visibility' is-defined='yes'/>
    <elf-symbol name='_ZNSt8__detail16_Hashtable_allocISaINS_10_Hash_nodeISt4pairIKmSt10unique_ptrIN10prometheus9HistogramESt14default_deleteIS6_EEELb0EEEEE17_M_node_allocatorEv' type='func-type' binding='weak-binding' visibility='default-visibility' is-defined='yes'/>
    <elf-symbol name='_ZNSt8__detail16_Hashtable_allocISaINS_10_Hash_nodeISt4pairIKmSt10unique_ptrIN10prometheus9HistogramESt14default_deleteIS6_EEELb0EEEEE18_M_deallocate_nodeEPSB_' type='func-type' binding='weak-binding' visibility='default-visibility' is-defined='yes'/>
    <elf-symbol name='_ZNSt8__detail16_Hashtable_allocISaINS_10_Hash_nodeISt4pairIKmSt10unique_ptrIN10prometheus9HistogramESt14default_deleteIS6_EEELb0EEEEE19_M_allocate_bucketsEm' type='func-type' binding='weak-binding' visibility='default-visibility' is-defined='yes'/>
    <elf-symbol name='_ZNSt8__detail16_Hashtable_allocISaINS_10_Hash_nodeISt4pairIKmSt10unique_ptrIN10prometheus9HistogramESt14default_deleteIS6_EEELb0EEEEE19_M_deallocate_nodesEPSB_' type='func-type' binding='weak-binding' visibility='default-visibility' is-defined='yes'/>
    <elf-symbol name='_ZNSt8__detail16_Hashtable_allocISaINS_10_Hash_nodeISt4pairIKmSt10unique_ptrIN10prometheus9HistogramESt14default_deleteIS6_EEELb0EEEEE21_M_deallocate_bucketsEPPNS_15_Hash_node_baseEm' type='func-type' binding='weak-binding' visibility='default-visibility' is-defined='yes'/>
    <elf-symbol name='_ZNSt8__detail16_Hashtable_allocISaINS_10_Hash_nodeISt4pairIKmSt10unique_ptrIN10prometheus9HistogramESt14default_deleteIS6_EEELb0EEEEE22_M_deallocate_node_ptrEPSB_' type='func-type' binding='weak-binding' visibility='default-visibility' is-defined='yes'/>
    <elf-symbol name='_ZNSt8__detail16_Hashtable_allocISaINS_10_Hash_nodeISt4pairIKmSt3mapINSt7__cxx1112basic_stringIcSt11char_traitsIcESaIcEEESA_St4lessISA_ESaIS2_IKSA_SA_EEEELb0EEEEE16_M_allocate_nodeIJSH_EEEPSI_DpOT_' type='func-type' binding='weak-binding' visibility='default-visibility' is-defined='yes'/>
    <elf-symbol name='_ZNSt8__detail16_Hashtable_allocISaINS_10_Hash_nodeISt4pairIKmSt3mapINSt7__cxx1112basic_stringIcSt11char_traitsIcESaIcEEESA_St4lessISA_ESaIS2_IKSA_SA_EEEELb0EEEEE17_M_node_allocatorEv' type='func-type' binding='weak-binding' visibility='default-visibility' is-defined='yes'/>
    <elf-symbol name='_ZNSt8__detail16_Hashtable_allocISaINS_10_Hash_nodeISt4pairIKmSt3mapINSt7__cxx1112basic_stringIcSt11char_traitsIcESaIcEEESA_St4lessISA_ESaIS2_IKSA_SA_EEEELb0EEEEE18_M_deallocate_nodeEPSI_' type='func-type' binding='weak-binding' visibility='default-visibility' is-defined='yes'/>
    <elf-symbol name='_ZNSt8__detail16_Hashtable_allocISaINS_10_Hash_nodeISt4pairIKmSt3mapINSt7__cxx1112basic_stringIcSt11char_traitsIcESaIcEEESA_St4lessISA_ESaIS2_IKSA_SA_EEEELb0EEEEE19_M_allocate_bucketsEm' type='func-type' binding='weak-binding' visibility='default-visibility' is-defined='yes'/>
    <elf-symbol name='_ZNSt8__detail16_Hashtable_allocISaINS_10_Hash_nodeISt4pairIKmSt3mapINSt7__cxx1112basic_stringIcSt11char_traitsIcESaIcEEESA_St4lessISA_ESaIS2_IKSA_SA_EEEELb0EEEEE19_M_deallocate_nodesEPSI_' type='func-type' binding='weak-binding' visibility='default-visibility' is-defined='yes'/>
    <elf-symbol name='_ZNSt8__detail16_Hashtable_allocISaINS_10_Hash_nodeISt4pairIKmSt3mapINSt7__cxx1112basic_stringIcSt11char_traitsIcESaIcEEESA_St4lessISA_ESaIS2_IKSA_SA_EEEELb0EEEEE21_M_deallocate_bucketsEPPNS_15_Hash_node_baseEm' type='func-type' binding='weak-binding' visibility='default-visibility' is-defined='yes'/>
    <elf-symbol name='_ZNSt8__detail16_Hashtable_allocISaINS_10_Hash_nodeISt4pairIKmSt3mapINSt7__cxx1112basic_stringIcSt11char_traitsIcESaIcEEESA_St4lessISA_ESaIS2_IKSA_SA_EEEELb0EEEEE22_M_deallocate_node_ptrEPSI_' type='func-type' binding='weak-binding' visibility='default-visibility' is-defined='yes'/>
    <elf-symbol name='_ZNSt8__detail19_Node_iterator_baseISt4pairIKPN10prometheus5GaugeEmELb0EEC1EPNS_10_Hash_nodeIS6_Lb0EEE' type='func-type' binding='weak-binding' visibility='default-visibility' alias='_ZNSt8__detail19_Node_iterator_baseISt4pairIKPN10prometheus5GaugeEmELb0EEC2EPNS_10_Hash_nodeIS6_Lb0EEE' is-defined='yes'/>
    <elf-symbol name='_ZNSt8__detail19_Node_iterator_baseISt4pairIKPN10prometheus5GaugeEmELb0EEC2EPNS_10_Hash_nodeIS6_Lb0EEE' type='func-type' binding='weak-binding' visibility='default-visibility' is-defined='yes'/>
    <elf-symbol name='_ZNSt8__detail19_Node_iterator_baseISt4pairIKPN10prometheus7CounterEmELb0EEC1EPNS_10_Hash_nodeIS6_Lb0EEE' type='func-type' binding='weak-binding' visibility='default-visibility' alias='_ZNSt8__detail19_Node_iterator_baseISt4pairIKPN10prometheus7CounterEmELb0EEC2EPNS_10_Hash_nodeIS6_Lb0EEE' is-defined='yes'/>
    <elf-symbol name='_ZNSt8__detail19_Node_iterator_baseISt4pairIKPN10prometheus7CounterEmELb0EEC2EPNS_10_Hash_nodeIS6_Lb0EEE' type='func-type' binding='weak-binding' visibility='default-visibility' is-defined='yes'/>
    <elf-symbol name='_ZNSt8__detail19_Node_iterator_baseISt4pairIKPN10prometheus7SummaryEmELb0EEC1EPNS_10_Hash_nodeIS6_Lb0EEE' type='func-type' binding='weak-binding' visibility='default-visibility' alias='_ZNSt8__detail19_Node_iterator_baseISt4pairIKPN10prometheus7SummaryEmELb0EEC2EPNS_10_Hash_nodeIS6_Lb0EEE' is-defined='yes'/>
    <elf-symbol name='_ZNSt8__detail19_Node_iterator_baseISt4pairIKPN10prometheus7SummaryEmELb0EEC2EPNS_10_Hash_nodeIS6_Lb0EEE' type='func-type' binding='weak-binding' visibility='default-visibility' is-defined='yes'/>
    <elf-symbol name='_ZNSt8__detail19_Node_iterator_baseISt4pairIKPN10prometheus9HistogramEmELb0EEC1EPNS_10_Hash_nodeIS6_Lb0EEE' type='func-type' binding='weak-binding' visibility='default-visibility' alias='_ZNSt8__detail19_Node_iterator_baseISt4pairIKPN10prometheus9HistogramEmELb0EEC2EPNS_10_Hash_nodeIS6_Lb0EEE' is-defined='yes'/>
    <elf-symbol name='_ZNSt8__detail19_Node_iterator_baseISt4pairIKPN10prometheus9HistogramEmELb0EEC2EPNS_10_Hash_nodeIS6_Lb0EEE' type='func-type' binding='weak-binding' visibility='default-visibility' is-defined='yes'/>
    <elf-symbol name='_ZNSt8__detail19_Node_iterator_baseISt4pairIKmSt10unique_ptrIN10prometheus5GaugeESt14default_deleteIS5_EEELb0EE7_M_incrEv' type='func-type' binding='weak-binding' visibility='default-visibility' is-defined='yes'/>
    <elf-symbol name='_ZNSt8__detail19_Node_iterator_baseISt4pairIKmSt10unique_ptrIN10prometheus5GaugeESt14default_deleteIS5_EEELb0EEC1EPNS_10_Hash_nodeIS9_Lb0EEE' type='func-type' binding='weak-binding' visibility='default-visibility' is-defined='yes'/>
    <elf-symbol name='_ZNSt8__detail19_Node_iterator_baseISt4pairIKmSt10unique_ptrIN10prometheus5GaugeESt14default_deleteIS5_EEELb0EEC2EPNS_10_Hash_nodeIS9_Lb0EEE' type='func-type' binding='weak-binding' visibility='default-visibility' alias='_ZNSt8__detail19_Node_iterator_baseISt4pairIKmSt10unique_ptrIN10prometheus5GaugeESt14default_deleteIS5_EEELb0EEC1EPNS_10_Hash_nodeIS9_Lb0EEE' is-defined='yes'/>
    <elf-symbol name='_ZNSt8__detail19_Node_iterator_baseISt4pairIKmSt10unique_ptrIN10prometheus7CounterESt14default_deleteIS5_EEELb0EE7_M_incrEv' type='func-type' binding='weak-binding' visibility='default-visibility' is-defined='yes'/>
    <elf-symbol name='_ZNSt8__detail19_Node_iterator_baseISt4pairIKmSt10unique_ptrIN10prometheus7CounterESt14default_deleteIS5_EEELb0EEC1EPNS_10_Hash_nodeIS9_Lb0EEE' type='func-type' binding='weak-binding' visibility='default-visibility' is-defined='yes'/>
    <elf-symbol name='_ZNSt8__detail19_Node_iterator_baseISt4pairIKmSt10unique_ptrIN10prometheus7CounterESt14default_deleteIS5_EEELb0EEC2EPNS_10_Hash_nodeIS9_Lb0EEE' type='func-type' binding='weak-binding' visibility='default-visibility' alias='_ZNSt8__detail19_Node_iterator_baseISt4pairIKmSt10unique_ptrIN10prometheus7CounterESt14default_deleteIS5_EEELb0EEC1EPNS_10_Hash_nodeIS9_Lb0EEE' is-defined='yes'/>
    <elf-symbol name='_ZNSt8__detail19_Node_iterator_baseISt4pairIKmSt10unique_ptrIN10prometheus7SummaryESt14default_deleteIS5_EEELb0EE7_M_incrEv' type='func-type' binding='weak-binding' visibility='default-visibility' is-defined='yes'/>
    <elf-symbol name='_ZNSt8__detail19_Node_iterator_baseISt4pairIKmSt10unique_ptrIN10prometheus7SummaryESt14default_deleteIS5_EEELb0EEC1EPNS_10_Hash_nodeIS9_Lb0EEE' type='func-type' binding='weak-binding' visibility='default-visibility' alias='_ZNSt8__detail19_Node_iterator_baseISt4pairIKmSt10unique_ptrIN10prometheus7SummaryESt14default_deleteIS5_EEELb0EEC2EPNS_10_Hash_nodeIS9_Lb0EEE' is-defined='yes'/>
    <elf-symbol name='_ZNSt8__detail19_Node_iterator_baseISt4pairIKmSt10unique_ptrIN10prometheus7SummaryESt14default_deleteIS5_EEELb0EEC2EPNS_10_Hash_nodeIS9_Lb0EEE' type='func-type' binding='weak-binding' visibility='default-visibility' is-defined='yes'/>
    <elf-symbol name='_ZNSt8__detail19_Node_iterator_baseISt4pairIKmSt10unique_ptrIN10prometheus9HistogramESt14default_deleteIS5_EEELb0EE7_M_incrEv' type='func-type' binding='weak-binding' visibility='default-visibility' is-defined='yes'/>
    <elf-symbol name='_ZNSt8__detail19_Node_iterator_baseISt4pairIKmSt10unique_ptrIN10prometheus9HistogramESt14default_deleteIS5_EEELb0EEC1EPNS_10_Hash_nodeIS9_Lb0EEE' type='func-type' binding='weak-binding' visibility='default-visibility' is-defined='yes'/>
    <elf-symbol name='_ZNSt8__detail19_Node_iterator_baseISt4pairIKmSt10unique_ptrIN10prometheus9HistogramESt14default_deleteIS5_EEELb0EEC2EPNS_10_Hash_nodeIS9_Lb0EEE' type='func-type' binding='weak-binding' visibility='default-visibility' alias='_ZNSt8__detail19_Node_iterator_baseISt4pairIKmSt10unique_ptrIN10prometheus9HistogramESt14default_deleteIS5_EEELb0EEC1EPNS_10_Hash_nodeIS9_Lb0EEE' is-defined='yes'/>
    <elf-symbol name='_ZNSt8__detail19_Node_iterator_baseISt4pairIKmSt3mapINSt7__cxx1112basic_stringIcSt11char_traitsIcESaIcEEES9_St4lessIS9_ESaIS1_IKS9_S9_EEEELb0EEC1EPNS_10_Hash_nodeISG_Lb0EEE' type='func-type' binding='weak-binding' visibility='default-visibility' alias='_ZNSt8__detail19_Node_iterator_baseISt4pairIKmSt3mapINSt7__cxx1112basic_stringIcSt11char_traitsIcESaIcEEES9_St4lessIS9_ESaIS1_IKS9_S9_EEEELb0EEC2EPNS_10_Hash_nodeISG_Lb0EEE' is-defined='yes'/>
    <elf-symbol name='_ZNSt8__detail19_Node_iterator_baseISt4pairIKmSt3mapINSt7__cxx1112basic_stringIcSt11char_traitsIcESaIcEEES9_St4lessIS9_ESaIS1_IKS9_S9_EEEELb0EEC2EPNS_10_Hash_nodeISG_Lb0EEE' type='func-type' binding='weak-binding' visibility='default-visibility' is-defined='yes'/>
    <elf-symbol name='_ZNSt8__detail20_Node_const_iteratorISt4pairIKmSt10unique_ptrIN10prometheus5GaugeESt14default_deleteIS5_EEELb0ELb0EEC1EPNS_10_Hash_nodeIS9_Lb0EEE' type='func-type' binding='weak-binding' visibility='default-visibility' alias='_ZNSt8__detail20_Node_const_iteratorISt4pairIKmSt10unique_ptrIN10prometheus5GaugeESt14default_deleteIS5_EEELb0ELb0EEC2EPNS_10_Hash_nodeIS9_Lb0EEE' is-defined='yes'/>
    <elf-symbol name='_ZNSt8__detail20_Node_const_iteratorISt4pairIKmSt10unique_ptrIN10prometheus5GaugeESt14default_deleteIS5_EEELb0ELb0EEC2EPNS_10_Hash_nodeIS9_Lb0EEE' type='func-type' binding='weak-binding' visibility='default-visibility' is-defined='yes'/>
    <elf-symbol name='_ZNSt8__detail20_Node_const_iteratorISt4pairIKmSt10unique_ptrIN10prometheus5GaugeESt14default_deleteIS5_EEELb0ELb0EEppEv' type='func-type' binding='weak-binding' visibility='default-visibility' is-defined='yes'/>
    <elf-symbol name='_ZNSt8__detail20_Node_const_iteratorISt4pairIKmSt10unique_ptrIN10prometheus7CounterESt14default_deleteIS5_EEELb0ELb0EEC1EPNS_10_Hash_nodeIS9_Lb0EEE' type='func-type' binding='weak-binding' visibility='default-visibility' is-defined='yes'/>
    <elf-symbol name='_ZNSt8__detail20_Node_const_iteratorISt4pairIKmSt10unique_ptrIN10prometheus7CounterESt14default_deleteIS5_EEELb0ELb0EEC2EPNS_10_Hash_nodeIS9_Lb0EEE' type='func-type' binding='weak-binding' visibility='default-visibility' alias='_ZNSt8__detail20_Node_const_iteratorISt4pairIKmSt10unique_ptrIN10prometheus7CounterESt14default_deleteIS5_EEELb0ELb0EEC1EPNS_10_Hash_nodeIS9_Lb0EEE' is-defined='yes'/>
    <elf-symbol name='_ZNSt8__detail20_Node_const_iteratorISt4pairIKmSt10unique_ptrIN10prometheus7CounterESt14default_deleteIS5_EEELb0ELb0EEppEv' type='func-type' binding='weak-binding' visibility='default-visibility' is-defined='yes'/>
    <elf-symbol name='_ZNSt8__detail20_Node_const_iteratorISt4pairIKmSt10unique_ptrIN10prometheus7SummaryESt14default_deleteIS5_EEELb0ELb0EEC1EPNS_10_Hash_nodeIS9_Lb0EEE' type='func-type' binding='weak-binding' visibility='default-visibility' alias='_ZNSt8__detail20_Node_const_iteratorISt4pairIKmSt10unique_ptrIN10prometheus7SummaryESt14default_deleteIS5_EEELb0ELb0EEC2EPNS_10_Hash_nodeIS9_Lb0EEE' is-defined='yes'/>
    <elf-symbol name='_ZNSt8__detail20_Node_const_iteratorISt4pairIKmSt10unique_ptrIN10prometheus7SummaryESt14default_deleteIS5_EEELb0ELb0EEC2EPNS_10_Hash_nodeIS9_Lb0EEE' type='func-type' binding='weak-binding' visibility='default-visibility' is-defined='yes'/>
    <elf-symbol name='_ZNSt8__detail20_Node_const_iteratorISt4pairIKmSt10unique_ptrIN10prometheus7SummaryESt14default_deleteIS5_EEELb0ELb0EEppEv' type='func-type' binding='weak-binding' visibility='default-visibility' is-defined='yes'/>
    <elf-symbol name='_ZNSt8__detail20_Node_const_iteratorISt4pairIKmSt10unique_ptrIN10prometheus9HistogramESt14default_deleteIS5_EEELb0ELb0EEC1EPNS_10_Hash_nodeIS9_Lb0EEE' type='func-type' binding='weak-binding' visibility='default-visibility' alias='_ZNSt8__detail20_Node_const_iteratorISt4pairIKmSt10unique_ptrIN10prometheus9HistogramESt14default_deleteIS5_EEELb0ELb0EEC2EPNS_10_Hash_nodeIS9_Lb0EEE' is-defined='yes'/>
    <elf-symbol name='_ZNSt8__detail20_Node_const_iteratorISt4pairIKmSt10unique_ptrIN10prometheus9HistogramESt14default_deleteIS5_EEELb0ELb0EEC2EPNS_10_Hash_nodeIS9_Lb0EEE' type='func-type' binding='weak-binding' visibility='default-visibility' is-defined='yes'/>
    <elf-symbol name='_ZNSt8__detail20_Node_const_iteratorISt4pairIKmSt10unique_ptrIN10prometheus9HistogramESt14default_deleteIS5_EEELb0ELb0EEppEv' type='func-type' binding='weak-binding' visibility='default-visibility' is-defined='yes'/>
    <elf-symbol name='_ZNSt8__detail21_Hash_node_value_baseISt4pairIKPN10prometheus5GaugeEmEE4_M_vEv' type='func-type' binding='weak-binding' visibility='default-visibility' is-defined='yes'/>
    <elf-symbol name='_ZNSt8__detail21_Hash_node_value_baseISt4pairIKPN10prometheus5GaugeEmEE9_M_valptrEv' type='func-type' binding='weak-binding' visibility='default-visibility' is-defined='yes'/>
    <elf-symbol name='_ZNSt8__detail21_Hash_node_value_baseISt4pairIKPN10prometheus7CounterEmEE4_M_vEv' type='func-type' binding='weak-binding' visibility='default-visibility' is-defined='yes'/>
    <elf-symbol name='_ZNSt8__detail21_Hash_node_value_baseISt4pairIKPN10prometheus7CounterEmEE9_M_valptrEv' type='func-type' binding='weak-binding' visibility='default-visibility' is-defined='yes'/>
    <elf-symbol name='_ZNSt8__detail21_Hash_node_value_baseISt4pairIKPN10prometheus7SummaryEmEE4_M_vEv' type='func-type' binding='weak-binding' visibility='default-visibility' is-defined='yes'/>
    <elf-symbol name='_ZNSt8__detail21_Hash_node_value_baseISt4pairIKPN10prometheus7SummaryEmEE9_M_valptrEv' type='func-type' binding='weak-binding' visibility='default-visibility' is-defined='yes'/>
    <elf-symbol name='_ZNSt8__detail21_Hash_node_value_baseISt4pairIKPN10prometheus9HistogramEmEE4_M_vEv' type='func-type' binding='weak-binding' visibility='default-visibility' is-defined='yes'/>
    <elf-symbol name='_ZNSt8__detail21_Hash_node_value_baseISt4pairIKPN10prometheus9HistogramEmEE9_M_valptrEv' type='func-type' binding='weak-binding' visibility='default-visibility' is-defined='yes'/>
    <elf-symbol name='_ZNSt8__detail21_Hash_node_value_baseISt4pairIKmSt10unique_ptrIN10prometheus5GaugeESt14default_deleteIS5_EEEE4_M_vEv' type='func-type' binding='weak-binding' visibility='default-visibility' is-defined='yes'/>
    <elf-symbol name='_ZNSt8__detail21_Hash_node_value_baseISt4pairIKmSt10unique_ptrIN10prometheus5GaugeESt14default_deleteIS5_EEEE9_M_valptrEv' type='func-type' binding='weak-binding' visibility='default-visibility' is-defined='yes'/>
    <elf-symbol name='_ZNSt8__detail21_Hash_node_value_baseISt4pairIKmSt10unique_ptrIN10prometheus7CounterESt14default_deleteIS5_EEEE4_M_vEv' type='func-type' binding='weak-binding' visibility='default-visibility' is-defined='yes'/>
    <elf-symbol name='_ZNSt8__detail21_Hash_node_value_baseISt4pairIKmSt10unique_ptrIN10prometheus7CounterESt14default_deleteIS5_EEEE9_M_valptrEv' type='func-type' binding='weak-binding' visibility='default-visibility' is-defined='yes'/>
    <elf-symbol name='_ZNSt8__detail21_Hash_node_value_baseISt4pairIKmSt10unique_ptrIN10prometheus7SummaryESt14default_deleteIS5_EEEE4_M_vEv' type='func-type' binding='weak-binding' visibility='default-visibility' is-defined='yes'/>
    <elf-symbol name='_ZNSt8__detail21_Hash_node_value_baseISt4pairIKmSt10unique_ptrIN10prometheus7SummaryESt14default_deleteIS5_EEEE9_M_valptrEv' type='func-type' binding='weak-binding' visibility='default-visibility' is-defined='yes'/>
    <elf-symbol name='_ZNSt8__detail21_Hash_node_value_baseISt4pairIKmSt10unique_ptrIN10prometheus9HistogramESt14default_deleteIS5_EEEE4_M_vEv' type='func-type' binding='weak-binding' visibility='default-visibility' is-defined='yes'/>
    <elf-symbol name='_ZNSt8__detail21_Hash_node_value_baseISt4pairIKmSt10unique_ptrIN10prometheus9HistogramESt14default_deleteIS5_EEEE9_M_valptrEv' type='func-type' binding='weak-binding' visibility='default-visibility' is-defined='yes'/>
    <elf-symbol name='_ZNSt8__detail21_Hash_node_value_baseISt4pairIKmSt3mapINSt7__cxx1112basic_stringIcSt11char_traitsIcESaIcEEES9_St4lessIS9_ESaIS1_IKS9_S9_EEEEE4_M_vEv' type='func-type' binding='weak-binding' visibility='default-visibility' is-defined='yes'/>
    <elf-symbol name='_ZNSt8__detail21_Hash_node_value_baseISt4pairIKmSt3mapINSt7__cxx1112basic_stringIcSt11char_traitsIcESaIcEEES9_St4lessIS9_ESaIS1_IKS9_S9_EEEEE9_M_valptrEv' type='func-type' binding='weak-binding' visibility='default-visibility' is-defined='yes'/>
    <elf-symbol name='_ZNSt8__detail21_Hashtable_ebo_helperILi0ENS_10_Select1stELb1EE6_S_getERS2_' type='func-type' binding='weak-binding' visibility='default-visibility' is-defined='yes'/>
    <elf-symbol name='_ZNSt8__detail21_Hashtable_ebo_helperILi0ENS_10_Select1stELb1EE7_S_cgetERKS2_' type='func-type' binding='weak-binding' visibility='default-visibility' is-defined='yes'/>
